
objs/8-find-printer.elf:     file format elf32-littlearm


Disassembly of section .text:

00008000 <__code_start__>:
    8000:	e3a00013 	mov	r0, #19
    8004:	e3800080 	orr	r0, r0, #128	@ 0x80
    8008:	e129f000 	msr	CPSR_fc, r0
    800c:	e3a01000 	mov	r1, #0
    8010:	ee071f95 	mcr	15, 0, r1, cr7, cr5, {4}
    8014:	e3a0d302 	mov	sp, #134217728	@ 0x8000000
    8018:	e3a0b000 	mov	fp, #0
    801c:	eb000ccc 	bl	b354 <_cstart>
    8020:	eb000d11 	bl	b46c <rpi_reboot>

00008024 <PUT32>:
    8024:	e5801000 	str	r1, [r0]
    8028:	e12fff1e 	bx	lr

0000802c <GET32>:
    802c:	e5900000 	ldr	r0, [r0]
    8030:	e12fff1e 	bx	lr

00008034 <BRANCHTO>:
    8034:	e12fff10 	bx	r0

00008038 <nop_1>:
    8038:	e320f000 	nop	{0}
    803c:	e3a00000 	mov	r0, #0
    8040:	ef000001 	svc	0x00000001

00008044 <nop_10>:
    8044:	e320f000 	nop	{0}
    8048:	e320f000 	nop	{0}
    804c:	e320f000 	nop	{0}
    8050:	e320f000 	nop	{0}
    8054:	e320f000 	nop	{0}
    8058:	e320f000 	nop	{0}
    805c:	e320f000 	nop	{0}
    8060:	e320f000 	nop	{0}
    8064:	e320f000 	nop	{0}
    8068:	e320f000 	nop	{0}
    806c:	e12fff1e 	bx	lr
    8070:	e3a0d409 	mov	sp, #150994944	@ 0x9000000
    8074:	e24f0004 	sub	r0, pc, #4
    8078:	e28f1000 	add	r1, pc, #0
    807c:	ea000c43 	b	b190 <asm_not_reached_helper>
    8080:	66617473 	.word	0x66617473
    8084:	74732d66 	.word	0x74732d66
    8088:	2e747261 	.word	0x2e747261
    808c:	35383a53 	.word	0x35383a53
    8090:	4f4e3c3a 	.word	0x4f4e3c3a
    8094:	45522054 	.word	0x45522054
    8098:	45484341 	.word	0x45484341
    809c:	3e44      	.short	0x3e44
	...

000080a0 <mov_ident>:
    80a0:	e3a00000 	mov	r0, #0
    80a4:	e3a01001 	mov	r1, #1
    80a8:	e3a02002 	mov	r2, #2
    80ac:	e3a03003 	mov	r3, #3
    80b0:	e3a04004 	mov	r4, #4
    80b4:	e3a05005 	mov	r5, #5
    80b8:	e3a06006 	mov	r6, #6
    80bc:	e3a07007 	mov	r7, #7
    80c0:	e3a08008 	mov	r8, #8
    80c4:	e3a09009 	mov	r9, #9
    80c8:	e3a0a00a 	mov	sl, #10
    80cc:	e3a0b00b 	mov	fp, #11
    80d0:	e3a0c00c 	mov	ip, #12
    80d4:	e3a0d00d 	mov	sp, #13
    80d8:	e12fff1e 	bx	lr
    80dc:	e3a0d409 	mov	sp, #150994944	@ 0x9000000
    80e0:	e24f0004 	sub	r0, pc, #4
    80e4:	e28f1000 	add	r1, pc, #0
    80e8:	ea000c28 	b	b190 <asm_not_reached_helper>
    80ec:	66617473 	.word	0x66617473
    80f0:	74732d66 	.word	0x74732d66
    80f4:	2e747261 	.word	0x2e747261
    80f8:	30313a53 	.word	0x30313a53
    80fc:	4e3c3a33 	.word	0x4e3c3a33
    8100:	5220544f 	.word	0x5220544f
    8104:	48434145 	.word	0x48434145
    8108:	003e4445 	.word	0x003e4445

0000810c <get_gintmsk>:
    810c:	e92d4070 	push	{r4, r5, r6, lr}
    8110:	e59f0180 	ldr	r0, [pc, #384]	@ 8298 <get_gintmsk+0x18c>
    8114:	ebffffc4 	bl	802c <GET32>
    8118:	e1a05000 	mov	r5, r0
    811c:	e3a04000 	mov	r4, #0
    8120:	ea000002 	b	8130 <get_gintmsk+0x24>
    8124:	e59f0170 	ldr	r0, [pc, #368]	@ 829c <get_gintmsk+0x190>
    8128:	eb000b22 	bl	adb8 <printk>
    812c:	e2844001 	add	r4, r4, #1
    8130:	e354001f 	cmp	r4, #31
    8134:	ca000054 	bgt	828c <get_gintmsk+0x180>
    8138:	e1a03435 	lsr	r3, r5, r4
    813c:	e3130001 	tst	r3, #1
    8140:	0afffff9 	beq	812c <get_gintmsk+0x20>
    8144:	e2443001 	sub	r3, r4, #1
    8148:	e59f2150 	ldr	r2, [pc, #336]	@ 82a0 <get_gintmsk+0x194>
    814c:	e353001e 	cmp	r3, #30
    8150:	8afffff5 	bhi	812c <get_gintmsk+0x20>
    8154:	e19230d3 	ldrsb	r3, [r2, r3]
    8158:	e08ff103 	add	pc, pc, r3, lsl #2
    815c:	e320f000 	nop	{0}
    8160:	e59f013c 	ldr	r0, [pc, #316]	@ 82a4 <get_gintmsk+0x198>
    8164:	eb000b13 	bl	adb8 <printk>
    8168:	eaffffef 	b	812c <get_gintmsk+0x20>
    816c:	e59f0134 	ldr	r0, [pc, #308]	@ 82a8 <get_gintmsk+0x19c>
    8170:	eb000b10 	bl	adb8 <printk>
    8174:	eaffffec 	b	812c <get_gintmsk+0x20>
    8178:	e59f012c 	ldr	r0, [pc, #300]	@ 82ac <get_gintmsk+0x1a0>
    817c:	eb000b0d 	bl	adb8 <printk>
    8180:	eaffffe9 	b	812c <get_gintmsk+0x20>
    8184:	e59f0124 	ldr	r0, [pc, #292]	@ 82b0 <get_gintmsk+0x1a4>
    8188:	eb000b0a 	bl	adb8 <printk>
    818c:	eaffffe6 	b	812c <get_gintmsk+0x20>
    8190:	e59f011c 	ldr	r0, [pc, #284]	@ 82b4 <get_gintmsk+0x1a8>
    8194:	eb000b07 	bl	adb8 <printk>
    8198:	eaffffe3 	b	812c <get_gintmsk+0x20>
    819c:	e59f0114 	ldr	r0, [pc, #276]	@ 82b8 <get_gintmsk+0x1ac>
    81a0:	eb000b04 	bl	adb8 <printk>
    81a4:	eaffffe0 	b	812c <get_gintmsk+0x20>
    81a8:	e59f010c 	ldr	r0, [pc, #268]	@ 82bc <get_gintmsk+0x1b0>
    81ac:	eb000b01 	bl	adb8 <printk>
    81b0:	eaffffdd 	b	812c <get_gintmsk+0x20>
    81b4:	e59f0104 	ldr	r0, [pc, #260]	@ 82c0 <get_gintmsk+0x1b4>
    81b8:	eb000afe 	bl	adb8 <printk>
    81bc:	eaffffda 	b	812c <get_gintmsk+0x20>
    81c0:	e59f00fc 	ldr	r0, [pc, #252]	@ 82c4 <get_gintmsk+0x1b8>
    81c4:	eb000afb 	bl	adb8 <printk>
    81c8:	eaffffd7 	b	812c <get_gintmsk+0x20>
    81cc:	e59f00f4 	ldr	r0, [pc, #244]	@ 82c8 <get_gintmsk+0x1bc>
    81d0:	eb000af8 	bl	adb8 <printk>
    81d4:	eaffffd4 	b	812c <get_gintmsk+0x20>
    81d8:	e59f00ec 	ldr	r0, [pc, #236]	@ 82cc <get_gintmsk+0x1c0>
    81dc:	eb000af5 	bl	adb8 <printk>
    81e0:	eaffffd1 	b	812c <get_gintmsk+0x20>
    81e4:	e59f00e4 	ldr	r0, [pc, #228]	@ 82d0 <get_gintmsk+0x1c4>
    81e8:	eb000af2 	bl	adb8 <printk>
    81ec:	eaffffce 	b	812c <get_gintmsk+0x20>
    81f0:	e59f00dc 	ldr	r0, [pc, #220]	@ 82d4 <get_gintmsk+0x1c8>
    81f4:	eb000aef 	bl	adb8 <printk>
    81f8:	eaffffcb 	b	812c <get_gintmsk+0x20>
    81fc:	e59f00d4 	ldr	r0, [pc, #212]	@ 82d8 <get_gintmsk+0x1cc>
    8200:	eb000aec 	bl	adb8 <printk>
    8204:	eaffffc8 	b	812c <get_gintmsk+0x20>
    8208:	e59f00cc 	ldr	r0, [pc, #204]	@ 82dc <get_gintmsk+0x1d0>
    820c:	eb000ae9 	bl	adb8 <printk>
    8210:	eaffffc5 	b	812c <get_gintmsk+0x20>
    8214:	e59f00c4 	ldr	r0, [pc, #196]	@ 82e0 <get_gintmsk+0x1d4>
    8218:	eb000ae6 	bl	adb8 <printk>
    821c:	eaffffc2 	b	812c <get_gintmsk+0x20>
    8220:	e59f00bc 	ldr	r0, [pc, #188]	@ 82e4 <get_gintmsk+0x1d8>
    8224:	eb000ae3 	bl	adb8 <printk>
    8228:	eaffffbf 	b	812c <get_gintmsk+0x20>
    822c:	e59f00b4 	ldr	r0, [pc, #180]	@ 82e8 <get_gintmsk+0x1dc>
    8230:	eb000ae0 	bl	adb8 <printk>
    8234:	eaffffbc 	b	812c <get_gintmsk+0x20>
    8238:	e59f00ac 	ldr	r0, [pc, #172]	@ 82ec <get_gintmsk+0x1e0>
    823c:	eb000add 	bl	adb8 <printk>
    8240:	eaffffb9 	b	812c <get_gintmsk+0x20>
    8244:	e59f00a4 	ldr	r0, [pc, #164]	@ 82f0 <get_gintmsk+0x1e4>
    8248:	eb000ada 	bl	adb8 <printk>
    824c:	eaffffb6 	b	812c <get_gintmsk+0x20>
    8250:	e59f005c 	ldr	r0, [pc, #92]	@ 82b4 <get_gintmsk+0x1a8>
    8254:	eb000ad7 	bl	adb8 <printk>
    8258:	eaffffb3 	b	812c <get_gintmsk+0x20>
    825c:	e59f0090 	ldr	r0, [pc, #144]	@ 82f4 <get_gintmsk+0x1e8>
    8260:	eb000ad4 	bl	adb8 <printk>
    8264:	eaffffb0 	b	812c <get_gintmsk+0x20>
    8268:	e59f0088 	ldr	r0, [pc, #136]	@ 82f8 <get_gintmsk+0x1ec>
    826c:	eb000ad1 	bl	adb8 <printk>
    8270:	eaffffad 	b	812c <get_gintmsk+0x20>
    8274:	e59f0080 	ldr	r0, [pc, #128]	@ 82fc <get_gintmsk+0x1f0>
    8278:	eb000ace 	bl	adb8 <printk>
    827c:	eaffffaa 	b	812c <get_gintmsk+0x20>
    8280:	e59f0078 	ldr	r0, [pc, #120]	@ 8300 <get_gintmsk+0x1f4>
    8284:	eb000acb 	bl	adb8 <printk>
    8288:	eaffffa7 	b	812c <get_gintmsk+0x20>
    828c:	e59f0070 	ldr	r0, [pc, #112]	@ 8304 <get_gintmsk+0x1f8>
    8290:	eb000ac8 	bl	adb8 <printk>
    8294:	e8bd8070 	pop	{r4, r5, r6, pc}
    8298:	20980018 	.word	0x20980018
    829c:	0000b6e0 	.word	0x0000b6e0
    82a0:	0000c82f 	.word	0x0000c82f
    82a4:	0000b6f8 	.word	0x0000b6f8
    82a8:	0000b70c 	.word	0x0000b70c
    82ac:	0000b71c 	.word	0x0000b71c
    82b0:	0000b730 	.word	0x0000b730
    82b4:	0000b744 	.word	0x0000b744
    82b8:	0000b758 	.word	0x0000b758
    82bc:	0000b770 	.word	0x0000b770
    82c0:	0000b784 	.word	0x0000b784
    82c4:	0000b798 	.word	0x0000b798
    82c8:	0000b7ac 	.word	0x0000b7ac
    82cc:	0000b7c0 	.word	0x0000b7c0
    82d0:	0000b7d8 	.word	0x0000b7d8
    82d4:	0000b7e8 	.word	0x0000b7e8
    82d8:	0000b7fc 	.word	0x0000b7fc
    82dc:	0000b810 	.word	0x0000b810
    82e0:	0000b828 	.word	0x0000b828
    82e4:	0000b83c 	.word	0x0000b83c
    82e8:	0000b850 	.word	0x0000b850
    82ec:	0000b864 	.word	0x0000b864
    82f0:	0000b878 	.word	0x0000b878
    82f4:	0000b88c 	.word	0x0000b88c
    82f8:	0000b8a4 	.word	0x0000b8a4
    82fc:	0000b8bc 	.word	0x0000b8bc
    8300:	0000b8d4 	.word	0x0000b8d4
    8304:	0000bde0 	.word	0x0000bde0

00008308 <notmain>:
    8308:	e92d4070 	push	{r4, r5, r6, lr}
    830c:	e59f02f0 	ldr	r0, [pc, #752]	@ 8604 <notmain+0x2fc>
    8310:	ebffff45 	bl	802c <GET32>
    8314:	e1a01000 	mov	r1, r0
    8318:	e59f02e8 	ldr	r0, [pc, #744]	@ 8608 <notmain+0x300>
    831c:	eb000aa5 	bl	adb8 <printk>
    8320:	e3a04000 	mov	r4, #0
    8324:	ea000008 	b	834c <notmain+0x44>
    8328:	e3a00ffa 	mov	r0, #1000	@ 0x3e8
    832c:	eb000c72 	bl	b4fc <delay_ms>
    8330:	e59f02cc 	ldr	r0, [pc, #716]	@ 8604 <notmain+0x2fc>
    8334:	ebffff3c 	bl	802c <GET32>
    8338:	e1a01000 	mov	r1, r0
    833c:	e1a02000 	mov	r2, r0
    8340:	e59f02c4 	ldr	r0, [pc, #708]	@ 860c <notmain+0x304>
    8344:	eb000a9b 	bl	adb8 <printk>
    8348:	e2844001 	add	r4, r4, #1
    834c:	e3540001 	cmp	r4, #1
    8350:	dafffff4 	ble	8328 <notmain+0x20>
    8354:	e59f02b4 	ldr	r0, [pc, #692]	@ 8610 <notmain+0x308>
    8358:	eb000a96 	bl	adb8 <printk>
    835c:	e59f42b0 	ldr	r4, [pc, #688]	@ 8614 <notmain+0x30c>
    8360:	e1a00004 	mov	r0, r4
    8364:	ebffff30 	bl	802c <GET32>
    8368:	e3801401 	orr	r1, r0, #16777216	@ 0x1000000
    836c:	e1a00004 	mov	r0, r4
    8370:	ebffff2b 	bl	8024 <PUT32>
    8374:	e59f529c 	ldr	r5, [pc, #668]	@ 8618 <notmain+0x310>
    8378:	e1a00005 	mov	r0, r5
    837c:	ebffff2a 	bl	802c <GET32>
    8380:	e3c01004 	bic	r1, r0, #4
    8384:	e1a00005 	mov	r0, r5
    8388:	ebffff25 	bl	8024 <PUT32>
    838c:	e1a00005 	mov	r0, r5
    8390:	ebffff25 	bl	802c <GET32>
    8394:	e3c01003 	bic	r1, r0, #3
    8398:	e3811001 	orr	r1, r1, #1
    839c:	e1a00005 	mov	r0, r5
    83a0:	ebffff1f 	bl	8024 <PUT32>
    83a4:	e2855040 	add	r5, r5, #64	@ 0x40
    83a8:	e1a00005 	mov	r0, r5
    83ac:	ebffff1e 	bl	802c <GET32>
    83b0:	e3801a01 	orr	r1, r0, #4096	@ 0x1000
    83b4:	e1a00005 	mov	r0, r5
    83b8:	ebffff19 	bl	8024 <PUT32>
    83bc:	e59f6258 	ldr	r6, [pc, #600]	@ 861c <notmain+0x314>
    83c0:	e1a00006 	mov	r0, r6
    83c4:	ebffff18 	bl	802c <GET32>
    83c8:	e3c01d7f 	bic	r1, r0, #8128	@ 0x1fc0
    83cc:	e3c1103f 	bic	r1, r1, #63	@ 0x3f
    83d0:	e3811a01 	orr	r1, r1, #4096	@ 0x1000
    83d4:	e1a00006 	mov	r0, r6
    83d8:	ebffff11 	bl	8024 <PUT32>
    83dc:	e1a00004 	mov	r0, r4
    83e0:	ebffff11 	bl	802c <GET32>
    83e4:	e3801b0f 	orr	r1, r0, #15360	@ 0x3c00
    83e8:	e1a00004 	mov	r0, r4
    83ec:	ebffff0c 	bl	8024 <PUT32>
    83f0:	e3a00064 	mov	r0, #100	@ 0x64
    83f4:	eb000c40 	bl	b4fc <delay_ms>
    83f8:	e1a00005 	mov	r0, r5
    83fc:	ebffff0a 	bl	802c <GET32>
    8400:	e1a04000 	mov	r4, r0
    8404:	e1a02000 	mov	r2, r0
    8408:	e1a01000 	mov	r1, r0
    840c:	e59f020c 	ldr	r0, [pc, #524]	@ 8620 <notmain+0x318>
    8410:	eb000a68 	bl	adb8 <printk>
    8414:	e3140001 	tst	r4, #1
    8418:	0a00003c 	beq	8510 <notmain+0x208>
    841c:	e59f0200 	ldr	r0, [pc, #512]	@ 8624 <notmain+0x31c>
    8420:	eb000a64 	bl	adb8 <printk>
    8424:	e1a01124 	lsr	r1, r4, #2
    8428:	e2011001 	and	r1, r1, #1
    842c:	e59f01f4 	ldr	r0, [pc, #500]	@ 8628 <notmain+0x320>
    8430:	eb000a60 	bl	adb8 <printk>
    8434:	e59f41f0 	ldr	r4, [pc, #496]	@ 862c <notmain+0x324>
    8438:	e1a00004 	mov	r0, r4
    843c:	ebfffefa 	bl	802c <GET32>
    8440:	e3801c01 	orr	r1, r0, #256	@ 0x100
    8444:	e1a00004 	mov	r0, r4
    8448:	ebfffef5 	bl	8024 <PUT32>
    844c:	e3a00032 	mov	r0, #50	@ 0x32
    8450:	eb000c29 	bl	b4fc <delay_ms>
    8454:	e1a00004 	mov	r0, r4
    8458:	ebfffef3 	bl	802c <GET32>
    845c:	e3c01c01 	bic	r1, r0, #256	@ 0x100
    8460:	e1a00004 	mov	r0, r4
    8464:	ebfffeee 	bl	8024 <PUT32>
    8468:	e3a00014 	mov	r0, #20
    846c:	eb000c22 	bl	b4fc <delay_ms>
    8470:	e1a00004 	mov	r0, r4
    8474:	ebfffeec 	bl	802c <GET32>
    8478:	e1a04000 	mov	r4, r0
    847c:	e3100001 	tst	r0, #1
    8480:	0a000025 	beq	851c <notmain+0x214>
    8484:	e1a02000 	mov	r2, r0
    8488:	e1a01000 	mov	r1, r0
    848c:	e59f018c 	ldr	r0, [pc, #396]	@ 8620 <notmain+0x318>
    8490:	eb000a48 	bl	adb8 <printk>
    8494:	e1a01124 	lsr	r1, r4, #2
    8498:	e2011001 	and	r1, r1, #1
    849c:	e59f0184 	ldr	r0, [pc, #388]	@ 8628 <notmain+0x320>
    84a0:	eb000a44 	bl	adb8 <printk>
    84a4:	e59f0180 	ldr	r0, [pc, #384]	@ 862c <notmain+0x324>
    84a8:	ebfffedf 	bl	802c <GET32>
    84ac:	e1a018a0 	lsr	r1, r0, #17
    84b0:	e2011003 	and	r1, r1, #3
    84b4:	e59f0174 	ldr	r0, [pc, #372]	@ 8630 <notmain+0x328>
    84b8:	eb000a3e 	bl	adb8 <printk>
    84bc:	e59f4170 	ldr	r4, [pc, #368]	@ 8634 <notmain+0x32c>
    84c0:	e1a00004 	mov	r0, r4
    84c4:	ebfffed8 	bl	802c <GET32>
    84c8:	e1a01820 	lsr	r1, r0, #16
    84cc:	e1a01801 	lsl	r1, r1, #16
    84d0:	e3811cbb 	orr	r1, r1, #47872	@ 0xbb00
    84d4:	e3811080 	orr	r1, r1, #128	@ 0x80
    84d8:	e1a00004 	mov	r0, r4
    84dc:	ebfffed0 	bl	8024 <PUT32>
    84e0:	e3a00064 	mov	r0, #100	@ 0x64
    84e4:	eb000c04 	bl	b4fc <delay_ms>
    84e8:	e59f0114 	ldr	r0, [pc, #276]	@ 8604 <notmain+0x2fc>
    84ec:	ebfffece 	bl	802c <GET32>
    84f0:	e1a01000 	mov	r1, r0
    84f4:	e1a02000 	mov	r2, r0
    84f8:	e59f0138 	ldr	r0, [pc, #312]	@ 8638 <notmain+0x330>
    84fc:	eb000a2d 	bl	adb8 <printk>
    8500:	e59f0134 	ldr	r0, [pc, #308]	@ 863c <notmain+0x334>
    8504:	eb000a2b 	bl	adb8 <printk>
    8508:	e3a04000 	mov	r4, #0
    850c:	ea00000b 	b	8540 <notmain+0x238>
    8510:	e59f0128 	ldr	r0, [pc, #296]	@ 8640 <notmain+0x338>
    8514:	eb000a27 	bl	adb8 <printk>
    8518:	e8bd8070 	pop	{r4, r5, r6, pc}
    851c:	e59f0120 	ldr	r0, [pc, #288]	@ 8644 <notmain+0x33c>
    8520:	eb000a24 	bl	adb8 <printk>
    8524:	e8bd8070 	pop	{r4, r5, r6, pc}
    8528:	e59f00d4 	ldr	r0, [pc, #212]	@ 8604 <notmain+0x2fc>
    852c:	ebfffebe 	bl	802c <GET32>
    8530:	e1a01420 	lsr	r1, r0, #8
    8534:	e59f010c 	ldr	r0, [pc, #268]	@ 8648 <notmain+0x340>
    8538:	eb000a1e 	bl	adb8 <printk>
    853c:	e2844001 	add	r4, r4, #1
    8540:	e3540004 	cmp	r4, #4
    8544:	dafffff7 	ble	8528 <notmain+0x220>
    8548:	e59f40fc 	ldr	r4, [pc, #252]	@ 864c <notmain+0x344>
    854c:	e1a00004 	mov	r0, r4
    8550:	ebfffeb5 	bl	802c <GET32>
    8554:	e3801102 	orr	r1, r0, #-2147483648	@ 0x80000000
    8558:	e1a00004 	mov	r0, r4
    855c:	ebfffeb0 	bl	8024 <PUT32>
    8560:	e1a00004 	mov	r0, r4
    8564:	ebfffeb0 	bl	802c <GET32>
    8568:	e1a01000 	mov	r1, r0
    856c:	e59f00dc 	ldr	r0, [pc, #220]	@ 8650 <notmain+0x348>
    8570:	eb000a10 	bl	adb8 <printk>
    8574:	e59f00d8 	ldr	r0, [pc, #216]	@ 8654 <notmain+0x34c>
    8578:	ebfffeab 	bl	802c <GET32>
    857c:	e1a01000 	mov	r1, r0
    8580:	e59f00d0 	ldr	r0, [pc, #208]	@ 8658 <notmain+0x350>
    8584:	eb000a0b 	bl	adb8 <printk>
    8588:	e59f00cc 	ldr	r0, [pc, #204]	@ 865c <notmain+0x354>
    858c:	ebfffea6 	bl	802c <GET32>
    8590:	e1a01000 	mov	r1, r0
    8594:	e59f00c4 	ldr	r0, [pc, #196]	@ 8660 <notmain+0x358>
    8598:	eb000a06 	bl	adb8 <printk>
    859c:	e59f00c0 	ldr	r0, [pc, #192]	@ 8664 <notmain+0x35c>
    85a0:	ebfffea1 	bl	802c <GET32>
    85a4:	e1a05000 	mov	r5, r0
    85a8:	e1a01000 	mov	r1, r0
    85ac:	e59f00b4 	ldr	r0, [pc, #180]	@ 8668 <notmain+0x360>
    85b0:	eb000a00 	bl	adb8 <printk>
    85b4:	e3a06000 	mov	r6, #0
    85b8:	ea00000c 	b	85f0 <notmain+0x2e8>
    85bc:	e0850104 	add	r0, r5, r4, lsl #2
    85c0:	ebfffe99 	bl	802c <GET32>
    85c4:	e1a01000 	mov	r1, r0
    85c8:	e59f009c 	ldr	r0, [pc, #156]	@ 866c <notmain+0x364>
    85cc:	eb0009f9 	bl	adb8 <printk>
    85d0:	e2844001 	add	r4, r4, #1
    85d4:	e3540004 	cmp	r4, #4
    85d8:	dafffff7 	ble	85bc <notmain+0x2b4>
    85dc:	e59f002c 	ldr	r0, [pc, #44]	@ 8610 <notmain+0x308>
    85e0:	eb0009f4 	bl	adb8 <printk>
    85e4:	e3a00064 	mov	r0, #100	@ 0x64
    85e8:	eb000bc3 	bl	b4fc <delay_ms>
    85ec:	e2866001 	add	r6, r6, #1
    85f0:	e3560009 	cmp	r6, #9
    85f4:	d3a04000 	movle	r4, #0
    85f8:	dafffff5 	ble	85d4 <notmain+0x2cc>
    85fc:	ebfffec2 	bl	810c <get_gintmsk>
    8600:	e8bd8070 	pop	{r4, r5, r6, pc}
    8604:	20980808 	.word	0x20980808
    8608:	0000b8e8 	.word	0x0000b8e8
    860c:	0000b918 	.word	0x0000b918
    8610:	0000bde0 	.word	0x0000bde0
    8614:	20980018 	.word	0x20980018
    8618:	20980400 	.word	0x20980400
    861c:	20980800 	.word	0x20980800
    8620:	0000b944 	.word	0x0000b944
    8624:	0000b980 	.word	0x0000b980
    8628:	0000b9b0 	.word	0x0000b9b0
    862c:	20980440 	.word	0x20980440
    8630:	0000b9f0 	.word	0x0000b9f0
    8634:	20980404 	.word	0x20980404
    8638:	0000ba08 	.word	0x0000ba08
    863c:	0000ba3c 	.word	0x0000ba3c
    8640:	0000b960 	.word	0x0000b960
    8644:	0000b9c4 	.word	0x0000b9c4
    8648:	0000ba8c 	.word	0x0000ba8c
    864c:	20980b00 	.word	0x20980b00
    8650:	0000bab8 	.word	0x0000bab8
    8654:	20980b08 	.word	0x20980b08
    8658:	0000bac8 	.word	0x0000bac8
    865c:	20980b10 	.word	0x20980b10
    8660:	0000bad8 	.word	0x0000bad8
    8664:	20980b14 	.word	0x20980b14
    8668:	0000bae8 	.word	0x0000bae8
    866c:	0000bafc 	.word	0x0000bafc

00008670 <which_wp>:
    8670:	e1a03000 	mov	r3, r0
    8674:	e3a00000 	mov	r0, #0
    8678:	ea000000 	b	8680 <which_wp+0x10>
    867c:	e2800001 	add	r0, r0, #1
    8680:	e3500001 	cmp	r0, #1
    8684:	ca000009 	bgt	86b0 <which_wp+0x40>
    8688:	e59f2028 	ldr	r2, [pc, #40]	@ 86b8 <which_wp+0x48>
    868c:	e7922100 	ldr	r2, [r2, r0, lsl #2]
    8690:	e3520000 	cmp	r2, #0
    8694:	0afffff8 	beq	867c <which_wp+0xc>
    8698:	e59f2018 	ldr	r2, [pc, #24]	@ 86b8 <which_wp+0x48>
    869c:	e0822100 	add	r2, r2, r0, lsl #2
    86a0:	e5922008 	ldr	r2, [r2, #8]
    86a4:	e1520003 	cmp	r2, r3
    86a8:	1afffff3 	bne	867c <which_wp+0xc>
    86ac:	e12fff1e 	bx	lr
    86b0:	e3e00000 	mvn	r0, #0
    86b4:	e12fff1e 	bx	lr
    86b8:	0000cf54 	.word	0x0000cf54

000086bc <get_next_available_wp>:
    86bc:	e3a00000 	mov	r0, #0
    86c0:	e3500001 	cmp	r0, #1
    86c4:	ca000005 	bgt	86e0 <get_next_available_wp+0x24>
    86c8:	e59f3018 	ldr	r3, [pc, #24]	@ 86e8 <get_next_available_wp+0x2c>
    86cc:	e7933100 	ldr	r3, [r3, r0, lsl #2]
    86d0:	e3530000 	cmp	r3, #0
    86d4:	012fff1e 	bxeq	lr
    86d8:	e2800001 	add	r0, r0, #1
    86dc:	eafffff7 	b	86c0 <get_next_available_wp+0x4>
    86e0:	e3e00000 	mvn	r0, #0
    86e4:	e12fff1e 	bx	lr
    86e8:	0000cf54 	.word	0x0000cf54

000086ec <wp_ctrl_is_enabled>:
    86ec:	e3500000 	cmp	r0, #0
    86f0:	1a000002 	bne	8700 <wp_ctrl_is_enabled+0x14>
    86f4:	ee103ef0 	mrc	14, 0, r3, cr0, cr0, {7}
    86f8:	e3130001 	tst	r3, #1
    86fc:	1a000008 	bne	8724 <wp_ctrl_is_enabled+0x38>
    8700:	e3500001 	cmp	r0, #1
    8704:	0a000001 	beq	8710 <wp_ctrl_is_enabled+0x24>
    8708:	e3a00000 	mov	r0, #0
    870c:	e12fff1e 	bx	lr
    8710:	ee103ef1 	mrc	14, 0, r3, cr0, cr1, {7}
    8714:	e3130001 	tst	r3, #1
    8718:	1a000003 	bne	872c <wp_ctrl_is_enabled+0x40>
    871c:	e3a00000 	mov	r0, #0
    8720:	e12fff1e 	bx	lr
    8724:	e3a00001 	mov	r0, #1
    8728:	e12fff1e 	bx	lr
    872c:	e3a00001 	mov	r0, #1
    8730:	e12fff1e 	bx	lr

00008734 <wp_ctrl_disable>:
    8734:	e3500000 	cmp	r0, #0
    8738:	1a000004 	bne	8750 <wp_ctrl_disable+0x1c>
    873c:	ee103ef0 	mrc	14, 0, r3, cr0, cr0, {7}
    8740:	e3c33001 	bic	r3, r3, #1
    8744:	ee003ef0 	mcr	14, 0, r3, cr0, cr0, {7}
    8748:	e3a03000 	mov	r3, #0
    874c:	ee073f95 	mcr	15, 0, r3, cr7, cr5, {4}
    8750:	e3500001 	cmp	r0, #1
    8754:	112fff1e 	bxne	lr
    8758:	ee103ef1 	mrc	14, 0, r3, cr0, cr1, {7}
    875c:	e3c33001 	bic	r3, r3, #1
    8760:	ee003ef1 	mcr	14, 0, r3, cr0, cr1, {7}
    8764:	e3a03000 	mov	r3, #0
    8768:	ee073f95 	mcr	15, 0, r3, cr7, cr5, {4}
    876c:	e12fff1e 	bx	lr

00008770 <wp_ctrl_set>:
    8770:	e3500000 	cmp	r0, #0
    8774:	1a000002 	bne	8784 <wp_ctrl_set+0x14>
    8778:	ee001ef0 	mcr	14, 0, r1, cr0, cr0, {7}
    877c:	e3a03000 	mov	r3, #0
    8780:	ee073f95 	mcr	15, 0, r3, cr7, cr5, {4}
    8784:	e3500001 	cmp	r0, #1
    8788:	112fff1e 	bxne	lr
    878c:	ee001ef1 	mcr	14, 0, r1, cr0, cr1, {7}
    8790:	e3a03000 	mov	r3, #0
    8794:	ee073f95 	mcr	15, 0, r3, cr7, cr5, {4}
    8798:	e12fff1e 	bx	lr

0000879c <mini_watch_load_fault>:
    879c:	ee150f10 	mrc	15, 0, r0, cr5, cr0, {0}
    87a0:	e1a005a0 	lsr	r0, r0, #11
    87a4:	e2000001 	and	r0, r0, #1
    87a8:	e2200001 	eor	r0, r0, #1
    87ac:	e12fff1e 	bx	lr

000087b0 <bits_mask>:
    87b0:	e3500020 	cmp	r0, #32
    87b4:	0a00000f 	beq	87f8 <bits_mask+0x48>
    87b8:	e350001f 	cmp	r0, #31
    87bc:	8a000003 	bhi	87d0 <bits_mask+0x20>
    87c0:	e3a03001 	mov	r3, #1
    87c4:	e1a00013 	lsl	r0, r3, r0
    87c8:	e2400001 	sub	r0, r0, #1
    87cc:	e12fff1e 	bx	lr
    87d0:	e52de004 	push	{lr}		@ (str lr, [sp, #-4]!)
    87d4:	e24dd00c 	sub	sp, sp, #12
    87d8:	e59f3020 	ldr	r3, [pc, #32]	@ 8800 <bits_mask+0x50>
    87dc:	e58d3000 	str	r3, [sp]
    87e0:	e3a03033 	mov	r3, #51	@ 0x33
    87e4:	e59f2018 	ldr	r2, [pc, #24]	@ 8804 <bits_mask+0x54>
    87e8:	e59f1018 	ldr	r1, [pc, #24]	@ 8808 <bits_mask+0x58>
    87ec:	e59f0018 	ldr	r0, [pc, #24]	@ 880c <bits_mask+0x5c>
    87f0:	eb000970 	bl	adb8 <printk>
    87f4:	eb000a8c 	bl	b22c <clean_reboot>
    87f8:	e3e00000 	mvn	r0, #0
    87fc:	e12fff1e 	bx	lr
    8800:	0000bb8c 	.word	0x0000bb8c
    8804:	0000c850 	.word	0x0000c850
    8808:	0000bb10 	.word	0x0000bb10
    880c:	0000bb5c 	.word	0x0000bb5c

00008810 <bits_get>:
    8810:	e92d4010 	push	{r4, lr}
    8814:	e24dd008 	sub	sp, sp, #8
    8818:	e1510002 	cmp	r1, r2
    881c:	8a000008 	bhi	8844 <bits_get+0x34>
    8820:	e352001f 	cmp	r2, #31
    8824:	8a00000e 	bhi	8864 <bits_get+0x54>
    8828:	e1a04130 	lsr	r4, r0, r1
    882c:	e0422001 	sub	r2, r2, r1
    8830:	e2820001 	add	r0, r2, #1
    8834:	ebffffdd 	bl	87b0 <bits_mask>
    8838:	e0000004 	and	r0, r0, r4
    883c:	e28dd008 	add	sp, sp, #8
    8840:	e8bd8010 	pop	{r4, pc}
    8844:	e59f3038 	ldr	r3, [pc, #56]	@ 8884 <bits_get+0x74>
    8848:	e58d3000 	str	r3, [sp]
    884c:	e3a0303a 	mov	r3, #58	@ 0x3a
    8850:	e59f2030 	ldr	r2, [pc, #48]	@ 8888 <bits_get+0x78>
    8854:	e59f1030 	ldr	r1, [pc, #48]	@ 888c <bits_get+0x7c>
    8858:	e59f0030 	ldr	r0, [pc, #48]	@ 8890 <bits_get+0x80>
    885c:	eb000955 	bl	adb8 <printk>
    8860:	eb000a71 	bl	b22c <clean_reboot>
    8864:	e59f3028 	ldr	r3, [pc, #40]	@ 8894 <bits_get+0x84>
    8868:	e58d3000 	str	r3, [sp]
    886c:	e3a0303b 	mov	r3, #59	@ 0x3b
    8870:	e59f2010 	ldr	r2, [pc, #16]	@ 8888 <bits_get+0x78>
    8874:	e59f1010 	ldr	r1, [pc, #16]	@ 888c <bits_get+0x7c>
    8878:	e59f0010 	ldr	r0, [pc, #16]	@ 8890 <bits_get+0x80>
    887c:	eb00094d 	bl	adb8 <printk>
    8880:	eb000a69 	bl	b22c <clean_reboot>
    8884:	0000bba4 	.word	0x0000bba4
    8888:	0000c85c 	.word	0x0000c85c
    888c:	0000bb10 	.word	0x0000bb10
    8890:	0000bb5c 	.word	0x0000bb5c
    8894:	0000bbb0 	.word	0x0000bbb0

00008898 <was_brkpt_fault>:
    8898:	e92d4010 	push	{r4, lr}
    889c:	ee150f30 	mrc	15, 0, r0, cr5, cr0, {1}
    88a0:	e3a02003 	mov	r2, #3
    88a4:	e3a01000 	mov	r1, #0
    88a8:	ebffffd8 	bl	8810 <bits_get>
    88ac:	e3500002 	cmp	r0, #2
    88b0:	0a000001 	beq	88bc <was_brkpt_fault+0x24>
    88b4:	e3a00000 	mov	r0, #0
    88b8:	e8bd8010 	pop	{r4, pc}
    88bc:	ee100e11 	mrc	14, 0, r0, cr0, cr1, {0}
    88c0:	e3a02005 	mov	r2, #5
    88c4:	e3a01002 	mov	r1, #2
    88c8:	ebffffd0 	bl	8810 <bits_get>
    88cc:	e3500001 	cmp	r0, #1
    88d0:	13a00000 	movne	r0, #0
    88d4:	03a00001 	moveq	r0, #1
    88d8:	e8bd8010 	pop	{r4, pc}

000088dc <was_watchpt_fault>:
    88dc:	e92d4010 	push	{r4, lr}
    88e0:	ee150f10 	mrc	15, 0, r0, cr5, cr0, {0}
    88e4:	e3a02003 	mov	r2, #3
    88e8:	e3a01000 	mov	r1, #0
    88ec:	ebffffc7 	bl	8810 <bits_get>
    88f0:	e3500002 	cmp	r0, #2
    88f4:	0a000001 	beq	8900 <was_watchpt_fault+0x24>
    88f8:	e3a00000 	mov	r0, #0
    88fc:	e8bd8010 	pop	{r4, pc}
    8900:	ee100e11 	mrc	14, 0, r0, cr0, cr1, {0}
    8904:	e3a02005 	mov	r2, #5
    8908:	e3a01002 	mov	r1, #2
    890c:	ebffffbf 	bl	8810 <bits_get>
    8910:	e3500002 	cmp	r0, #2
    8914:	13a00000 	movne	r0, #0
    8918:	03a00001 	moveq	r0, #1
    891c:	e8bd8010 	pop	{r4, pc}

00008920 <mode_legal>:
    8920:	e350001f 	cmp	r0, #31
    8924:	8a000005 	bhi	8940 <mode_legal+0x20>
    8928:	e59f3038 	ldr	r3, [pc, #56]	@ 8968 <mode_legal+0x48>
    892c:	e1a03033 	lsr	r3, r3, r0
    8930:	e3130001 	tst	r3, #1
    8934:	0a000001 	beq	8940 <mode_legal+0x20>
    8938:	e3a00001 	mov	r0, #1
    893c:	e12fff1e 	bx	lr
    8940:	e52de004 	push	{lr}		@ (str lr, [sp, #-4]!)
    8944:	e24dd00c 	sub	sp, sp, #12
    8948:	e58d0004 	str	r0, [sp, #4]
    894c:	e58d0000 	str	r0, [sp]
    8950:	e3a03013 	mov	r3, #19
    8954:	e59f2010 	ldr	r2, [pc, #16]	@ 896c <mode_legal+0x4c>
    8958:	e59f1010 	ldr	r1, [pc, #16]	@ 8970 <mode_legal+0x50>
    895c:	e59f0010 	ldr	r0, [pc, #16]	@ 8974 <mode_legal+0x54>
    8960:	eb000914 	bl	adb8 <printk>
    8964:	eb000a30 	bl	b22c <clean_reboot>
    8968:	888d0000 	.word	0x888d0000
    896c:	0000c868 	.word	0x0000c868
    8970:	0000bbb8 	.word	0x0000bbb8
    8974:	0000bbc4 	.word	0x0000bbc4

00008978 <mode_get>:
    8978:	e92d4010 	push	{r4, lr}
    897c:	e24dd008 	sub	sp, sp, #8
    8980:	e3a02004 	mov	r2, #4
    8984:	e3a01000 	mov	r1, #0
    8988:	ebffffa0 	bl	8810 <bits_get>
    898c:	e1a04000 	mov	r4, r0
    8990:	ebffffe2 	bl	8920 <mode_legal>
    8994:	e3500000 	cmp	r0, #0
    8998:	0a000002 	beq	89a8 <mode_get+0x30>
    899c:	e1a00004 	mov	r0, r4
    89a0:	e28dd008 	add	sp, sp, #8
    89a4:	e8bd8010 	pop	{r4, pc}
    89a8:	e59f3018 	ldr	r3, [pc, #24]	@ 89c8 <mode_get+0x50>
    89ac:	e58d3000 	str	r3, [sp]
    89b0:	e3a03019 	mov	r3, #25
    89b4:	e59f2010 	ldr	r2, [pc, #16]	@ 89cc <mode_get+0x54>
    89b8:	e59f1010 	ldr	r1, [pc, #16]	@ 89d0 <mode_get+0x58>
    89bc:	e59f0010 	ldr	r0, [pc, #16]	@ 89d4 <mode_get+0x5c>
    89c0:	eb0008fc 	bl	adb8 <printk>
    89c4:	eb000a18 	bl	b22c <clean_reboot>
    89c8:	0000bbf0 	.word	0x0000bbf0
    89cc:	0000c874 	.word	0x0000c874
    89d0:	0000bbb8 	.word	0x0000bbb8
    89d4:	0000bb5c 	.word	0x0000bb5c

000089d8 <cp14_enable>:
    89d8:	e3a03000 	mov	r3, #0
    89dc:	ee073f95 	mcr	15, 0, r3, cr7, cr5, {4}
    89e0:	ee103e11 	mrc	14, 0, r3, cr0, cr1, {0}
    89e4:	e3130902 	tst	r3, #32768	@ 0x8000
    89e8:	0a000001 	beq	89f4 <cp14_enable+0x1c>
    89ec:	e3130901 	tst	r3, #16384	@ 0x4000
    89f0:	012fff1e 	bxeq	lr
    89f4:	ee103e11 	mrc	14, 0, r3, cr0, cr1, {0}
    89f8:	ee103e11 	mrc	14, 0, r3, cr0, cr1, {0}
    89fc:	e3c33901 	bic	r3, r3, #16384	@ 0x4000
    8a00:	e3833902 	orr	r3, r3, #32768	@ 0x8000
    8a04:	ee003e11 	mcr	14, 0, r3, cr0, cr1, {0}
    8a08:	e3a03000 	mov	r3, #0
    8a0c:	ee073f95 	mcr	15, 0, r3, cr7, cr5, {4}
    8a10:	ee073f95 	mcr	15, 0, r3, cr7, cr5, {4}
    8a14:	ee103e11 	mrc	14, 0, r3, cr0, cr1, {0}
    8a18:	e3130902 	tst	r3, #32768	@ 0x8000
    8a1c:	0a000004 	beq	8a34 <cp14_enable+0x5c>
    8a20:	e3130901 	tst	r3, #16384	@ 0x4000
    8a24:	1a000002 	bne	8a34 <cp14_enable+0x5c>
    8a28:	e3a03000 	mov	r3, #0
    8a2c:	ee073f95 	mcr	15, 0, r3, cr7, cr5, {4}
    8a30:	e12fff1e 	bx	lr
    8a34:	e52de004 	push	{lr}		@ (str lr, [sp, #-4]!)
    8a38:	e24dd00c 	sub	sp, sp, #12
    8a3c:	e59f3018 	ldr	r3, [pc, #24]	@ 8a5c <cp14_enable+0x84>
    8a40:	e58d3000 	str	r3, [sp]
    8a44:	e3a030a9 	mov	r3, #169	@ 0xa9
    8a48:	e59f2010 	ldr	r2, [pc, #16]	@ 8a60 <cp14_enable+0x88>
    8a4c:	e59f1010 	ldr	r1, [pc, #16]	@ 8a64 <cp14_enable+0x8c>
    8a50:	e59f0010 	ldr	r0, [pc, #16]	@ 8a68 <cp14_enable+0x90>
    8a54:	eb0008d7 	bl	adb8 <printk>
    8a58:	eb0009f3 	bl	b22c <clean_reboot>
    8a5c:	0000bc18 	.word	0x0000bc18
    8a60:	0000c880 	.word	0x0000c880
    8a64:	0000bc04 	.word	0x0000bc04
    8a68:	0000bb5c 	.word	0x0000bb5c

00008a6c <bits_clr>:
    8a6c:	e92d4030 	push	{r4, r5, lr}
    8a70:	e24dd00c 	sub	sp, sp, #12
    8a74:	e1510002 	cmp	r1, r2
    8a78:	8a000009 	bhi	8aa4 <bits_clr+0x38>
    8a7c:	e1a05000 	mov	r5, r0
    8a80:	e1a04001 	mov	r4, r1
    8a84:	e352001f 	cmp	r2, #31
    8a88:	8a00000d 	bhi	8ac4 <bits_clr+0x58>
    8a8c:	e0422001 	sub	r2, r2, r1
    8a90:	e2820001 	add	r0, r2, #1
    8a94:	ebffff45 	bl	87b0 <bits_mask>
    8a98:	e1c50410 	bic	r0, r5, r0, lsl r4
    8a9c:	e28dd00c 	add	sp, sp, #12
    8aa0:	e8bd8030 	pop	{r4, r5, pc}
    8aa4:	e59f3038 	ldr	r3, [pc, #56]	@ 8ae4 <bits_clr+0x78>
    8aa8:	e58d3000 	str	r3, [sp]
    8aac:	e3a03042 	mov	r3, #66	@ 0x42
    8ab0:	e59f2030 	ldr	r2, [pc, #48]	@ 8ae8 <bits_clr+0x7c>
    8ab4:	e59f1030 	ldr	r1, [pc, #48]	@ 8aec <bits_clr+0x80>
    8ab8:	e59f0030 	ldr	r0, [pc, #48]	@ 8af0 <bits_clr+0x84>
    8abc:	eb0008bd 	bl	adb8 <printk>
    8ac0:	eb0009d9 	bl	b22c <clean_reboot>
    8ac4:	e59f3028 	ldr	r3, [pc, #40]	@ 8af4 <bits_clr+0x88>
    8ac8:	e58d3000 	str	r3, [sp]
    8acc:	e3a03043 	mov	r3, #67	@ 0x43
    8ad0:	e59f2010 	ldr	r2, [pc, #16]	@ 8ae8 <bits_clr+0x7c>
    8ad4:	e59f1010 	ldr	r1, [pc, #16]	@ 8aec <bits_clr+0x80>
    8ad8:	e59f0010 	ldr	r0, [pc, #16]	@ 8af0 <bits_clr+0x84>
    8adc:	eb0008b5 	bl	adb8 <printk>
    8ae0:	eb0009d1 	bl	b22c <clean_reboot>
    8ae4:	0000bba4 	.word	0x0000bba4
    8ae8:	0000c88c 	.word	0x0000c88c
    8aec:	0000bb10 	.word	0x0000bb10
    8af0:	0000bb5c 	.word	0x0000bb5c
    8af4:	0000bbb0 	.word	0x0000bbb0

00008af8 <bits_set>:
    8af8:	e92d40f0 	push	{r4, r5, r6, r7, lr}
    8afc:	e24dd00c 	sub	sp, sp, #12
    8b00:	e1510002 	cmp	r1, r2
    8b04:	8a000013 	bhi	8b58 <bits_set+0x60>
    8b08:	e1a07000 	mov	r7, r0
    8b0c:	e1a05001 	mov	r5, r1
    8b10:	e1a04002 	mov	r4, r2
    8b14:	e1a06003 	mov	r6, r3
    8b18:	e352001f 	cmp	r2, #31
    8b1c:	8a000015 	bhi	8b78 <bits_set+0x80>
    8b20:	e0423001 	sub	r3, r2, r1
    8b24:	e2830001 	add	r0, r3, #1
    8b28:	e3500020 	cmp	r0, #32
    8b2c:	8a000019 	bhi	8b98 <bits_set+0xa0>
    8b30:	ebffff1e 	bl	87b0 <bits_mask>
    8b34:	e1d60000 	bics	r0, r6, r0
    8b38:	1a00001e 	bne	8bb8 <bits_set+0xc0>
    8b3c:	e1a02004 	mov	r2, r4
    8b40:	e1a01005 	mov	r1, r5
    8b44:	e1a00007 	mov	r0, r7
    8b48:	ebffffc7 	bl	8a6c <bits_clr>
    8b4c:	e1800516 	orr	r0, r0, r6, lsl r5
    8b50:	e28dd00c 	add	sp, sp, #12
    8b54:	e8bd80f0 	pop	{r4, r5, r6, r7, pc}
    8b58:	e59f3078 	ldr	r3, [pc, #120]	@ 8bd8 <bits_set+0xe0>
    8b5c:	e58d3000 	str	r3, [sp]
    8b60:	e3a0304e 	mov	r3, #78	@ 0x4e
    8b64:	e59f2070 	ldr	r2, [pc, #112]	@ 8bdc <bits_set+0xe4>
    8b68:	e59f1070 	ldr	r1, [pc, #112]	@ 8be0 <bits_set+0xe8>
    8b6c:	e59f0070 	ldr	r0, [pc, #112]	@ 8be4 <bits_set+0xec>
    8b70:	eb000890 	bl	adb8 <printk>
    8b74:	eb0009ac 	bl	b22c <clean_reboot>
    8b78:	e59f3068 	ldr	r3, [pc, #104]	@ 8be8 <bits_set+0xf0>
    8b7c:	e58d3000 	str	r3, [sp]
    8b80:	e3a0304f 	mov	r3, #79	@ 0x4f
    8b84:	e59f2050 	ldr	r2, [pc, #80]	@ 8bdc <bits_set+0xe4>
    8b88:	e59f1050 	ldr	r1, [pc, #80]	@ 8be0 <bits_set+0xe8>
    8b8c:	e59f0050 	ldr	r0, [pc, #80]	@ 8be4 <bits_set+0xec>
    8b90:	eb000888 	bl	adb8 <printk>
    8b94:	eb0009a4 	bl	b22c <clean_reboot>
    8b98:	e59f304c 	ldr	r3, [pc, #76]	@ 8bec <bits_set+0xf4>
    8b9c:	e58d3000 	str	r3, [sp]
    8ba0:	e3a03057 	mov	r3, #87	@ 0x57
    8ba4:	e59f2030 	ldr	r2, [pc, #48]	@ 8bdc <bits_set+0xe4>
    8ba8:	e59f1030 	ldr	r1, [pc, #48]	@ 8be0 <bits_set+0xe8>
    8bac:	e59f0030 	ldr	r0, [pc, #48]	@ 8be4 <bits_set+0xec>
    8bb0:	eb000880 	bl	adb8 <printk>
    8bb4:	eb00099c 	bl	b22c <clean_reboot>
    8bb8:	e59f3030 	ldr	r3, [pc, #48]	@ 8bf0 <bits_set+0xf8>
    8bbc:	e58d3000 	str	r3, [sp]
    8bc0:	e3a03058 	mov	r3, #88	@ 0x58
    8bc4:	e59f2010 	ldr	r2, [pc, #16]	@ 8bdc <bits_set+0xe4>
    8bc8:	e59f1010 	ldr	r1, [pc, #16]	@ 8be0 <bits_set+0xe8>
    8bcc:	e59f0010 	ldr	r0, [pc, #16]	@ 8be4 <bits_set+0xec>
    8bd0:	eb000878 	bl	adb8 <printk>
    8bd4:	eb000994 	bl	b22c <clean_reboot>
    8bd8:	0000bba4 	.word	0x0000bba4
    8bdc:	0000c898 	.word	0x0000c898
    8be0:	0000bb10 	.word	0x0000bb10
    8be4:	0000bb5c 	.word	0x0000bb5c
    8be8:	0000bbb0 	.word	0x0000bbb0
    8bec:	0000bc2c 	.word	0x0000bc2c
    8bf0:	0000bc34 	.word	0x0000bc34

00008bf4 <wp_val_set>:
    8bf4:	e3500001 	cmp	r0, #1
    8bf8:	8a00000a 	bhi	8c28 <wp_val_set+0x34>
    8bfc:	e3500000 	cmp	r0, #0
    8c00:	1a000002 	bne	8c10 <wp_val_set+0x1c>
    8c04:	ee001ed0 	mcr	14, 0, r1, cr0, cr0, {6}
    8c08:	e3a03000 	mov	r3, #0
    8c0c:	ee073f95 	mcr	15, 0, r3, cr7, cr5, {4}
    8c10:	e3500001 	cmp	r0, #1
    8c14:	112fff1e 	bxne	lr
    8c18:	ee001ed1 	mcr	14, 0, r1, cr0, cr1, {6}
    8c1c:	e3a03000 	mov	r3, #0
    8c20:	ee073f95 	mcr	15, 0, r3, cr7, cr5, {4}
    8c24:	e12fff1e 	bx	lr
    8c28:	e52de004 	push	{lr}		@ (str lr, [sp, #-4]!)
    8c2c:	e24dd00c 	sub	sp, sp, #12
    8c30:	e59f3018 	ldr	r3, [pc, #24]	@ 8c50 <wp_val_set+0x5c>
    8c34:	e58d3000 	str	r3, [sp]
    8c38:	e3a0304d 	mov	r3, #77	@ 0x4d
    8c3c:	e59f2010 	ldr	r2, [pc, #16]	@ 8c54 <wp_val_set+0x60>
    8c40:	e59f1010 	ldr	r1, [pc, #16]	@ 8c58 <wp_val_set+0x64>
    8c44:	e59f0010 	ldr	r0, [pc, #16]	@ 8c5c <wp_val_set+0x68>
    8c48:	eb00085a 	bl	adb8 <printk>
    8c4c:	eb000976 	bl	b22c <clean_reboot>
    8c50:	0000bc5c 	.word	0x0000bc5c
    8c54:	0000c8a4 	.word	0x0000c8a4
    8c58:	0000bc4c 	.word	0x0000bc4c
    8c5c:	0000bb5c 	.word	0x0000bb5c

00008c60 <switchto>:
    8c60:	e92d4010 	push	{r4, lr}
    8c64:	e1a04000 	mov	r4, r0
    8c68:	e5900040 	ldr	r0, [r0, #64]	@ 0x40
    8c6c:	ebffff41 	bl	8978 <mode_get>
    8c70:	e3500010 	cmp	r0, #16
    8c74:	0a000001 	beq	8c80 <switchto+0x20>
    8c78:	e1a00004 	mov	r0, r4
    8c7c:	eb00106c 	bl	ce34 <switchto_priv_asm>
    8c80:	e1a00004 	mov	r0, r4
    8c84:	eb001058 	bl	cdec <switchto_user_asm>

00008c88 <watchpt_fault>:
    8c88:	e92d41f0 	push	{r4, r5, r6, r7, r8, lr}
    8c8c:	e24dd018 	sub	sp, sp, #24
    8c90:	e1a06000 	mov	r6, r0
    8c94:	ee165f10 	mrc	15, 0, r5, cr6, cr0, {0}
    8c98:	e1a01005 	mov	r1, r5
    8c9c:	e59f011c 	ldr	r0, [pc, #284]	@ 8dc0 <watchpt_fault+0x138>
    8ca0:	eb000844 	bl	adb8 <printk>
    8ca4:	e1a00005 	mov	r0, r5
    8ca8:	ebfffe70 	bl	8670 <which_wp>
    8cac:	e1a04000 	mov	r4, r0
    8cb0:	ebfffef8 	bl	8898 <was_brkpt_fault>
    8cb4:	e3500000 	cmp	r0, #0
    8cb8:	0a000005 	beq	8cd4 <watchpt_fault+0x4c>
    8cbc:	e3a03060 	mov	r3, #96	@ 0x60
    8cc0:	e59f20fc 	ldr	r2, [pc, #252]	@ 8dc4 <watchpt_fault+0x13c>
    8cc4:	e59f10fc 	ldr	r1, [pc, #252]	@ 8dc8 <watchpt_fault+0x140>
    8cc8:	e59f00fc 	ldr	r0, [pc, #252]	@ 8dcc <watchpt_fault+0x144>
    8ccc:	eb000839 	bl	adb8 <printk>
    8cd0:	eb000955 	bl	b22c <clean_reboot>
    8cd4:	ebffff00 	bl	88dc <was_watchpt_fault>
    8cd8:	e3500000 	cmp	r0, #0
    8cdc:	0a000029 	beq	8d88 <watchpt_fault+0x100>
    8ce0:	e59f30e8 	ldr	r3, [pc, #232]	@ 8dd0 <watchpt_fault+0x148>
    8ce4:	e0833104 	add	r3, r3, r4, lsl #2
    8ce8:	e5933010 	ldr	r3, [r3, #16]
    8cec:	e3530000 	cmp	r3, #0
    8cf0:	0a00002a 	beq	8da0 <watchpt_fault+0x118>
    8cf4:	e28d8008 	add	r8, sp, #8
    8cf8:	e3a07000 	mov	r7, #0
    8cfc:	e58d7008 	str	r7, [sp, #8]
    8d00:	e5887004 	str	r7, [r8, #4]
    8d04:	e5887008 	str	r7, [r8, #8]
    8d08:	e588700c 	str	r7, [r8, #12]
    8d0c:	ee103e16 	mrc	14, 0, r3, cr0, cr6, {0}
    8d10:	e2433008 	sub	r3, r3, #8
    8d14:	e58d3008 	str	r3, [sp, #8]
    8d18:	ebfffe9f 	bl	879c <mini_watch_load_fault>
    8d1c:	e58d0010 	str	r0, [sp, #16]
    8d20:	e58d6014 	str	r6, [sp, #20]
    8d24:	e58d500c 	str	r5, [sp, #12]
    8d28:	e59f50a0 	ldr	r5, [pc, #160]	@ 8dd0 <watchpt_fault+0x148>
    8d2c:	e0853104 	add	r3, r5, r4, lsl #2
    8d30:	e5932010 	ldr	r2, [r3, #16]
    8d34:	e1a01008 	mov	r1, r8
    8d38:	e5930018 	ldr	r0, [r3, #24]
    8d3c:	e12fff32 	blx	r2
    8d40:	e1a00004 	mov	r0, r4
    8d44:	ebfffe7a 	bl	8734 <wp_ctrl_disable>
    8d48:	e7857104 	str	r7, [r5, r4, lsl #2]
    8d4c:	e5953020 	ldr	r3, [r5, #32]
    8d50:	e2433001 	sub	r3, r3, #1
    8d54:	e5853020 	str	r3, [r5, #32]
    8d58:	e1a00004 	mov	r0, r4
    8d5c:	ebfffe62 	bl	86ec <wp_ctrl_is_enabled>
    8d60:	e1500007 	cmp	r0, r7
    8d64:	0a000013 	beq	8db8 <watchpt_fault+0x130>
    8d68:	e59f3064 	ldr	r3, [pc, #100]	@ 8dd4 <watchpt_fault+0x14c>
    8d6c:	e58d3000 	str	r3, [sp]
    8d70:	e3a03075 	mov	r3, #117	@ 0x75
    8d74:	e59f2048 	ldr	r2, [pc, #72]	@ 8dc4 <watchpt_fault+0x13c>
    8d78:	e59f1048 	ldr	r1, [pc, #72]	@ 8dc8 <watchpt_fault+0x140>
    8d7c:	e59f0054 	ldr	r0, [pc, #84]	@ 8dd8 <watchpt_fault+0x150>
    8d80:	eb00080c 	bl	adb8 <printk>
    8d84:	eb000928 	bl	b22c <clean_reboot>
    8d88:	e3a03062 	mov	r3, #98	@ 0x62
    8d8c:	e59f2030 	ldr	r2, [pc, #48]	@ 8dc4 <watchpt_fault+0x13c>
    8d90:	e59f1030 	ldr	r1, [pc, #48]	@ 8dc8 <watchpt_fault+0x140>
    8d94:	e59f0040 	ldr	r0, [pc, #64]	@ 8ddc <watchpt_fault+0x154>
    8d98:	eb000806 	bl	adb8 <printk>
    8d9c:	eb000922 	bl	b22c <clean_reboot>
    8da0:	e3a03064 	mov	r3, #100	@ 0x64
    8da4:	e59f2018 	ldr	r2, [pc, #24]	@ 8dc4 <watchpt_fault+0x13c>
    8da8:	e59f1018 	ldr	r1, [pc, #24]	@ 8dc8 <watchpt_fault+0x140>
    8dac:	e59f002c 	ldr	r0, [pc, #44]	@ 8de0 <watchpt_fault+0x158>
    8db0:	eb000800 	bl	adb8 <printk>
    8db4:	eb00091c 	bl	b22c <clean_reboot>
    8db8:	e59d0014 	ldr	r0, [sp, #20]
    8dbc:	ebffffa7 	bl	8c60 <switchto>
    8dc0:	0000bc68 	.word	0x0000bc68
    8dc4:	0000c8b0 	.word	0x0000c8b0
    8dc8:	0000bc4c 	.word	0x0000bc4c
    8dcc:	0000bc9c 	.word	0x0000bc9c
    8dd0:	0000cf54 	.word	0x0000cf54
    8dd4:	0000bd3c 	.word	0x0000bd3c
    8dd8:	0000bb5c 	.word	0x0000bb5c
    8ddc:	0000bccc 	.word	0x0000bccc
    8de0:	0000bd00 	.word	0x0000bd00

00008de4 <mini_watch_init>:
    8de4:	e92d4010 	push	{r4, lr}
    8de8:	e3a00000 	mov	r0, #0
    8dec:	eb000650 	bl	a734 <full_except_install>
    8df0:	e59f0008 	ldr	r0, [pc, #8]	@ 8e00 <mini_watch_init+0x1c>
    8df4:	eb000642 	bl	a704 <full_except_set_data_abort>
    8df8:	ebfffef6 	bl	89d8 <cp14_enable>
    8dfc:	e8bd8010 	pop	{r4, pc}
    8e00:	00008c88 	.word	0x00008c88

00008e04 <mini_watch_addr>:
    8e04:	e92d43f0 	push	{r4, r5, r6, r7, r8, r9, lr}
    8e08:	e24dd00c 	sub	sp, sp, #12
    8e0c:	e59f3114 	ldr	r3, [pc, #276]	@ 8f28 <mini_watch_addr+0x124>
    8e10:	e5933020 	ldr	r3, [r3, #32]
    8e14:	e3530001 	cmp	r3, #1
    8e18:	ca000032 	bgt	8ee8 <mini_watch_addr+0xe4>
    8e1c:	e1a08001 	mov	r8, r1
    8e20:	e1a07002 	mov	r7, r2
    8e24:	e3c05003 	bic	r5, r0, #3
    8e28:	ebfffe23 	bl	86bc <get_next_available_wp>
    8e2c:	e1a06000 	mov	r6, r0
    8e30:	e59f40f0 	ldr	r4, [pc, #240]	@ 8f28 <mini_watch_addr+0x124>
    8e34:	e3a09001 	mov	r9, #1
    8e38:	e7849100 	str	r9, [r4, r0, lsl #2]
    8e3c:	e3a0200f 	mov	r2, #15
    8e40:	e3a0100e 	mov	r1, #14
    8e44:	e3a00000 	mov	r0, #0
    8e48:	ebffff07 	bl	8a6c <bits_clr>
    8e4c:	e3a03000 	mov	r3, #0
    8e50:	e3a02008 	mov	r2, #8
    8e54:	e3a01005 	mov	r1, #5
    8e58:	ebffff26 	bl	8af8 <bits_set>
    8e5c:	e3a03003 	mov	r3, #3
    8e60:	e3a02004 	mov	r2, #4
    8e64:	e1a01003 	mov	r1, r3
    8e68:	ebffff22 	bl	8af8 <bits_set>
    8e6c:	e3a03003 	mov	r3, #3
    8e70:	e3a02002 	mov	r2, #2
    8e74:	e1a01009 	mov	r1, r9
    8e78:	ebffff1e 	bl	8af8 <bits_set>
    8e7c:	e3a0300f 	mov	r3, #15
    8e80:	e3a02008 	mov	r2, #8
    8e84:	e3a01005 	mov	r1, #5
    8e88:	ebffff1a 	bl	8af8 <bits_set>
    8e8c:	e1809009 	orr	r9, r0, r9
    8e90:	e1a01005 	mov	r1, r5
    8e94:	e5940020 	ldr	r0, [r4, #32]
    8e98:	ebffff55 	bl	8bf4 <wp_val_set>
    8e9c:	e1a01009 	mov	r1, r9
    8ea0:	e5940020 	ldr	r0, [r4, #32]
    8ea4:	ebfffe31 	bl	8770 <wp_ctrl_set>
    8ea8:	e0844106 	add	r4, r4, r6, lsl #2
    8eac:	e5848010 	str	r8, [r4, #16]
    8eb0:	e5847018 	str	r7, [r4, #24]
    8eb4:	e5845008 	str	r5, [r4, #8]
    8eb8:	e1a00006 	mov	r0, r6
    8ebc:	ebfffe0a 	bl	86ec <wp_ctrl_is_enabled>
    8ec0:	e3500000 	cmp	r0, #0
    8ec4:	0a00000f 	beq	8f08 <mini_watch_addr+0x104>
    8ec8:	e59f2058 	ldr	r2, [pc, #88]	@ 8f28 <mini_watch_addr+0x124>
    8ecc:	e5923020 	ldr	r3, [r2, #32]
    8ed0:	e2833001 	add	r3, r3, #1
    8ed4:	e5823020 	str	r3, [r2, #32]
    8ed8:	e3a03000 	mov	r3, #0
    8edc:	ee073f95 	mcr	15, 0, r3, cr7, cr5, {4}
    8ee0:	e28dd00c 	add	sp, sp, #12
    8ee4:	e8bd83f0 	pop	{r4, r5, r6, r7, r8, r9, pc}
    8ee8:	e59f303c 	ldr	r3, [pc, #60]	@ 8f2c <mini_watch_addr+0x128>
    8eec:	e58d3000 	str	r3, [sp]
    8ef0:	e3a03089 	mov	r3, #137	@ 0x89
    8ef4:	e59f2034 	ldr	r2, [pc, #52]	@ 8f30 <mini_watch_addr+0x12c>
    8ef8:	e59f1034 	ldr	r1, [pc, #52]	@ 8f34 <mini_watch_addr+0x130>
    8efc:	e59f0034 	ldr	r0, [pc, #52]	@ 8f38 <mini_watch_addr+0x134>
    8f00:	eb0007ac 	bl	adb8 <printk>
    8f04:	eb0008c8 	bl	b22c <clean_reboot>
    8f08:	e59f302c 	ldr	r3, [pc, #44]	@ 8f3c <mini_watch_addr+0x138>
    8f0c:	e58d3000 	str	r3, [sp]
    8f10:	e3a0309f 	mov	r3, #159	@ 0x9f
    8f14:	e59f2014 	ldr	r2, [pc, #20]	@ 8f30 <mini_watch_addr+0x12c>
    8f18:	e59f1014 	ldr	r1, [pc, #20]	@ 8f34 <mini_watch_addr+0x130>
    8f1c:	e59f0014 	ldr	r0, [pc, #20]	@ 8f38 <mini_watch_addr+0x134>
    8f20:	eb0007a4 	bl	adb8 <printk>
    8f24:	eb0008c0 	bl	b22c <clean_reboot>
    8f28:	0000cf54 	.word	0x0000cf54
    8f2c:	0000bd68 	.word	0x0000bd68
    8f30:	0000c8c0 	.word	0x0000c8c0
    8f34:	0000bc4c 	.word	0x0000bc4c
    8f38:	0000bb5c 	.word	0x0000bb5c
    8f3c:	0000bd7c 	.word	0x0000bd7c

00008f40 <mini_watch_disable>:
    8f40:	e52de004 	push	{lr}		@ (str lr, [sp, #-4]!)
    8f44:	e24dd00c 	sub	sp, sp, #12
    8f48:	e3c00003 	bic	r0, r0, #3
    8f4c:	ebfffdc7 	bl	8670 <which_wp>
    8f50:	e3700001 	cmn	r0, #1
    8f54:	0a000008 	beq	8f7c <mini_watch_disable+0x3c>
    8f58:	e59f303c 	ldr	r3, [pc, #60]	@ 8f9c <mini_watch_disable+0x5c>
    8f5c:	e3a02000 	mov	r2, #0
    8f60:	e7832100 	str	r2, [r3, r0, lsl #2]
    8f64:	e5932020 	ldr	r2, [r3, #32]
    8f68:	e2422001 	sub	r2, r2, #1
    8f6c:	e5832020 	str	r2, [r3, #32]
    8f70:	ebfffdef 	bl	8734 <wp_ctrl_disable>
    8f74:	e28dd00c 	add	sp, sp, #12
    8f78:	e49df004 	pop	{pc}		@ (ldr pc, [sp], #4)
    8f7c:	e59f301c 	ldr	r3, [pc, #28]	@ 8fa0 <mini_watch_disable+0x60>
    8f80:	e58d3000 	str	r3, [sp]
    8f84:	e3a030a8 	mov	r3, #168	@ 0xa8
    8f88:	e59f2014 	ldr	r2, [pc, #20]	@ 8fa4 <mini_watch_disable+0x64>
    8f8c:	e59f1014 	ldr	r1, [pc, #20]	@ 8fa8 <mini_watch_disable+0x68>
    8f90:	e59f0014 	ldr	r0, [pc, #20]	@ 8fac <mini_watch_disable+0x6c>
    8f94:	eb000787 	bl	adb8 <printk>
    8f98:	eb0008a3 	bl	b22c <clean_reboot>
    8f9c:	0000cf54 	.word	0x0000cf54
    8fa0:	0000bda0 	.word	0x0000bda0
    8fa4:	0000c8d0 	.word	0x0000c8d0
    8fa8:	0000bc4c 	.word	0x0000bc4c
    8fac:	0000bb5c 	.word	0x0000bb5c

00008fb0 <mini_watch_enabled>:
    8fb0:	e59f3004 	ldr	r3, [pc, #4]	@ 8fbc <mini_watch_enabled+0xc>
    8fb4:	e5930020 	ldr	r0, [r3, #32]
    8fb8:	e12fff1e 	bx	lr
    8fbc:	0000cf54 	.word	0x0000cf54

00008fc0 <mini_watch_is_fault>:
    8fc0:	e92d4010 	push	{r4, lr}
    8fc4:	ebfffe44 	bl	88dc <was_watchpt_fault>
    8fc8:	e8bd8010 	pop	{r4, pc}

00008fcc <which_bp>:
    8fcc:	e1a02000 	mov	r2, r0
    8fd0:	e3a00001 	mov	r0, #1
    8fd4:	ea000000 	b	8fdc <which_bp+0x10>
    8fd8:	e2800001 	add	r0, r0, #1
    8fdc:	e3500005 	cmp	r0, #5
    8fe0:	ca000009 	bgt	900c <which_bp+0x40>
    8fe4:	e59f3028 	ldr	r3, [pc, #40]	@ 9014 <which_bp+0x48>
    8fe8:	e7933100 	ldr	r3, [r3, r0, lsl #2]
    8fec:	e3530000 	cmp	r3, #0
    8ff0:	0afffff8 	beq	8fd8 <which_bp+0xc>
    8ff4:	e59f3018 	ldr	r3, [pc, #24]	@ 9014 <which_bp+0x48>
    8ff8:	e0833100 	add	r3, r3, r0, lsl #2
    8ffc:	e5933018 	ldr	r3, [r3, #24]
    9000:	e1530002 	cmp	r3, r2
    9004:	1afffff3 	bne	8fd8 <which_bp+0xc>
    9008:	e12fff1e 	bx	lr
    900c:	e3e00000 	mvn	r0, #0
    9010:	e12fff1e 	bx	lr
    9014:	0000cf78 	.word	0x0000cf78

00009018 <get_next_available_bp>:
    9018:	e3a00001 	mov	r0, #1
    901c:	e3500005 	cmp	r0, #5
    9020:	ca000005 	bgt	903c <get_next_available_bp+0x24>
    9024:	e59f3018 	ldr	r3, [pc, #24]	@ 9044 <get_next_available_bp+0x2c>
    9028:	e7933100 	ldr	r3, [r3, r0, lsl #2]
    902c:	e3530000 	cmp	r3, #0
    9030:	012fff1e 	bxeq	lr
    9034:	e2800001 	add	r0, r0, #1
    9038:	eafffff7 	b	901c <get_next_available_bp+0x4>
    903c:	e3e00000 	mvn	r0, #0
    9040:	e12fff1e 	bx	lr
    9044:	0000cf78 	.word	0x0000cf78

00009048 <bits_mask>:
    9048:	e3500020 	cmp	r0, #32
    904c:	0a00000f 	beq	9090 <bits_mask+0x48>
    9050:	e350001f 	cmp	r0, #31
    9054:	8a000003 	bhi	9068 <bits_mask+0x20>
    9058:	e3a03001 	mov	r3, #1
    905c:	e1a00013 	lsl	r0, r3, r0
    9060:	e2400001 	sub	r0, r0, #1
    9064:	e12fff1e 	bx	lr
    9068:	e52de004 	push	{lr}		@ (str lr, [sp, #-4]!)
    906c:	e24dd00c 	sub	sp, sp, #12
    9070:	e59f3020 	ldr	r3, [pc, #32]	@ 9098 <bits_mask+0x50>
    9074:	e58d3000 	str	r3, [sp]
    9078:	e3a03033 	mov	r3, #51	@ 0x33
    907c:	e59f2018 	ldr	r2, [pc, #24]	@ 909c <bits_mask+0x54>
    9080:	e59f1018 	ldr	r1, [pc, #24]	@ 90a0 <bits_mask+0x58>
    9084:	e59f0018 	ldr	r0, [pc, #24]	@ 90a4 <bits_mask+0x5c>
    9088:	eb00074a 	bl	adb8 <printk>
    908c:	eb000866 	bl	b22c <clean_reboot>
    9090:	e3e00000 	mvn	r0, #0
    9094:	e12fff1e 	bx	lr
    9098:	0000bb8c 	.word	0x0000bb8c
    909c:	0000c8ec 	.word	0x0000c8ec
    90a0:	0000bb10 	.word	0x0000bb10
    90a4:	0000bb5c 	.word	0x0000bb5c

000090a8 <bits_clr>:
    90a8:	e92d4030 	push	{r4, r5, lr}
    90ac:	e24dd00c 	sub	sp, sp, #12
    90b0:	e1510002 	cmp	r1, r2
    90b4:	8a000009 	bhi	90e0 <bits_clr+0x38>
    90b8:	e1a05000 	mov	r5, r0
    90bc:	e1a04001 	mov	r4, r1
    90c0:	e352001f 	cmp	r2, #31
    90c4:	8a00000d 	bhi	9100 <bits_clr+0x58>
    90c8:	e0422001 	sub	r2, r2, r1
    90cc:	e2820001 	add	r0, r2, #1
    90d0:	ebffffdc 	bl	9048 <bits_mask>
    90d4:	e1c50410 	bic	r0, r5, r0, lsl r4
    90d8:	e28dd00c 	add	sp, sp, #12
    90dc:	e8bd8030 	pop	{r4, r5, pc}
    90e0:	e59f3038 	ldr	r3, [pc, #56]	@ 9120 <bits_clr+0x78>
    90e4:	e58d3000 	str	r3, [sp]
    90e8:	e3a03042 	mov	r3, #66	@ 0x42
    90ec:	e59f2030 	ldr	r2, [pc, #48]	@ 9124 <bits_clr+0x7c>
    90f0:	e59f1030 	ldr	r1, [pc, #48]	@ 9128 <bits_clr+0x80>
    90f4:	e59f0030 	ldr	r0, [pc, #48]	@ 912c <bits_clr+0x84>
    90f8:	eb00072e 	bl	adb8 <printk>
    90fc:	eb00084a 	bl	b22c <clean_reboot>
    9100:	e59f3028 	ldr	r3, [pc, #40]	@ 9130 <bits_clr+0x88>
    9104:	e58d3000 	str	r3, [sp]
    9108:	e3a03043 	mov	r3, #67	@ 0x43
    910c:	e59f2010 	ldr	r2, [pc, #16]	@ 9124 <bits_clr+0x7c>
    9110:	e59f1010 	ldr	r1, [pc, #16]	@ 9128 <bits_clr+0x80>
    9114:	e59f0010 	ldr	r0, [pc, #16]	@ 912c <bits_clr+0x84>
    9118:	eb000726 	bl	adb8 <printk>
    911c:	eb000842 	bl	b22c <clean_reboot>
    9120:	0000bba4 	.word	0x0000bba4
    9124:	0000c8f8 	.word	0x0000c8f8
    9128:	0000bb10 	.word	0x0000bb10
    912c:	0000bb5c 	.word	0x0000bb5c
    9130:	0000bbb0 	.word	0x0000bbb0

00009134 <bits_set>:
    9134:	e92d40f0 	push	{r4, r5, r6, r7, lr}
    9138:	e24dd00c 	sub	sp, sp, #12
    913c:	e1510002 	cmp	r1, r2
    9140:	8a000013 	bhi	9194 <bits_set+0x60>
    9144:	e1a07000 	mov	r7, r0
    9148:	e1a05001 	mov	r5, r1
    914c:	e1a04002 	mov	r4, r2
    9150:	e1a06003 	mov	r6, r3
    9154:	e352001f 	cmp	r2, #31
    9158:	8a000015 	bhi	91b4 <bits_set+0x80>
    915c:	e0423001 	sub	r3, r2, r1
    9160:	e2830001 	add	r0, r3, #1
    9164:	e3500020 	cmp	r0, #32
    9168:	8a000019 	bhi	91d4 <bits_set+0xa0>
    916c:	ebffffb5 	bl	9048 <bits_mask>
    9170:	e1d60000 	bics	r0, r6, r0
    9174:	1a00001e 	bne	91f4 <bits_set+0xc0>
    9178:	e1a02004 	mov	r2, r4
    917c:	e1a01005 	mov	r1, r5
    9180:	e1a00007 	mov	r0, r7
    9184:	ebffffc7 	bl	90a8 <bits_clr>
    9188:	e1800516 	orr	r0, r0, r6, lsl r5
    918c:	e28dd00c 	add	sp, sp, #12
    9190:	e8bd80f0 	pop	{r4, r5, r6, r7, pc}
    9194:	e59f3078 	ldr	r3, [pc, #120]	@ 9214 <bits_set+0xe0>
    9198:	e58d3000 	str	r3, [sp]
    919c:	e3a0304e 	mov	r3, #78	@ 0x4e
    91a0:	e59f2070 	ldr	r2, [pc, #112]	@ 9218 <bits_set+0xe4>
    91a4:	e59f1070 	ldr	r1, [pc, #112]	@ 921c <bits_set+0xe8>
    91a8:	e59f0070 	ldr	r0, [pc, #112]	@ 9220 <bits_set+0xec>
    91ac:	eb000701 	bl	adb8 <printk>
    91b0:	eb00081d 	bl	b22c <clean_reboot>
    91b4:	e59f3068 	ldr	r3, [pc, #104]	@ 9224 <bits_set+0xf0>
    91b8:	e58d3000 	str	r3, [sp]
    91bc:	e3a0304f 	mov	r3, #79	@ 0x4f
    91c0:	e59f2050 	ldr	r2, [pc, #80]	@ 9218 <bits_set+0xe4>
    91c4:	e59f1050 	ldr	r1, [pc, #80]	@ 921c <bits_set+0xe8>
    91c8:	e59f0050 	ldr	r0, [pc, #80]	@ 9220 <bits_set+0xec>
    91cc:	eb0006f9 	bl	adb8 <printk>
    91d0:	eb000815 	bl	b22c <clean_reboot>
    91d4:	e59f304c 	ldr	r3, [pc, #76]	@ 9228 <bits_set+0xf4>
    91d8:	e58d3000 	str	r3, [sp]
    91dc:	e3a03057 	mov	r3, #87	@ 0x57
    91e0:	e59f2030 	ldr	r2, [pc, #48]	@ 9218 <bits_set+0xe4>
    91e4:	e59f1030 	ldr	r1, [pc, #48]	@ 921c <bits_set+0xe8>
    91e8:	e59f0030 	ldr	r0, [pc, #48]	@ 9220 <bits_set+0xec>
    91ec:	eb0006f1 	bl	adb8 <printk>
    91f0:	eb00080d 	bl	b22c <clean_reboot>
    91f4:	e59f3030 	ldr	r3, [pc, #48]	@ 922c <bits_set+0xf8>
    91f8:	e58d3000 	str	r3, [sp]
    91fc:	e3a03058 	mov	r3, #88	@ 0x58
    9200:	e59f2010 	ldr	r2, [pc, #16]	@ 9218 <bits_set+0xe4>
    9204:	e59f1010 	ldr	r1, [pc, #16]	@ 921c <bits_set+0xe8>
    9208:	e59f0010 	ldr	r0, [pc, #16]	@ 9220 <bits_set+0xec>
    920c:	eb0006e9 	bl	adb8 <printk>
    9210:	eb000805 	bl	b22c <clean_reboot>
    9214:	0000bba4 	.word	0x0000bba4
    9218:	0000c904 	.word	0x0000c904
    921c:	0000bb10 	.word	0x0000bb10
    9220:	0000bb5c 	.word	0x0000bb5c
    9224:	0000bbb0 	.word	0x0000bbb0
    9228:	0000bc2c 	.word	0x0000bc2c
    922c:	0000bc34 	.word	0x0000bc34

00009230 <cp14_enable>:
    9230:	e3a03000 	mov	r3, #0
    9234:	ee073f95 	mcr	15, 0, r3, cr7, cr5, {4}
    9238:	ee103e11 	mrc	14, 0, r3, cr0, cr1, {0}
    923c:	e3130902 	tst	r3, #32768	@ 0x8000
    9240:	0a000001 	beq	924c <cp14_enable+0x1c>
    9244:	e3130901 	tst	r3, #16384	@ 0x4000
    9248:	012fff1e 	bxeq	lr
    924c:	ee103e11 	mrc	14, 0, r3, cr0, cr1, {0}
    9250:	ee103e11 	mrc	14, 0, r3, cr0, cr1, {0}
    9254:	e3c33901 	bic	r3, r3, #16384	@ 0x4000
    9258:	e3833902 	orr	r3, r3, #32768	@ 0x8000
    925c:	ee003e11 	mcr	14, 0, r3, cr0, cr1, {0}
    9260:	e3a03000 	mov	r3, #0
    9264:	ee073f95 	mcr	15, 0, r3, cr7, cr5, {4}
    9268:	ee073f95 	mcr	15, 0, r3, cr7, cr5, {4}
    926c:	ee103e11 	mrc	14, 0, r3, cr0, cr1, {0}
    9270:	e3130902 	tst	r3, #32768	@ 0x8000
    9274:	0a000004 	beq	928c <cp14_enable+0x5c>
    9278:	e3130901 	tst	r3, #16384	@ 0x4000
    927c:	1a000002 	bne	928c <cp14_enable+0x5c>
    9280:	e3a03000 	mov	r3, #0
    9284:	ee073f95 	mcr	15, 0, r3, cr7, cr5, {4}
    9288:	e12fff1e 	bx	lr
    928c:	e52de004 	push	{lr}		@ (str lr, [sp, #-4]!)
    9290:	e24dd00c 	sub	sp, sp, #12
    9294:	e59f3018 	ldr	r3, [pc, #24]	@ 92b4 <cp14_enable+0x84>
    9298:	e58d3000 	str	r3, [sp]
    929c:	e3a030a9 	mov	r3, #169	@ 0xa9
    92a0:	e59f2010 	ldr	r2, [pc, #16]	@ 92b8 <cp14_enable+0x88>
    92a4:	e59f1010 	ldr	r1, [pc, #16]	@ 92bc <cp14_enable+0x8c>
    92a8:	e59f0010 	ldr	r0, [pc, #16]	@ 92c0 <cp14_enable+0x90>
    92ac:	eb0006c1 	bl	adb8 <printk>
    92b0:	eb0007dd 	bl	b22c <clean_reboot>
    92b4:	0000bc18 	.word	0x0000bc18
    92b8:	0000c910 	.word	0x0000c910
    92bc:	0000bc04 	.word	0x0000bc04
    92c0:	0000bb5c 	.word	0x0000bb5c

000092c4 <bits_get>:
    92c4:	e92d4010 	push	{r4, lr}
    92c8:	e24dd008 	sub	sp, sp, #8
    92cc:	e1510002 	cmp	r1, r2
    92d0:	8a000008 	bhi	92f8 <bits_get+0x34>
    92d4:	e352001f 	cmp	r2, #31
    92d8:	8a00000e 	bhi	9318 <bits_get+0x54>
    92dc:	e1a04130 	lsr	r4, r0, r1
    92e0:	e0422001 	sub	r2, r2, r1
    92e4:	e2820001 	add	r0, r2, #1
    92e8:	ebffff56 	bl	9048 <bits_mask>
    92ec:	e0000004 	and	r0, r0, r4
    92f0:	e28dd008 	add	sp, sp, #8
    92f4:	e8bd8010 	pop	{r4, pc}
    92f8:	e59f3038 	ldr	r3, [pc, #56]	@ 9338 <bits_get+0x74>
    92fc:	e58d3000 	str	r3, [sp]
    9300:	e3a0303a 	mov	r3, #58	@ 0x3a
    9304:	e59f2030 	ldr	r2, [pc, #48]	@ 933c <bits_get+0x78>
    9308:	e59f1030 	ldr	r1, [pc, #48]	@ 9340 <bits_get+0x7c>
    930c:	e59f0030 	ldr	r0, [pc, #48]	@ 9344 <bits_get+0x80>
    9310:	eb0006a8 	bl	adb8 <printk>
    9314:	eb0007c4 	bl	b22c <clean_reboot>
    9318:	e59f3028 	ldr	r3, [pc, #40]	@ 9348 <bits_get+0x84>
    931c:	e58d3000 	str	r3, [sp]
    9320:	e3a0303b 	mov	r3, #59	@ 0x3b
    9324:	e59f2010 	ldr	r2, [pc, #16]	@ 933c <bits_get+0x78>
    9328:	e59f1010 	ldr	r1, [pc, #16]	@ 9340 <bits_get+0x7c>
    932c:	e59f0010 	ldr	r0, [pc, #16]	@ 9344 <bits_get+0x80>
    9330:	eb0006a0 	bl	adb8 <printk>
    9334:	eb0007bc 	bl	b22c <clean_reboot>
    9338:	0000bba4 	.word	0x0000bba4
    933c:	0000c91c 	.word	0x0000c91c
    9340:	0000bb10 	.word	0x0000bb10
    9344:	0000bb5c 	.word	0x0000bb5c
    9348:	0000bbb0 	.word	0x0000bbb0

0000934c <was_brkpt_fault>:
    934c:	e92d4010 	push	{r4, lr}
    9350:	ee150f30 	mrc	15, 0, r0, cr5, cr0, {1}
    9354:	e3a02003 	mov	r2, #3
    9358:	e3a01000 	mov	r1, #0
    935c:	ebffffd8 	bl	92c4 <bits_get>
    9360:	e3500002 	cmp	r0, #2
    9364:	0a000001 	beq	9370 <was_brkpt_fault+0x24>
    9368:	e3a00000 	mov	r0, #0
    936c:	e8bd8010 	pop	{r4, pc}
    9370:	ee100e11 	mrc	14, 0, r0, cr0, cr1, {0}
    9374:	e3a02005 	mov	r2, #5
    9378:	e3a01002 	mov	r1, #2
    937c:	ebffffd0 	bl	92c4 <bits_get>
    9380:	e3500001 	cmp	r0, #1
    9384:	13a00000 	movne	r0, #0
    9388:	03a00001 	moveq	r0, #1
    938c:	e8bd8010 	pop	{r4, pc}

00009390 <mode_legal>:
    9390:	e350001f 	cmp	r0, #31
    9394:	8a000005 	bhi	93b0 <mode_legal+0x20>
    9398:	e59f3038 	ldr	r3, [pc, #56]	@ 93d8 <mode_legal+0x48>
    939c:	e1a03033 	lsr	r3, r3, r0
    93a0:	e3130001 	tst	r3, #1
    93a4:	0a000001 	beq	93b0 <mode_legal+0x20>
    93a8:	e3a00001 	mov	r0, #1
    93ac:	e12fff1e 	bx	lr
    93b0:	e52de004 	push	{lr}		@ (str lr, [sp, #-4]!)
    93b4:	e24dd00c 	sub	sp, sp, #12
    93b8:	e58d0004 	str	r0, [sp, #4]
    93bc:	e58d0000 	str	r0, [sp]
    93c0:	e3a03013 	mov	r3, #19
    93c4:	e59f2010 	ldr	r2, [pc, #16]	@ 93dc <mode_legal+0x4c>
    93c8:	e59f1010 	ldr	r1, [pc, #16]	@ 93e0 <mode_legal+0x50>
    93cc:	e59f0010 	ldr	r0, [pc, #16]	@ 93e4 <mode_legal+0x54>
    93d0:	eb000678 	bl	adb8 <printk>
    93d4:	eb000794 	bl	b22c <clean_reboot>
    93d8:	888d0000 	.word	0x888d0000
    93dc:	0000c928 	.word	0x0000c928
    93e0:	0000bbb8 	.word	0x0000bbb8
    93e4:	0000bbc4 	.word	0x0000bbc4

000093e8 <mode_get>:
    93e8:	e92d4010 	push	{r4, lr}
    93ec:	e24dd008 	sub	sp, sp, #8
    93f0:	e3a02004 	mov	r2, #4
    93f4:	e3a01000 	mov	r1, #0
    93f8:	ebffffb1 	bl	92c4 <bits_get>
    93fc:	e1a04000 	mov	r4, r0
    9400:	ebffffe2 	bl	9390 <mode_legal>
    9404:	e3500000 	cmp	r0, #0
    9408:	0a000002 	beq	9418 <mode_get+0x30>
    940c:	e1a00004 	mov	r0, r4
    9410:	e28dd008 	add	sp, sp, #8
    9414:	e8bd8010 	pop	{r4, pc}
    9418:	e59f3018 	ldr	r3, [pc, #24]	@ 9438 <mode_get+0x50>
    941c:	e58d3000 	str	r3, [sp]
    9420:	e3a03019 	mov	r3, #25
    9424:	e59f2010 	ldr	r2, [pc, #16]	@ 943c <mode_get+0x54>
    9428:	e59f1010 	ldr	r1, [pc, #16]	@ 9440 <mode_get+0x58>
    942c:	e59f0010 	ldr	r0, [pc, #16]	@ 9444 <mode_get+0x5c>
    9430:	eb000660 	bl	adb8 <printk>
    9434:	eb00077c 	bl	b22c <clean_reboot>
    9438:	0000bbf0 	.word	0x0000bbf0
    943c:	0000c934 	.word	0x0000c934
    9440:	0000bbb8 	.word	0x0000bbb8
    9444:	0000bb5c 	.word	0x0000bb5c

00009448 <ss_on_exit>:
    9448:	e92d4010 	push	{r4, lr}
    944c:	e3a030ab 	mov	r3, #171	@ 0xab
    9450:	e59f200c 	ldr	r2, [pc, #12]	@ 9464 <ss_on_exit+0x1c>
    9454:	e59f100c 	ldr	r1, [pc, #12]	@ 9468 <ss_on_exit+0x20>
    9458:	e59f000c 	ldr	r0, [pc, #12]	@ 946c <ss_on_exit+0x24>
    945c:	eb000655 	bl	adb8 <printk>
    9460:	eb000771 	bl	b22c <clean_reboot>
    9464:	0000c940 	.word	0x0000c940
    9468:	0000bdac 	.word	0x0000bdac
    946c:	0000bdb8 	.word	0x0000bdb8

00009470 <mode_set>:
    9470:	e92d4030 	push	{r4, r5, lr}
    9474:	e24dd00c 	sub	sp, sp, #12
    9478:	e1a05000 	mov	r5, r0
    947c:	e1a04001 	mov	r4, r1
    9480:	e1a00001 	mov	r0, r1
    9484:	ebffffc1 	bl	9390 <mode_legal>
    9488:	e3500000 	cmp	r0, #0
    948c:	0a000006 	beq	94ac <mode_set+0x3c>
    9490:	e3a02004 	mov	r2, #4
    9494:	e3a01000 	mov	r1, #0
    9498:	e1a00005 	mov	r0, r5
    949c:	ebffff01 	bl	90a8 <bits_clr>
    94a0:	e1800004 	orr	r0, r0, r4
    94a4:	e28dd00c 	add	sp, sp, #12
    94a8:	e8bd8030 	pop	{r4, r5, pc}
    94ac:	e59f3018 	ldr	r3, [pc, #24]	@ 94cc <mode_set+0x5c>
    94b0:	e58d3000 	str	r3, [sp]
    94b4:	e3a0301f 	mov	r3, #31
    94b8:	e59f2010 	ldr	r2, [pc, #16]	@ 94d0 <mode_set+0x60>
    94bc:	e59f1010 	ldr	r1, [pc, #16]	@ 94d4 <mode_set+0x64>
    94c0:	e59f0010 	ldr	r0, [pc, #16]	@ 94d8 <mode_set+0x68>
    94c4:	eb00063b 	bl	adb8 <printk>
    94c8:	eb000757 	bl	b22c <clean_reboot>
    94cc:	0000bbf0 	.word	0x0000bbf0
    94d0:	0000c94c 	.word	0x0000c94c
    94d4:	0000bbb8 	.word	0x0000bbb8
    94d8:	0000bb5c 	.word	0x0000bb5c

000094dc <cpsr_inherit>:
    94dc:	e92d4030 	push	{r4, r5, lr}
    94e0:	e24dd00c 	sub	sp, sp, #12
    94e4:	e1a04000 	mov	r4, r0
    94e8:	e1a05001 	mov	r5, r1
    94ec:	ebffffa7 	bl	9390 <mode_legal>
    94f0:	e3500000 	cmp	r0, #0
    94f4:	0a000007 	beq	9518 <cpsr_inherit+0x3c>
    94f8:	e3a0201f 	mov	r2, #31
    94fc:	e3a0101c 	mov	r1, #28
    9500:	e1a00005 	mov	r0, r5
    9504:	ebfffee7 	bl	90a8 <bits_clr>
    9508:	e1a01004 	mov	r1, r4
    950c:	ebffffd7 	bl	9470 <mode_set>
    9510:	e28dd00c 	add	sp, sp, #12
    9514:	e8bd8030 	pop	{r4, r5, pc}
    9518:	e59f3018 	ldr	r3, [pc, #24]	@ 9538 <cpsr_inherit+0x5c>
    951c:	e58d3000 	str	r3, [sp]
    9520:	e3a03041 	mov	r3, #65	@ 0x41
    9524:	e59f2010 	ldr	r2, [pc, #16]	@ 953c <cpsr_inherit+0x60>
    9528:	e59f1010 	ldr	r1, [pc, #16]	@ 9540 <cpsr_inherit+0x64>
    952c:	e59f0010 	ldr	r0, [pc, #16]	@ 9544 <cpsr_inherit+0x68>
    9530:	eb000620 	bl	adb8 <printk>
    9534:	eb00073c 	bl	b22c <clean_reboot>
    9538:	0000bbf0 	.word	0x0000bbf0
    953c:	0000c958 	.word	0x0000c958
    9540:	0000bbb8 	.word	0x0000bbb8
    9544:	0000bb5c 	.word	0x0000bb5c

00009548 <bp_ctrl_is_enabled>:
    9548:	e3500005 	cmp	r0, #5
    954c:	8a000010 	bhi	9594 <bp_ctrl_is_enabled+0x4c>
    9550:	e3500000 	cmp	r0, #0
    9554:	1a000002 	bne	9564 <bp_ctrl_is_enabled+0x1c>
    9558:	ee103eb0 	mrc	14, 0, r3, cr0, cr0, {5}
    955c:	e3130001 	tst	r3, #1
    9560:	1a00002e 	bne	9620 <bp_ctrl_is_enabled+0xd8>
    9564:	e3500001 	cmp	r0, #1
    9568:	0a000013 	beq	95bc <bp_ctrl_is_enabled+0x74>
    956c:	e3500002 	cmp	r0, #2
    9570:	0a000016 	beq	95d0 <bp_ctrl_is_enabled+0x88>
    9574:	e3500003 	cmp	r0, #3
    9578:	0a000019 	beq	95e4 <bp_ctrl_is_enabled+0x9c>
    957c:	e3500004 	cmp	r0, #4
    9580:	0a00001c 	beq	95f8 <bp_ctrl_is_enabled+0xb0>
    9584:	e3500005 	cmp	r0, #5
    9588:	0a00001f 	beq	960c <bp_ctrl_is_enabled+0xc4>
    958c:	e3a00000 	mov	r0, #0
    9590:	e12fff1e 	bx	lr
    9594:	e52de004 	push	{lr}		@ (str lr, [sp, #-4]!)
    9598:	e24dd00c 	sub	sp, sp, #12
    959c:	e59f308c 	ldr	r3, [pc, #140]	@ 9630 <bp_ctrl_is_enabled+0xe8>
    95a0:	e58d3000 	str	r3, [sp]
    95a4:	e3a03032 	mov	r3, #50	@ 0x32
    95a8:	e59f2084 	ldr	r2, [pc, #132]	@ 9634 <bp_ctrl_is_enabled+0xec>
    95ac:	e59f1084 	ldr	r1, [pc, #132]	@ 9638 <bp_ctrl_is_enabled+0xf0>
    95b0:	e59f0084 	ldr	r0, [pc, #132]	@ 963c <bp_ctrl_is_enabled+0xf4>
    95b4:	eb0005ff 	bl	adb8 <printk>
    95b8:	eb00071b 	bl	b22c <clean_reboot>
    95bc:	ee103eb1 	mrc	14, 0, r3, cr0, cr1, {5}
    95c0:	e3130001 	tst	r3, #1
    95c4:	0affffe8 	beq	956c <bp_ctrl_is_enabled+0x24>
    95c8:	e3a00001 	mov	r0, #1
    95cc:	e12fff1e 	bx	lr
    95d0:	ee103eb2 	mrc	14, 0, r3, cr0, cr2, {5}
    95d4:	e3130001 	tst	r3, #1
    95d8:	0affffe5 	beq	9574 <bp_ctrl_is_enabled+0x2c>
    95dc:	e3a00001 	mov	r0, #1
    95e0:	e12fff1e 	bx	lr
    95e4:	ee103eb3 	mrc	14, 0, r3, cr0, cr3, {5}
    95e8:	e3130001 	tst	r3, #1
    95ec:	0affffe2 	beq	957c <bp_ctrl_is_enabled+0x34>
    95f0:	e3a00001 	mov	r0, #1
    95f4:	e12fff1e 	bx	lr
    95f8:	ee103eb4 	mrc	14, 0, r3, cr0, cr4, {5}
    95fc:	e3130001 	tst	r3, #1
    9600:	0affffdf 	beq	9584 <bp_ctrl_is_enabled+0x3c>
    9604:	e3a00001 	mov	r0, #1
    9608:	e12fff1e 	bx	lr
    960c:	ee103eb5 	mrc	14, 0, r3, cr0, cr5, {5}
    9610:	e3130001 	tst	r3, #1
    9614:	1a000003 	bne	9628 <bp_ctrl_is_enabled+0xe0>
    9618:	e3a00000 	mov	r0, #0
    961c:	e12fff1e 	bx	lr
    9620:	e3a00001 	mov	r0, #1
    9624:	e12fff1e 	bx	lr
    9628:	e3a00001 	mov	r0, #1
    962c:	e12fff1e 	bx	lr
    9630:	0000bde4 	.word	0x0000bde4
    9634:	0000c968 	.word	0x0000c968
    9638:	0000bdac 	.word	0x0000bdac
    963c:	0000bb5c 	.word	0x0000bb5c

00009640 <bp_ctrl_get>:
    9640:	e52de004 	push	{lr}		@ (str lr, [sp, #-4]!)
    9644:	e24dd00c 	sub	sp, sp, #12
    9648:	e3500005 	cmp	r0, #5
    964c:	8a000005 	bhi	9668 <bp_ctrl_get+0x28>
    9650:	e59f3084 	ldr	r3, [pc, #132]	@ 96dc <bp_ctrl_get+0x9c>
    9654:	e3500005 	cmp	r0, #5
    9658:	8a000017 	bhi	96bc <bp_ctrl_get+0x7c>
    965c:	e7d30000 	ldrb	r0, [r3, r0]
    9660:	e08ff100 	add	pc, pc, r0, lsl #2
    9664:	e320f000 	nop	{0}
    9668:	e59f3070 	ldr	r3, [pc, #112]	@ 96e0 <bp_ctrl_get+0xa0>
    966c:	e58d3000 	str	r3, [sp]
    9670:	e3a03051 	mov	r3, #81	@ 0x51
    9674:	e59f2068 	ldr	r2, [pc, #104]	@ 96e4 <bp_ctrl_get+0xa4>
    9678:	e59f1068 	ldr	r1, [pc, #104]	@ 96e8 <bp_ctrl_get+0xa8>
    967c:	e59f0068 	ldr	r0, [pc, #104]	@ 96ec <bp_ctrl_get+0xac>
    9680:	eb0005cc 	bl	adb8 <printk>
    9684:	eb0006e8 	bl	b22c <clean_reboot>
    9688:	ee100eb0 	mrc	14, 0, r0, cr0, cr0, {5}
    968c:	e28dd00c 	add	sp, sp, #12
    9690:	e49df004 	pop	{pc}		@ (ldr pc, [sp], #4)
    9694:	ee100eb1 	mrc	14, 0, r0, cr0, cr1, {5}
    9698:	eafffffb 	b	968c <bp_ctrl_get+0x4c>
    969c:	ee100eb2 	mrc	14, 0, r0, cr0, cr2, {5}
    96a0:	eafffff9 	b	968c <bp_ctrl_get+0x4c>
    96a4:	ee100eb3 	mrc	14, 0, r0, cr0, cr3, {5}
    96a8:	eafffff7 	b	968c <bp_ctrl_get+0x4c>
    96ac:	ee100eb4 	mrc	14, 0, r0, cr0, cr4, {5}
    96b0:	eafffff5 	b	968c <bp_ctrl_get+0x4c>
    96b4:	ee100eb5 	mrc	14, 0, r0, cr0, cr5, {5}
    96b8:	eafffff3 	b	968c <bp_ctrl_get+0x4c>
    96bc:	e59f302c 	ldr	r3, [pc, #44]	@ 96f0 <bp_ctrl_get+0xb0>
    96c0:	e58d3000 	str	r3, [sp]
    96c4:	e3a03058 	mov	r3, #88	@ 0x58
    96c8:	e59f2014 	ldr	r2, [pc, #20]	@ 96e4 <bp_ctrl_get+0xa4>
    96cc:	e59f1014 	ldr	r1, [pc, #20]	@ 96e8 <bp_ctrl_get+0xa8>
    96d0:	e59f0014 	ldr	r0, [pc, #20]	@ 96ec <bp_ctrl_get+0xac>
    96d4:	eb0005b7 	bl	adb8 <printk>
    96d8:	eb0006d3 	bl	b22c <clean_reboot>
    96dc:	0000c8e4 	.word	0x0000c8e4
    96e0:	0000bde4 	.word	0x0000bde4
    96e4:	0000c97c 	.word	0x0000c97c
    96e8:	0000bdac 	.word	0x0000bdac
    96ec:	0000bb5c 	.word	0x0000bb5c
    96f0:	0000bdf0 	.word	0x0000bdf0

000096f4 <bp_val_set>:
    96f4:	e3500005 	cmp	r0, #5
    96f8:	8a000012 	bhi	9748 <bp_val_set+0x54>
    96fc:	e3500000 	cmp	r0, #0
    9700:	1a000002 	bne	9710 <bp_val_set+0x1c>
    9704:	ee001e90 	mcr	14, 0, r1, cr0, cr0, {4}
    9708:	e3a03000 	mov	r3, #0
    970c:	ee073f95 	mcr	15, 0, r3, cr7, cr5, {4}
    9710:	e3500001 	cmp	r0, #1
    9714:	0a000015 	beq	9770 <bp_val_set+0x7c>
    9718:	e3500002 	cmp	r0, #2
    971c:	0a000017 	beq	9780 <bp_val_set+0x8c>
    9720:	e3500003 	cmp	r0, #3
    9724:	0a000019 	beq	9790 <bp_val_set+0x9c>
    9728:	e3500004 	cmp	r0, #4
    972c:	0a00001b 	beq	97a0 <bp_val_set+0xac>
    9730:	e3500005 	cmp	r0, #5
    9734:	112fff1e 	bxne	lr
    9738:	ee001e95 	mcr	14, 0, r1, cr0, cr5, {4}
    973c:	e3a03000 	mov	r3, #0
    9740:	ee073f95 	mcr	15, 0, r3, cr7, cr5, {4}
    9744:	e12fff1e 	bx	lr
    9748:	e52de004 	push	{lr}		@ (str lr, [sp, #-4]!)
    974c:	e24dd00c 	sub	sp, sp, #12
    9750:	e59f3058 	ldr	r3, [pc, #88]	@ 97b0 <bp_val_set+0xbc>
    9754:	e58d3000 	str	r3, [sp]
    9758:	e3a03066 	mov	r3, #102	@ 0x66
    975c:	e59f2050 	ldr	r2, [pc, #80]	@ 97b4 <bp_val_set+0xc0>
    9760:	e59f1050 	ldr	r1, [pc, #80]	@ 97b8 <bp_val_set+0xc4>
    9764:	e59f0050 	ldr	r0, [pc, #80]	@ 97bc <bp_val_set+0xc8>
    9768:	eb000592 	bl	adb8 <printk>
    976c:	eb0006ae 	bl	b22c <clean_reboot>
    9770:	ee001e91 	mcr	14, 0, r1, cr0, cr1, {4}
    9774:	e3a03000 	mov	r3, #0
    9778:	ee073f95 	mcr	15, 0, r3, cr7, cr5, {4}
    977c:	eaffffe5 	b	9718 <bp_val_set+0x24>
    9780:	ee001e92 	mcr	14, 0, r1, cr0, cr2, {4}
    9784:	e3a03000 	mov	r3, #0
    9788:	ee073f95 	mcr	15, 0, r3, cr7, cr5, {4}
    978c:	eaffffe3 	b	9720 <bp_val_set+0x2c>
    9790:	ee001e93 	mcr	14, 0, r1, cr0, cr3, {4}
    9794:	e3a03000 	mov	r3, #0
    9798:	ee073f95 	mcr	15, 0, r3, cr7, cr5, {4}
    979c:	eaffffe1 	b	9728 <bp_val_set+0x34>
    97a0:	ee001e94 	mcr	14, 0, r1, cr0, cr4, {4}
    97a4:	e3a03000 	mov	r3, #0
    97a8:	ee073f95 	mcr	15, 0, r3, cr7, cr5, {4}
    97ac:	eaffffdf 	b	9730 <bp_val_set+0x3c>
    97b0:	0000bde4 	.word	0x0000bde4
    97b4:	0000c988 	.word	0x0000c988
    97b8:	0000bdac 	.word	0x0000bdac
    97bc:	0000bb5c 	.word	0x0000bb5c

000097c0 <bp_ctrl_set>:
    97c0:	e3500005 	cmp	r0, #5
    97c4:	8a000012 	bhi	9814 <bp_ctrl_set+0x54>
    97c8:	e3500000 	cmp	r0, #0
    97cc:	1a000002 	bne	97dc <bp_ctrl_set+0x1c>
    97d0:	ee001eb0 	mcr	14, 0, r1, cr0, cr0, {5}
    97d4:	e3a03000 	mov	r3, #0
    97d8:	ee073f95 	mcr	15, 0, r3, cr7, cr5, {4}
    97dc:	e3500001 	cmp	r0, #1
    97e0:	0a000015 	beq	983c <bp_ctrl_set+0x7c>
    97e4:	e3500002 	cmp	r0, #2
    97e8:	0a000017 	beq	984c <bp_ctrl_set+0x8c>
    97ec:	e3500003 	cmp	r0, #3
    97f0:	0a000019 	beq	985c <bp_ctrl_set+0x9c>
    97f4:	e3500004 	cmp	r0, #4
    97f8:	0a00001b 	beq	986c <bp_ctrl_set+0xac>
    97fc:	e3500005 	cmp	r0, #5
    9800:	112fff1e 	bxne	lr
    9804:	ee001eb5 	mcr	14, 0, r1, cr0, cr5, {5}
    9808:	e3a03000 	mov	r3, #0
    980c:	ee073f95 	mcr	15, 0, r3, cr7, cr5, {4}
    9810:	e12fff1e 	bx	lr
    9814:	e52de004 	push	{lr}		@ (str lr, [sp, #-4]!)
    9818:	e24dd00c 	sub	sp, sp, #12
    981c:	e59f3058 	ldr	r3, [pc, #88]	@ 987c <bp_ctrl_set+0xbc>
    9820:	e58d3000 	str	r3, [sp]
    9824:	e3a0305c 	mov	r3, #92	@ 0x5c
    9828:	e59f2050 	ldr	r2, [pc, #80]	@ 9880 <bp_ctrl_set+0xc0>
    982c:	e59f1050 	ldr	r1, [pc, #80]	@ 9884 <bp_ctrl_set+0xc4>
    9830:	e59f0050 	ldr	r0, [pc, #80]	@ 9888 <bp_ctrl_set+0xc8>
    9834:	eb00055f 	bl	adb8 <printk>
    9838:	eb00067b 	bl	b22c <clean_reboot>
    983c:	ee001eb1 	mcr	14, 0, r1, cr0, cr1, {5}
    9840:	e3a03000 	mov	r3, #0
    9844:	ee073f95 	mcr	15, 0, r3, cr7, cr5, {4}
    9848:	eaffffe5 	b	97e4 <bp_ctrl_set+0x24>
    984c:	ee001eb2 	mcr	14, 0, r1, cr0, cr2, {5}
    9850:	e3a03000 	mov	r3, #0
    9854:	ee073f95 	mcr	15, 0, r3, cr7, cr5, {4}
    9858:	eaffffe3 	b	97ec <bp_ctrl_set+0x2c>
    985c:	ee001eb3 	mcr	14, 0, r1, cr0, cr3, {5}
    9860:	e3a03000 	mov	r3, #0
    9864:	ee073f95 	mcr	15, 0, r3, cr7, cr5, {4}
    9868:	eaffffe1 	b	97f4 <bp_ctrl_set+0x34>
    986c:	ee001eb4 	mcr	14, 0, r1, cr0, cr4, {5}
    9870:	e3a03000 	mov	r3, #0
    9874:	ee073f95 	mcr	15, 0, r3, cr7, cr5, {4}
    9878:	eaffffdf 	b	97fc <bp_ctrl_set+0x3c>
    987c:	0000bde4 	.word	0x0000bde4
    9880:	0000c994 	.word	0x0000c994
    9884:	0000bdac 	.word	0x0000bdac
    9888:	0000bb5c 	.word	0x0000bb5c

0000988c <bp_ctrl_enable>:
    988c:	e3500005 	cmp	r0, #5
    9890:	8a000016 	bhi	98f0 <bp_ctrl_enable+0x64>
    9894:	e3500000 	cmp	r0, #0
    9898:	1a000004 	bne	98b0 <bp_ctrl_enable+0x24>
    989c:	ee103eb0 	mrc	14, 0, r3, cr0, cr0, {5}
    98a0:	e3833001 	orr	r3, r3, #1
    98a4:	ee003eb0 	mcr	14, 0, r3, cr0, cr0, {5}
    98a8:	e3a03000 	mov	r3, #0
    98ac:	ee073f95 	mcr	15, 0, r3, cr7, cr5, {4}
    98b0:	e3500001 	cmp	r0, #1
    98b4:	0a000017 	beq	9918 <bp_ctrl_enable+0x8c>
    98b8:	e3500002 	cmp	r0, #2
    98bc:	0a00001b 	beq	9930 <bp_ctrl_enable+0xa4>
    98c0:	e3500003 	cmp	r0, #3
    98c4:	0a00001f 	beq	9948 <bp_ctrl_enable+0xbc>
    98c8:	e3500004 	cmp	r0, #4
    98cc:	0a000023 	beq	9960 <bp_ctrl_enable+0xd4>
    98d0:	e3500005 	cmp	r0, #5
    98d4:	112fff1e 	bxne	lr
    98d8:	ee103eb5 	mrc	14, 0, r3, cr0, cr5, {5}
    98dc:	e3833001 	orr	r3, r3, #1
    98e0:	ee003eb5 	mcr	14, 0, r3, cr0, cr5, {5}
    98e4:	e3a03000 	mov	r3, #0
    98e8:	ee073f95 	mcr	15, 0, r3, cr7, cr5, {4}
    98ec:	e12fff1e 	bx	lr
    98f0:	e52de004 	push	{lr}		@ (str lr, [sp, #-4]!)
    98f4:	e24dd00c 	sub	sp, sp, #12
    98f8:	e59f3078 	ldr	r3, [pc, #120]	@ 9978 <bp_ctrl_enable+0xec>
    98fc:	e58d3000 	str	r3, [sp]
    9900:	e3a0303d 	mov	r3, #61	@ 0x3d
    9904:	e59f2070 	ldr	r2, [pc, #112]	@ 997c <bp_ctrl_enable+0xf0>
    9908:	e59f1070 	ldr	r1, [pc, #112]	@ 9980 <bp_ctrl_enable+0xf4>
    990c:	e59f0070 	ldr	r0, [pc, #112]	@ 9984 <bp_ctrl_enable+0xf8>
    9910:	eb000528 	bl	adb8 <printk>
    9914:	eb000644 	bl	b22c <clean_reboot>
    9918:	ee103eb1 	mrc	14, 0, r3, cr0, cr1, {5}
    991c:	e3833001 	orr	r3, r3, #1
    9920:	ee003eb1 	mcr	14, 0, r3, cr0, cr1, {5}
    9924:	e3a03000 	mov	r3, #0
    9928:	ee073f95 	mcr	15, 0, r3, cr7, cr5, {4}
    992c:	eaffffe1 	b	98b8 <bp_ctrl_enable+0x2c>
    9930:	ee103eb2 	mrc	14, 0, r3, cr0, cr2, {5}
    9934:	e3833001 	orr	r3, r3, #1
    9938:	ee003eb2 	mcr	14, 0, r3, cr0, cr2, {5}
    993c:	e3a03000 	mov	r3, #0
    9940:	ee073f95 	mcr	15, 0, r3, cr7, cr5, {4}
    9944:	eaffffdd 	b	98c0 <bp_ctrl_enable+0x34>
    9948:	ee103eb3 	mrc	14, 0, r3, cr0, cr3, {5}
    994c:	e3833001 	orr	r3, r3, #1
    9950:	ee003eb3 	mcr	14, 0, r3, cr0, cr3, {5}
    9954:	e3a03000 	mov	r3, #0
    9958:	ee073f95 	mcr	15, 0, r3, cr7, cr5, {4}
    995c:	eaffffd9 	b	98c8 <bp_ctrl_enable+0x3c>
    9960:	ee103eb4 	mrc	14, 0, r3, cr0, cr4, {5}
    9964:	e3833001 	orr	r3, r3, #1
    9968:	ee003eb4 	mcr	14, 0, r3, cr0, cr4, {5}
    996c:	e3a03000 	mov	r3, #0
    9970:	ee073f95 	mcr	15, 0, r3, cr7, cr5, {4}
    9974:	eaffffd5 	b	98d0 <bp_ctrl_enable+0x44>
    9978:	0000bde4 	.word	0x0000bde4
    997c:	0000c9a0 	.word	0x0000c9a0
    9980:	0000bdac 	.word	0x0000bdac
    9984:	0000bb5c 	.word	0x0000bb5c

00009988 <bp_ctrl_disable>:
    9988:	e3500005 	cmp	r0, #5
    998c:	8a000016 	bhi	99ec <bp_ctrl_disable+0x64>
    9990:	e3500000 	cmp	r0, #0
    9994:	1a000004 	bne	99ac <bp_ctrl_disable+0x24>
    9998:	ee103eb0 	mrc	14, 0, r3, cr0, cr0, {5}
    999c:	e3c33001 	bic	r3, r3, #1
    99a0:	ee003eb0 	mcr	14, 0, r3, cr0, cr0, {5}
    99a4:	e3a03000 	mov	r3, #0
    99a8:	ee073f95 	mcr	15, 0, r3, cr7, cr5, {4}
    99ac:	e3500001 	cmp	r0, #1
    99b0:	0a000017 	beq	9a14 <bp_ctrl_disable+0x8c>
    99b4:	e3500002 	cmp	r0, #2
    99b8:	0a00001b 	beq	9a2c <bp_ctrl_disable+0xa4>
    99bc:	e3500003 	cmp	r0, #3
    99c0:	0a00001f 	beq	9a44 <bp_ctrl_disable+0xbc>
    99c4:	e3500004 	cmp	r0, #4
    99c8:	0a000023 	beq	9a5c <bp_ctrl_disable+0xd4>
    99cc:	e3500005 	cmp	r0, #5
    99d0:	112fff1e 	bxne	lr
    99d4:	ee103eb5 	mrc	14, 0, r3, cr0, cr5, {5}
    99d8:	e3c33001 	bic	r3, r3, #1
    99dc:	ee003eb5 	mcr	14, 0, r3, cr0, cr5, {5}
    99e0:	e3a03000 	mov	r3, #0
    99e4:	ee073f95 	mcr	15, 0, r3, cr7, cr5, {4}
    99e8:	e12fff1e 	bx	lr
    99ec:	e52de004 	push	{lr}		@ (str lr, [sp, #-4]!)
    99f0:	e24dd00c 	sub	sp, sp, #12
    99f4:	e59f3078 	ldr	r3, [pc, #120]	@ 9a74 <bp_ctrl_disable+0xec>
    99f8:	e58d3000 	str	r3, [sp]
    99fc:	e3a03047 	mov	r3, #71	@ 0x47
    9a00:	e59f2070 	ldr	r2, [pc, #112]	@ 9a78 <bp_ctrl_disable+0xf0>
    9a04:	e59f1070 	ldr	r1, [pc, #112]	@ 9a7c <bp_ctrl_disable+0xf4>
    9a08:	e59f0070 	ldr	r0, [pc, #112]	@ 9a80 <bp_ctrl_disable+0xf8>
    9a0c:	eb0004e9 	bl	adb8 <printk>
    9a10:	eb000605 	bl	b22c <clean_reboot>
    9a14:	ee103eb1 	mrc	14, 0, r3, cr0, cr1, {5}
    9a18:	e3c33001 	bic	r3, r3, #1
    9a1c:	ee003eb1 	mcr	14, 0, r3, cr0, cr1, {5}
    9a20:	e3a03000 	mov	r3, #0
    9a24:	ee073f95 	mcr	15, 0, r3, cr7, cr5, {4}
    9a28:	eaffffe1 	b	99b4 <bp_ctrl_disable+0x2c>
    9a2c:	ee103eb2 	mrc	14, 0, r3, cr0, cr2, {5}
    9a30:	e3c33001 	bic	r3, r3, #1
    9a34:	ee003eb2 	mcr	14, 0, r3, cr0, cr2, {5}
    9a38:	e3a03000 	mov	r3, #0
    9a3c:	ee073f95 	mcr	15, 0, r3, cr7, cr5, {4}
    9a40:	eaffffdd 	b	99bc <bp_ctrl_disable+0x34>
    9a44:	ee103eb3 	mrc	14, 0, r3, cr0, cr3, {5}
    9a48:	e3c33001 	bic	r3, r3, #1
    9a4c:	ee003eb3 	mcr	14, 0, r3, cr0, cr3, {5}
    9a50:	e3a03000 	mov	r3, #0
    9a54:	ee073f95 	mcr	15, 0, r3, cr7, cr5, {4}
    9a58:	eaffffd9 	b	99c4 <bp_ctrl_disable+0x3c>
    9a5c:	ee103eb4 	mrc	14, 0, r3, cr0, cr4, {5}
    9a60:	e3c33001 	bic	r3, r3, #1
    9a64:	ee003eb4 	mcr	14, 0, r3, cr0, cr4, {5}
    9a68:	e3a03000 	mov	r3, #0
    9a6c:	ee073f95 	mcr	15, 0, r3, cr7, cr5, {4}
    9a70:	eaffffd5 	b	99cc <bp_ctrl_disable+0x44>
    9a74:	0000bde4 	.word	0x0000bde4
    9a78:	0000c9b0 	.word	0x0000c9b0
    9a7c:	0000bdac 	.word	0x0000bdac
    9a80:	0000bb5c 	.word	0x0000bb5c

00009a84 <switchto>:
    9a84:	e92d4010 	push	{r4, lr}
    9a88:	e1a04000 	mov	r4, r0
    9a8c:	e5900040 	ldr	r0, [r0, #64]	@ 0x40
    9a90:	ebfffe54 	bl	93e8 <mode_get>
    9a94:	e3500010 	cmp	r0, #16
    9a98:	0a000001 	beq	9aa4 <switchto+0x20>
    9a9c:	e1a00004 	mov	r0, r4
    9aa0:	eb000ce3 	bl	ce34 <switchto_priv_asm>
    9aa4:	e1a00004 	mov	r0, r4
    9aa8:	eb000ccf 	bl	cdec <switchto_user_asm>

00009aac <switchto_cswitch>:
    9aac:	e92d4030 	push	{r4, r5, lr}
    9ab0:	e24dd00c 	sub	sp, sp, #12
    9ab4:	e1a05000 	mov	r5, r0
    9ab8:	e1a04001 	mov	r4, r1
    9abc:	e10f0000 	mrs	r0, CPSR
    9ac0:	ebfffe48 	bl	93e8 <mode_get>
    9ac4:	e3500010 	cmp	r0, #16
    9ac8:	0a000009 	beq	9af4 <switchto_cswitch+0x48>
    9acc:	e5940040 	ldr	r0, [r4, #64]	@ 0x40
    9ad0:	ebfffe44 	bl	93e8 <mode_get>
    9ad4:	e3500010 	cmp	r0, #16
    9ad8:	0a00000d 	beq	9b14 <switchto_cswitch+0x68>
    9adc:	e59f2044 	ldr	r2, [pc, #68]	@ 9b28 <switchto_cswitch+0x7c>
    9ae0:	e1a01004 	mov	r1, r4
    9ae4:	e1a00005 	mov	r0, r5
    9ae8:	eb000cec 	bl	cea0 <cswitch_asm>
    9aec:	e28dd00c 	add	sp, sp, #12
    9af0:	e8bd8030 	pop	{r4, r5, pc}
    9af4:	e59f3030 	ldr	r3, [pc, #48]	@ 9b2c <switchto_cswitch+0x80>
    9af8:	e58d3000 	str	r3, [sp]
    9afc:	e3a0304a 	mov	r3, #74	@ 0x4a
    9b00:	e59f2028 	ldr	r2, [pc, #40]	@ 9b30 <switchto_cswitch+0x84>
    9b04:	e59f1028 	ldr	r1, [pc, #40]	@ 9b34 <switchto_cswitch+0x88>
    9b08:	e59f0028 	ldr	r0, [pc, #40]	@ 9b38 <switchto_cswitch+0x8c>
    9b0c:	eb0004a9 	bl	adb8 <printk>
    9b10:	eb0005c5 	bl	b22c <clean_reboot>
    9b14:	e59f2020 	ldr	r2, [pc, #32]	@ 9b3c <switchto_cswitch+0x90>
    9b18:	e1a01004 	mov	r1, r4
    9b1c:	e1a00005 	mov	r0, r5
    9b20:	eb000cde 	bl	cea0 <cswitch_asm>
    9b24:	eafffff0 	b	9aec <switchto_cswitch+0x40>
    9b28:	0000ce34 	.word	0x0000ce34
    9b2c:	0000be04 	.word	0x0000be04
    9b30:	0000c9c0 	.word	0x0000c9c0
    9b34:	0000bdf8 	.word	0x0000bdf8
    9b38:	0000bb5c 	.word	0x0000bb5c
    9b3c:	0000cdec 	.word	0x0000cdec

00009b40 <mismatch_pc_set>:
    9b40:	e92d4030 	push	{r4, r5, lr}
    9b44:	e24dd00c 	sub	sp, sp, #12
    9b48:	e59f30fc 	ldr	r3, [pc, #252]	@ 9c4c <mismatch_pc_set+0x10c>
    9b4c:	e5933030 	ldr	r3, [r3, #48]	@ 0x30
    9b50:	e3530000 	cmp	r3, #0
    9b54:	0a000024 	beq	9bec <mismatch_pc_set+0xac>
    9b58:	e1a04000 	mov	r4, r0
    9b5c:	ee105e90 	mrc	14, 0, r5, cr0, cr0, {4}
    9b60:	ee100eb0 	mrc	14, 0, r0, cr0, cr0, {5}
    9b64:	e3a03002 	mov	r3, #2
    9b68:	e3a02016 	mov	r2, #22
    9b6c:	e3a01015 	mov	r1, #21
    9b70:	ebfffd6f 	bl	9134 <bits_set>
    9b74:	e3a03000 	mov	r3, #0
    9b78:	e3a0200f 	mov	r2, #15
    9b7c:	e3a0100e 	mov	r1, #14
    9b80:	e3c00601 	bic	r0, r0, #1048576	@ 0x100000
    9b84:	ebfffd6a 	bl	9134 <bits_set>
    9b88:	e3a0300f 	mov	r3, #15
    9b8c:	e3a02008 	mov	r2, #8
    9b90:	e3a01005 	mov	r1, #5
    9b94:	ebfffd66 	bl	9134 <bits_set>
    9b98:	e3a03003 	mov	r3, #3
    9b9c:	e3a02002 	mov	r2, #2
    9ba0:	e3a01001 	mov	r1, #1
    9ba4:	ebfffd62 	bl	9134 <bits_set>
    9ba8:	e3800001 	orr	r0, r0, #1
    9bac:	ee000eb0 	mcr	14, 0, r0, cr0, cr0, {5}
    9bb0:	e3a03000 	mov	r3, #0
    9bb4:	ee073f95 	mcr	15, 0, r3, cr7, cr5, {4}
    9bb8:	ee004e90 	mcr	14, 0, r4, cr0, cr0, {4}
    9bbc:	ee073f95 	mcr	15, 0, r3, cr7, cr5, {4}
    9bc0:	ee103e90 	mrc	14, 0, r3, cr0, cr0, {4}
    9bc4:	e1540003 	cmp	r4, r3
    9bc8:	1a00000f 	bne	9c0c <mismatch_pc_set+0xcc>
    9bcc:	e3a03000 	mov	r3, #0
    9bd0:	ee073f95 	mcr	15, 0, r3, cr7, cr5, {4}
    9bd4:	ee103e90 	mrc	14, 0, r3, cr0, cr0, {4}
    9bd8:	e1540003 	cmp	r4, r3
    9bdc:	1a000012 	bne	9c2c <mismatch_pc_set+0xec>
    9be0:	e1a00005 	mov	r0, r5
    9be4:	e28dd00c 	add	sp, sp, #12
    9be8:	e8bd8030 	pop	{r4, r5, pc}
    9bec:	e59f305c 	ldr	r3, [pc, #92]	@ 9c50 <mismatch_pc_set+0x110>
    9bf0:	e58d3000 	str	r3, [sp]
    9bf4:	e3a03074 	mov	r3, #116	@ 0x74
    9bf8:	e59f2054 	ldr	r2, [pc, #84]	@ 9c54 <mismatch_pc_set+0x114>
    9bfc:	e59f1054 	ldr	r1, [pc, #84]	@ 9c58 <mismatch_pc_set+0x118>
    9c00:	e59f0054 	ldr	r0, [pc, #84]	@ 9c5c <mismatch_pc_set+0x11c>
    9c04:	eb00046b 	bl	adb8 <printk>
    9c08:	eb000587 	bl	b22c <clean_reboot>
    9c0c:	e59f304c 	ldr	r3, [pc, #76]	@ 9c60 <mismatch_pc_set+0x120>
    9c10:	e58d3000 	str	r3, [sp]
    9c14:	e3a03086 	mov	r3, #134	@ 0x86
    9c18:	e59f2034 	ldr	r2, [pc, #52]	@ 9c54 <mismatch_pc_set+0x114>
    9c1c:	e59f1034 	ldr	r1, [pc, #52]	@ 9c58 <mismatch_pc_set+0x118>
    9c20:	e59f0034 	ldr	r0, [pc, #52]	@ 9c5c <mismatch_pc_set+0x11c>
    9c24:	eb000463 	bl	adb8 <printk>
    9c28:	eb00057f 	bl	b22c <clean_reboot>
    9c2c:	e59f302c 	ldr	r3, [pc, #44]	@ 9c60 <mismatch_pc_set+0x120>
    9c30:	e58d3000 	str	r3, [sp]
    9c34:	e3a03089 	mov	r3, #137	@ 0x89
    9c38:	e59f2014 	ldr	r2, [pc, #20]	@ 9c54 <mismatch_pc_set+0x114>
    9c3c:	e59f1014 	ldr	r1, [pc, #20]	@ 9c58 <mismatch_pc_set+0x118>
    9c40:	e59f0014 	ldr	r0, [pc, #20]	@ 9c5c <mismatch_pc_set+0x11c>
    9c44:	eb00045b 	bl	adb8 <printk>
    9c48:	eb000577 	bl	b22c <clean_reboot>
    9c4c:	0000cf78 	.word	0x0000cf78
    9c50:	0000be28 	.word	0x0000be28
    9c54:	0000c9d4 	.word	0x0000c9d4
    9c58:	0000bdac 	.word	0x0000bdac
    9c5c:	0000bb5c 	.word	0x0000bb5c
    9c60:	0000be3c 	.word	0x0000be3c

00009c64 <mismatch_fault>:
    9c64:	e92d4030 	push	{r4, r5, lr}
    9c68:	e24dd00c 	sub	sp, sp, #12
    9c6c:	e590503c 	ldr	r5, [r0, #60]	@ 0x3c
    9c70:	e59f3054 	ldr	r3, [pc, #84]	@ 9ccc <mismatch_fault+0x68>
    9c74:	e1530005 	cmp	r3, r5
    9c78:	0a00000e 	beq	9cb8 <mismatch_fault+0x54>
    9c7c:	e1a04000 	mov	r4, r0
    9c80:	e58d5000 	str	r5, [sp]
    9c84:	e58d0004 	str	r0, [sp, #4]
    9c88:	e59f3040 	ldr	r3, [pc, #64]	@ 9cd0 <mismatch_fault+0x6c>
    9c8c:	e593207c 	ldr	r2, [r3, #124]	@ 0x7c
    9c90:	e1a0100d 	mov	r1, sp
    9c94:	e5930078 	ldr	r0, [r3, #120]	@ 0x78
    9c98:	e12fff32 	blx	r2
    9c9c:	e1a00005 	mov	r0, r5
    9ca0:	ebffffa6 	bl	9b40 <mismatch_pc_set>
    9ca4:	eb0003f1 	bl	ac70 <uart_can_put8>
    9ca8:	e3500000 	cmp	r0, #0
    9cac:	0afffffc 	beq	9ca4 <mismatch_fault+0x40>
    9cb0:	e1a00004 	mov	r0, r4
    9cb4:	ebffff72 	bl	9a84 <switchto>
    9cb8:	e1a01005 	mov	r1, r5
    9cbc:	e59f0010 	ldr	r0, [pc, #16]	@ 9cd4 <mismatch_fault+0x70>
    9cc0:	eb00043c 	bl	adb8 <printk>
    9cc4:	e59f000c 	ldr	r0, [pc, #12]	@ 9cd8 <mismatch_fault+0x74>
    9cc8:	ebffff6d 	bl	9a84 <switchto>
    9ccc:	00009448 	.word	0x00009448
    9cd0:	0000cf78 	.word	0x0000cf78
    9cd4:	0000be54 	.word	0x0000be54
    9cd8:	0000cfac 	.word	0x0000cfac

00009cdc <mismatch_on>:
    9cdc:	e92d4010 	push	{r4, lr}
    9ce0:	e59f3014 	ldr	r3, [pc, #20]	@ 9cfc <mismatch_on+0x20>
    9ce4:	e3a02001 	mov	r2, #1
    9ce8:	e5832030 	str	r2, [r3, #48]	@ 0x30
    9cec:	ebfffd4f 	bl	9230 <cp14_enable>
    9cf0:	e3a00000 	mov	r0, #0
    9cf4:	ebffff91 	bl	9b40 <mismatch_pc_set>
    9cf8:	e8bd8010 	pop	{r4, pc}
    9cfc:	0000cf78 	.word	0x0000cf78

00009d00 <mismatch_off>:
    9d00:	e3a03000 	mov	r3, #0
    9d04:	e59f2018 	ldr	r2, [pc, #24]	@ 9d24 <mismatch_off+0x24>
    9d08:	e5823030 	str	r3, [r2, #48]	@ 0x30
    9d0c:	ee102eb0 	mrc	14, 0, r2, cr0, cr0, {5}
    9d10:	e3c22001 	bic	r2, r2, #1
    9d14:	ee002eb0 	mcr	14, 0, r2, cr0, cr0, {5}
    9d18:	ee073f95 	mcr	15, 0, r3, cr7, cr5, {4}
    9d1c:	ee073f95 	mcr	15, 0, r3, cr7, cr5, {4}
    9d20:	e12fff1e 	bx	lr
    9d24:	0000cf78 	.word	0x0000cf78

00009d28 <mismatch_run>:
    9d28:	e92d4010 	push	{r4, lr}
    9d2c:	e1a04000 	mov	r4, r0
    9d30:	e590003c 	ldr	r0, [r0, #60]	@ 0x3c
    9d34:	ebffff81 	bl	9b40 <mismatch_pc_set>
    9d38:	eb0003cc 	bl	ac70 <uart_can_put8>
    9d3c:	e3500000 	cmp	r0, #0
    9d40:	0afffffc 	beq	9d38 <mismatch_run+0x10>
    9d44:	e1a00004 	mov	r0, r4
    9d48:	ebffff4d 	bl	9a84 <switchto>

00009d4c <mini_step_init>:
    9d4c:	e52de004 	push	{lr}		@ (str lr, [sp, #-4]!)
    9d50:	e24dd00c 	sub	sp, sp, #12
    9d54:	e3500000 	cmp	r0, #0
    9d58:	0a00000f 	beq	9d9c <mini_step_init+0x50>
    9d5c:	e59f3098 	ldr	r3, [pc, #152]	@ 9dfc <mini_step_init+0xb0>
    9d60:	e5831078 	str	r1, [r3, #120]	@ 0x78
    9d64:	e583007c 	str	r0, [r3, #124]	@ 0x7c
    9d68:	e3a00000 	mov	r0, #0
    9d6c:	eb000270 	bl	a734 <full_except_install>
    9d70:	e59f0088 	ldr	r0, [pc, #136]	@ 9e00 <mini_step_init+0xb4>
    9d74:	eb00025c 	bl	a6ec <full_except_set_prefetch>
    9d78:	ebfffd2c 	bl	9230 <cp14_enable>
    9d7c:	ee103eb0 	mrc	14, 0, r3, cr0, cr0, {5}
    9d80:	e3130001 	tst	r3, #1
    9d84:	1a00000c 	bne	9dbc <mini_step_init+0x70>
    9d88:	ee103eb0 	mrc	14, 0, r3, cr0, cr0, {5}
    9d8c:	e3130001 	tst	r3, #1
    9d90:	1a000011 	bne	9ddc <mini_step_init+0x90>
    9d94:	e28dd00c 	add	sp, sp, #12
    9d98:	e49df004 	pop	{pc}		@ (ldr pc, [sp], #4)
    9d9c:	e59f3060 	ldr	r3, [pc, #96]	@ 9e04 <mini_step_init+0xb8>
    9da0:	e58d3000 	str	r3, [sp]
    9da4:	e3a030cb 	mov	r3, #203	@ 0xcb
    9da8:	e59f2058 	ldr	r2, [pc, #88]	@ 9e08 <mini_step_init+0xbc>
    9dac:	e59f1058 	ldr	r1, [pc, #88]	@ 9e0c <mini_step_init+0xc0>
    9db0:	e59f0058 	ldr	r0, [pc, #88]	@ 9e10 <mini_step_init+0xc4>
    9db4:	eb0003ff 	bl	adb8 <printk>
    9db8:	eb00051b 	bl	b22c <clean_reboot>
    9dbc:	e59f3050 	ldr	r3, [pc, #80]	@ 9e14 <mini_step_init+0xc8>
    9dc0:	e58d3000 	str	r3, [sp]
    9dc4:	e3a030d3 	mov	r3, #211	@ 0xd3
    9dc8:	e59f2038 	ldr	r2, [pc, #56]	@ 9e08 <mini_step_init+0xbc>
    9dcc:	e59f1038 	ldr	r1, [pc, #56]	@ 9e0c <mini_step_init+0xc0>
    9dd0:	e59f0038 	ldr	r0, [pc, #56]	@ 9e10 <mini_step_init+0xc4>
    9dd4:	eb0003f7 	bl	adb8 <printk>
    9dd8:	eb000513 	bl	b22c <clean_reboot>
    9ddc:	e59f3030 	ldr	r3, [pc, #48]	@ 9e14 <mini_step_init+0xc8>
    9de0:	e58d3000 	str	r3, [sp]
    9de4:	e3a030d4 	mov	r3, #212	@ 0xd4
    9de8:	e59f2018 	ldr	r2, [pc, #24]	@ 9e08 <mini_step_init+0xbc>
    9dec:	e59f1018 	ldr	r1, [pc, #24]	@ 9e0c <mini_step_init+0xc0>
    9df0:	e59f0018 	ldr	r0, [pc, #24]	@ 9e10 <mini_step_init+0xc4>
    9df4:	eb0003ef 	bl	adb8 <printk>
    9df8:	eb00050b 	bl	b22c <clean_reboot>
    9dfc:	0000cf78 	.word	0x0000cf78
    9e00:	00009c64 	.word	0x00009c64
    9e04:	0000be7c 	.word	0x0000be7c
    9e08:	0000c9e4 	.word	0x0000c9e4
    9e0c:	0000bdac 	.word	0x0000bdac
    9e10:	0000bb5c 	.word	0x0000bb5c
    9e14:	0000be80 	.word	0x0000be80

00009e18 <mini_step_run>:
    9e18:	e92d40f0 	push	{r4, r5, r6, r7, lr}
    9e1c:	e24dd054 	sub	sp, sp, #84	@ 0x54
    9e20:	e1a05000 	mov	r5, r0
    9e24:	e59f30ac 	ldr	r3, [pc, #172]	@ 9ed8 <mini_step_run+0xc0>
    9e28:	e5933080 	ldr	r3, [r3, #128]	@ 0x80
    9e2c:	e3530000 	cmp	r3, #0
    9e30:	0a00001b 	beq	9ea4 <mini_step_run+0x8c>
    9e34:	e59f309c 	ldr	r3, [pc, #156]	@ 9ed8 <mini_step_run+0xc0>
    9e38:	e5933080 	ldr	r3, [r3, #128]	@ 0x80
    9e3c:	e2836902 	add	r6, r3, #32768	@ 0x8000
    9e40:	e10f1000 	mrs	r1, CPSR
    9e44:	e3a00010 	mov	r0, #16
    9e48:	ebfffda3 	bl	94dc <cpsr_inherit>
    9e4c:	e1a04000 	mov	r4, r0
    9e50:	ebfffd64 	bl	93e8 <mode_get>
    9e54:	e3500010 	cmp	r0, #16
    9e58:	1a000016 	bne	9eb8 <mini_step_run+0xa0>
    9e5c:	e28d700c 	add	r7, sp, #12
    9e60:	e3a02044 	mov	r2, #68	@ 0x44
    9e64:	e3a01000 	mov	r1, #0
    9e68:	e1a00007 	mov	r0, r7
    9e6c:	eb0003ab 	bl	ad20 <memset>
    9e70:	e58d6040 	str	r6, [sp, #64]	@ 0x40
    9e74:	e59f3060 	ldr	r3, [pc, #96]	@ 9edc <mini_step_run+0xc4>
    9e78:	e58d3044 	str	r3, [sp, #68]	@ 0x44
    9e7c:	e58d5048 	str	r5, [sp, #72]	@ 0x48
    9e80:	e58d404c 	str	r4, [sp, #76]	@ 0x4c
    9e84:	ebffff94 	bl	9cdc <mismatch_on>
    9e88:	e1a01007 	mov	r1, r7
    9e8c:	e59f004c 	ldr	r0, [pc, #76]	@ 9ee0 <mini_step_run+0xc8>
    9e90:	ebffff05 	bl	9aac <switchto_cswitch>
    9e94:	ebffff99 	bl	9d00 <mismatch_off>
    9e98:	e59d000c 	ldr	r0, [sp, #12]
    9e9c:	e28dd054 	add	sp, sp, #84	@ 0x54
    9ea0:	e8bd80f0 	pop	{r4, r5, r6, r7, pc}
    9ea4:	e3a00902 	mov	r0, #32768	@ 0x8000
    9ea8:	eb0002c5 	bl	a9c4 <kmalloc>
    9eac:	e59f3024 	ldr	r3, [pc, #36]	@ 9ed8 <mini_step_run+0xc0>
    9eb0:	e5830080 	str	r0, [r3, #128]	@ 0x80
    9eb4:	eaffffde 	b	9e34 <mini_step_run+0x1c>
    9eb8:	e59f3024 	ldr	r3, [pc, #36]	@ 9ee4 <mini_step_run+0xcc>
    9ebc:	e58d3000 	str	r3, [sp]
    9ec0:	e3a030e0 	mov	r3, #224	@ 0xe0
    9ec4:	e59f201c 	ldr	r2, [pc, #28]	@ 9ee8 <mini_step_run+0xd0>
    9ec8:	e59f101c 	ldr	r1, [pc, #28]	@ 9eec <mini_step_run+0xd4>
    9ecc:	e59f001c 	ldr	r0, [pc, #28]	@ 9ef0 <mini_step_run+0xd8>
    9ed0:	eb0003b8 	bl	adb8 <printk>
    9ed4:	eb0004d4 	bl	b22c <clean_reboot>
    9ed8:	0000cf78 	.word	0x0000cf78
    9edc:	00009448 	.word	0x00009448
    9ee0:	0000cfac 	.word	0x0000cfac
    9ee4:	0000be98 	.word	0x0000be98
    9ee8:	0000c9f4 	.word	0x0000c9f4
    9eec:	0000bdac 	.word	0x0000bdac
    9ef0:	0000bb5c 	.word	0x0000bb5c

00009ef4 <mini_bp_init>:
    9ef4:	e92d4010 	push	{r4, lr}
    9ef8:	e24dd008 	sub	sp, sp, #8
    9efc:	e3a00000 	mov	r0, #0
    9f00:	eb00020b 	bl	a734 <full_except_install>
    9f04:	e59f004c 	ldr	r0, [pc, #76]	@ 9f58 <mini_bp_init+0x64>
    9f08:	eb0001f7 	bl	a6ec <full_except_set_prefetch>
    9f0c:	ebfffcc7 	bl	9230 <cp14_enable>
    9f10:	e3a04001 	mov	r4, #1
    9f14:	e3540005 	cmp	r4, #5
    9f18:	ca00000c 	bgt	9f50 <mini_bp_init+0x5c>
    9f1c:	e1a00004 	mov	r0, r4
    9f20:	ebfffd88 	bl	9548 <bp_ctrl_is_enabled>
    9f24:	e3500000 	cmp	r0, #0
    9f28:	02844001 	addeq	r4, r4, #1
    9f2c:	0afffff8 	beq	9f14 <mini_bp_init+0x20>
    9f30:	e59f3024 	ldr	r3, [pc, #36]	@ 9f5c <mini_bp_init+0x68>
    9f34:	e58d3000 	str	r3, [sp]
    9f38:	e3a03f45 	mov	r3, #276	@ 0x114
    9f3c:	e59f201c 	ldr	r2, [pc, #28]	@ 9f60 <mini_bp_init+0x6c>
    9f40:	e59f101c 	ldr	r1, [pc, #28]	@ 9f64 <mini_bp_init+0x70>
    9f44:	e59f001c 	ldr	r0, [pc, #28]	@ 9f68 <mini_bp_init+0x74>
    9f48:	eb00039a 	bl	adb8 <printk>
    9f4c:	eb0004b6 	bl	b22c <clean_reboot>
    9f50:	e28dd008 	add	sp, sp, #8
    9f54:	e8bd8010 	pop	{r4, pc}
    9f58:	0000a128 	.word	0x0000a128
    9f5c:	0000beb4 	.word	0x0000beb4
    9f60:	0000ca04 	.word	0x0000ca04
    9f64:	0000bdac 	.word	0x0000bdac
    9f68:	0000bb5c 	.word	0x0000bb5c

00009f6c <mini_bp_addr>:
    9f6c:	e92d43f0 	push	{r4, r5, r6, r7, r8, r9, lr}
    9f70:	e24dd00c 	sub	sp, sp, #12
    9f74:	e59f3114 	ldr	r3, [pc, #276]	@ a090 <mini_bp_addr+0x124>
    9f78:	e5936084 	ldr	r6, [r3, #132]	@ 0x84
    9f7c:	e3560004 	cmp	r6, #4
    9f80:	ca000032 	bgt	a050 <mini_bp_addr+0xe4>
    9f84:	e1a05000 	mov	r5, r0
    9f88:	e1a09001 	mov	r9, r1
    9f8c:	e1a07002 	mov	r7, r2
    9f90:	ebfffc20 	bl	9018 <get_next_available_bp>
    9f94:	e1a04000 	mov	r4, r0
    9f98:	e59f30f0 	ldr	r3, [pc, #240]	@ a090 <mini_bp_addr+0x124>
    9f9c:	e3a08001 	mov	r8, #1
    9fa0:	e7838100 	str	r8, [r3, r0, lsl #2]
    9fa4:	e0832100 	add	r2, r3, r0, lsl #2
    9fa8:	e5825018 	str	r5, [r2, #24]
    9fac:	e5829088 	str	r9, [r2, #136]	@ 0x88
    9fb0:	e58270a0 	str	r7, [r2, #160]	@ 0xa0
    9fb4:	e0866008 	add	r6, r6, r8
    9fb8:	e5836084 	str	r6, [r3, #132]	@ 0x84
    9fbc:	ebfffd9f 	bl	9640 <bp_ctrl_get>
    9fc0:	e1a06000 	mov	r6, r0
    9fc4:	e3c01001 	bic	r1, r0, #1
    9fc8:	e1a00004 	mov	r0, r4
    9fcc:	ebfffdfb 	bl	97c0 <bp_ctrl_set>
    9fd0:	e1a01005 	mov	r1, r5
    9fd4:	e1a00004 	mov	r0, r4
    9fd8:	ebfffdc5 	bl	96f4 <bp_val_set>
    9fdc:	e3a03000 	mov	r3, #0
    9fe0:	e3a02016 	mov	r2, #22
    9fe4:	e3a01015 	mov	r1, #21
    9fe8:	e1a00006 	mov	r0, r6
    9fec:	ebfffc50 	bl	9134 <bits_set>
    9ff0:	e3a03000 	mov	r3, #0
    9ff4:	e3a0200f 	mov	r2, #15
    9ff8:	e3a0100e 	mov	r1, #14
    9ffc:	e3c00601 	bic	r0, r0, #1048576	@ 0x100000
    a000:	ebfffc4b 	bl	9134 <bits_set>
    a004:	e3a0300f 	mov	r3, #15
    a008:	e3a02008 	mov	r2, #8
    a00c:	e3a01005 	mov	r1, #5
    a010:	ebfffc47 	bl	9134 <bits_set>
    a014:	e3a03003 	mov	r3, #3
    a018:	e3a02002 	mov	r2, #2
    a01c:	e1a01008 	mov	r1, r8
    a020:	ebfffc43 	bl	9134 <bits_set>
    a024:	e1a01000 	mov	r1, r0
    a028:	e1a00004 	mov	r0, r4
    a02c:	ebfffde3 	bl	97c0 <bp_ctrl_set>
    a030:	e1a00004 	mov	r0, r4
    a034:	ebfffe14 	bl	988c <bp_ctrl_enable>
    a038:	e1a00004 	mov	r0, r4
    a03c:	ebfffd41 	bl	9548 <bp_ctrl_is_enabled>
    a040:	e3500000 	cmp	r0, #0
    a044:	0a000009 	beq	a070 <mini_bp_addr+0x104>
    a048:	e28dd00c 	add	sp, sp, #12
    a04c:	e8bd83f0 	pop	{r4, r5, r6, r7, r8, r9, pc}
    a050:	e59f303c 	ldr	r3, [pc, #60]	@ a094 <mini_bp_addr+0x128>
    a054:	e58d3000 	str	r3, [sp]
    a058:	e59f3038 	ldr	r3, [pc, #56]	@ a098 <mini_bp_addr+0x12c>
    a05c:	e59f2038 	ldr	r2, [pc, #56]	@ a09c <mini_bp_addr+0x130>
    a060:	e59f1038 	ldr	r1, [pc, #56]	@ a0a0 <mini_bp_addr+0x134>
    a064:	e59f0038 	ldr	r0, [pc, #56]	@ a0a4 <mini_bp_addr+0x138>
    a068:	eb000352 	bl	adb8 <printk>
    a06c:	eb00046e 	bl	b22c <clean_reboot>
    a070:	e59f3030 	ldr	r3, [pc, #48]	@ a0a8 <mini_bp_addr+0x13c>
    a074:	e58d3000 	str	r3, [sp]
    a078:	e59f302c 	ldr	r3, [pc, #44]	@ a0ac <mini_bp_addr+0x140>
    a07c:	e59f2018 	ldr	r2, [pc, #24]	@ a09c <mini_bp_addr+0x130>
    a080:	e59f1018 	ldr	r1, [pc, #24]	@ a0a0 <mini_bp_addr+0x134>
    a084:	e59f0018 	ldr	r0, [pc, #24]	@ a0a4 <mini_bp_addr+0x138>
    a088:	eb00034a 	bl	adb8 <printk>
    a08c:	eb000466 	bl	b22c <clean_reboot>
    a090:	0000cf78 	.word	0x0000cf78
    a094:	0000becc 	.word	0x0000becc
    a098:	0000011a 	.word	0x0000011a
    a09c:	0000ca14 	.word	0x0000ca14
    a0a0:	0000bdac 	.word	0x0000bdac
    a0a4:	0000bb5c 	.word	0x0000bb5c
    a0a8:	0000bed8 	.word	0x0000bed8
    a0ac:	00000136 	.word	0x00000136

0000a0b0 <mini_bp_disable>:
    a0b0:	e92d4010 	push	{r4, lr}
    a0b4:	e24dd008 	sub	sp, sp, #8
    a0b8:	ebfffbc3 	bl	8fcc <which_bp>
    a0bc:	e3700001 	cmn	r0, #1
    a0c0:	0a00000b 	beq	a0f4 <mini_bp_disable+0x44>
    a0c4:	e1a04000 	mov	r4, r0
    a0c8:	ebfffe2e 	bl	9988 <bp_ctrl_disable>
    a0cc:	e59f3040 	ldr	r3, [pc, #64]	@ a114 <mini_bp_disable+0x64>
    a0d0:	e3a02000 	mov	r2, #0
    a0d4:	e7832104 	str	r2, [r3, r4, lsl #2]
    a0d8:	e0834104 	add	r4, r3, r4, lsl #2
    a0dc:	e5842018 	str	r2, [r4, #24]
    a0e0:	e5932084 	ldr	r2, [r3, #132]	@ 0x84
    a0e4:	e2422001 	sub	r2, r2, #1
    a0e8:	e5832084 	str	r2, [r3, #132]	@ 0x84
    a0ec:	e28dd008 	add	sp, sp, #8
    a0f0:	e8bd8010 	pop	{r4, pc}
    a0f4:	e59f301c 	ldr	r3, [pc, #28]	@ a118 <mini_bp_disable+0x68>
    a0f8:	e58d3000 	str	r3, [sp]
    a0fc:	e3a03f4f 	mov	r3, #316	@ 0x13c
    a100:	e59f2014 	ldr	r2, [pc, #20]	@ a11c <mini_bp_disable+0x6c>
    a104:	e59f1014 	ldr	r1, [pc, #20]	@ a120 <mini_bp_disable+0x70>
    a108:	e59f0014 	ldr	r0, [pc, #20]	@ a124 <mini_bp_disable+0x74>
    a10c:	eb000329 	bl	adb8 <printk>
    a110:	eb000445 	bl	b22c <clean_reboot>
    a114:	0000cf78 	.word	0x0000cf78
    a118:	0000bef8 	.word	0x0000bef8
    a11c:	0000ca24 	.word	0x0000ca24
    a120:	0000bdac 	.word	0x0000bdac
    a124:	0000bb5c 	.word	0x0000bb5c

0000a128 <brkpt_fault>:
    a128:	e92d40f0 	push	{r4, r5, r6, r7, lr}
    a12c:	e24dd014 	sub	sp, sp, #20
    a130:	e1a05000 	mov	r5, r0
    a134:	ebfffc84 	bl	934c <was_brkpt_fault>
    a138:	e3500000 	cmp	r0, #0
    a13c:	1a000005 	bne	a158 <brkpt_fault+0x30>
    a140:	e3a030f0 	mov	r3, #240	@ 0xf0
    a144:	e59f2110 	ldr	r2, [pc, #272]	@ a25c <brkpt_fault+0x134>
    a148:	e59f1110 	ldr	r1, [pc, #272]	@ a260 <brkpt_fault+0x138>
    a14c:	e59f0110 	ldr	r0, [pc, #272]	@ a264 <brkpt_fault+0x13c>
    a150:	eb000318 	bl	adb8 <printk>
    a154:	eb000434 	bl	b22c <clean_reboot>
    a158:	e595603c 	ldr	r6, [r5, #60]	@ 0x3c
    a15c:	e1a01006 	mov	r1, r6
    a160:	e59f0100 	ldr	r0, [pc, #256]	@ a268 <brkpt_fault+0x140>
    a164:	eb000313 	bl	adb8 <printk>
    a168:	e1a00006 	mov	r0, r6
    a16c:	ebfffb96 	bl	8fcc <which_bp>
    a170:	e1a04000 	mov	r4, r0
    a174:	e3700001 	cmn	r0, #1
    a178:	0a000009 	beq	a1a4 <brkpt_fault+0x7c>
    a17c:	e3500000 	cmp	r0, #0
    a180:	1a00000f 	bne	a1c4 <brkpt_fault+0x9c>
    a184:	e59f30e0 	ldr	r3, [pc, #224]	@ a26c <brkpt_fault+0x144>
    a188:	e58d3000 	str	r3, [sp]
    a18c:	e3a030f9 	mov	r3, #249	@ 0xf9
    a190:	e59f20c4 	ldr	r2, [pc, #196]	@ a25c <brkpt_fault+0x134>
    a194:	e59f10c4 	ldr	r1, [pc, #196]	@ a260 <brkpt_fault+0x138>
    a198:	e59f00d0 	ldr	r0, [pc, #208]	@ a270 <brkpt_fault+0x148>
    a19c:	eb000305 	bl	adb8 <printk>
    a1a0:	eb000421 	bl	b22c <clean_reboot>
    a1a4:	e59f30c8 	ldr	r3, [pc, #200]	@ a274 <brkpt_fault+0x14c>
    a1a8:	e58d3000 	str	r3, [sp]
    a1ac:	e3a030f8 	mov	r3, #248	@ 0xf8
    a1b0:	e59f20a4 	ldr	r2, [pc, #164]	@ a25c <brkpt_fault+0x134>
    a1b4:	e59f10a4 	ldr	r1, [pc, #164]	@ a260 <brkpt_fault+0x138>
    a1b8:	e59f00b0 	ldr	r0, [pc, #176]	@ a270 <brkpt_fault+0x148>
    a1bc:	eb0002fd 	bl	adb8 <printk>
    a1c0:	eb000419 	bl	b22c <clean_reboot>
    a1c4:	ebfffcdf 	bl	9548 <bp_ctrl_is_enabled>
    a1c8:	e3500000 	cmp	r0, #0
    a1cc:	0a000018 	beq	a234 <brkpt_fault+0x10c>
    a1d0:	e58d6008 	str	r6, [sp, #8]
    a1d4:	e58d500c 	str	r5, [sp, #12]
    a1d8:	e59f7098 	ldr	r7, [pc, #152]	@ a278 <brkpt_fault+0x150>
    a1dc:	e0873104 	add	r3, r7, r4, lsl #2
    a1e0:	e5932088 	ldr	r2, [r3, #136]	@ 0x88
    a1e4:	e28d1008 	add	r1, sp, #8
    a1e8:	e59300a0 	ldr	r0, [r3, #160]	@ 0xa0
    a1ec:	e12fff32 	blx	r2
    a1f0:	e59730b8 	ldr	r3, [r7, #184]	@ 0xb8
    a1f4:	e2833001 	add	r3, r3, #1
    a1f8:	e58730b8 	str	r3, [r7, #184]	@ 0xb8
    a1fc:	e1a00006 	mov	r0, r6
    a200:	ebffffaa 	bl	a0b0 <mini_bp_disable>
    a204:	e1a00004 	mov	r0, r4
    a208:	ebfffcce 	bl	9548 <bp_ctrl_is_enabled>
    a20c:	e3500000 	cmp	r0, #0
    a210:	0a00000f 	beq	a254 <brkpt_fault+0x12c>
    a214:	e59f3060 	ldr	r3, [pc, #96]	@ a27c <brkpt_fault+0x154>
    a218:	e58d3000 	str	r3, [sp]
    a21c:	e3a03f42 	mov	r3, #264	@ 0x108
    a220:	e59f2034 	ldr	r2, [pc, #52]	@ a25c <brkpt_fault+0x134>
    a224:	e59f1034 	ldr	r1, [pc, #52]	@ a260 <brkpt_fault+0x138>
    a228:	e59f0040 	ldr	r0, [pc, #64]	@ a270 <brkpt_fault+0x148>
    a22c:	eb0002e1 	bl	adb8 <printk>
    a230:	eb0003fd 	bl	b22c <clean_reboot>
    a234:	e59f3044 	ldr	r3, [pc, #68]	@ a280 <brkpt_fault+0x158>
    a238:	e58d3000 	str	r3, [sp]
    a23c:	e3a030fd 	mov	r3, #253	@ 0xfd
    a240:	e59f2014 	ldr	r2, [pc, #20]	@ a25c <brkpt_fault+0x134>
    a244:	e59f1014 	ldr	r1, [pc, #20]	@ a260 <brkpt_fault+0x138>
    a248:	e59f0020 	ldr	r0, [pc, #32]	@ a270 <brkpt_fault+0x148>
    a24c:	eb0002d9 	bl	adb8 <printk>
    a250:	eb0003f5 	bl	b22c <clean_reboot>
    a254:	e1a00005 	mov	r0, r5
    a258:	ebfffe09 	bl	9a84 <switchto>
    a25c:	0000ca34 	.word	0x0000ca34
    a260:	0000bdac 	.word	0x0000bdac
    a264:	0000bf08 	.word	0x0000bf08
    a268:	0000bf3c 	.word	0x0000bf3c
    a26c:	0000bf54 	.word	0x0000bf54
    a270:	0000bb5c 	.word	0x0000bb5c
    a274:	0000bef8 	.word	0x0000bef8
    a278:	0000cf78 	.word	0x0000cf78
    a27c:	0000bf64 	.word	0x0000bf64
    a280:	0000bed8 	.word	0x0000bed8

0000a284 <mini_bp_enabled>:
    a284:	e59f3004 	ldr	r3, [pc, #4]	@ a290 <mini_bp_enabled+0xc>
    a288:	e5930084 	ldr	r0, [r3, #132]	@ 0x84
    a28c:	e12fff1e 	bx	lr
    a290:	0000cf78 	.word	0x0000cf78

0000a294 <mini_bp_is_fault>:
    a294:	e92d4010 	push	{r4, lr}
    a298:	ebfffc2b 	bl	934c <was_brkpt_fault>
    a29c:	e8bd8010 	pop	{r4, pc}

0000a2a0 <mini_bp_num_faults>:
    a2a0:	e59f3004 	ldr	r3, [pc, #4]	@ a2ac <mini_bp_num_faults+0xc>
    a2a4:	e59300b8 	ldr	r0, [r3, #184]	@ 0xb8
    a2a8:	e12fff1e 	bx	lr
    a2ac:	0000cf78 	.word	0x0000cf78

0000a2b0 <bits_mask>:
    a2b0:	e3500020 	cmp	r0, #32
    a2b4:	0a00000f 	beq	a2f8 <bits_mask+0x48>
    a2b8:	e350001f 	cmp	r0, #31
    a2bc:	8a000003 	bhi	a2d0 <bits_mask+0x20>
    a2c0:	e3a03001 	mov	r3, #1
    a2c4:	e1a00013 	lsl	r0, r3, r0
    a2c8:	e2400001 	sub	r0, r0, #1
    a2cc:	e12fff1e 	bx	lr
    a2d0:	e52de004 	push	{lr}		@ (str lr, [sp, #-4]!)
    a2d4:	e24dd00c 	sub	sp, sp, #12
    a2d8:	e59f3020 	ldr	r3, [pc, #32]	@ a300 <bits_mask+0x50>
    a2dc:	e58d3000 	str	r3, [sp]
    a2e0:	e3a03033 	mov	r3, #51	@ 0x33
    a2e4:	e59f2018 	ldr	r2, [pc, #24]	@ a304 <bits_mask+0x54>
    a2e8:	e59f1018 	ldr	r1, [pc, #24]	@ a308 <bits_mask+0x58>
    a2ec:	e59f0018 	ldr	r0, [pc, #24]	@ a30c <bits_mask+0x5c>
    a2f0:	eb0002b0 	bl	adb8 <printk>
    a2f4:	eb0003cc 	bl	b22c <clean_reboot>
    a2f8:	e3e00000 	mvn	r0, #0
    a2fc:	e12fff1e 	bx	lr
    a300:	0000bb8c 	.word	0x0000bb8c
    a304:	0000ca40 	.word	0x0000ca40
    a308:	0000bb10 	.word	0x0000bb10
    a30c:	0000bb5c 	.word	0x0000bb5c

0000a310 <bits_get>:
    a310:	e92d4010 	push	{r4, lr}
    a314:	e24dd008 	sub	sp, sp, #8
    a318:	e1510002 	cmp	r1, r2
    a31c:	8a000008 	bhi	a344 <bits_get+0x34>
    a320:	e352001f 	cmp	r2, #31
    a324:	8a00000e 	bhi	a364 <bits_get+0x54>
    a328:	e1a04130 	lsr	r4, r0, r1
    a32c:	e0422001 	sub	r2, r2, r1
    a330:	e2820001 	add	r0, r2, #1
    a334:	ebffffdd 	bl	a2b0 <bits_mask>
    a338:	e0000004 	and	r0, r0, r4
    a33c:	e28dd008 	add	sp, sp, #8
    a340:	e8bd8010 	pop	{r4, pc}
    a344:	e59f3038 	ldr	r3, [pc, #56]	@ a384 <bits_get+0x74>
    a348:	e58d3000 	str	r3, [sp]
    a34c:	e3a0303a 	mov	r3, #58	@ 0x3a
    a350:	e59f2030 	ldr	r2, [pc, #48]	@ a388 <bits_get+0x78>
    a354:	e59f1030 	ldr	r1, [pc, #48]	@ a38c <bits_get+0x7c>
    a358:	e59f0030 	ldr	r0, [pc, #48]	@ a390 <bits_get+0x80>
    a35c:	eb000295 	bl	adb8 <printk>
    a360:	eb0003b1 	bl	b22c <clean_reboot>
    a364:	e59f3028 	ldr	r3, [pc, #40]	@ a394 <bits_get+0x84>
    a368:	e58d3000 	str	r3, [sp]
    a36c:	e3a0303b 	mov	r3, #59	@ 0x3b
    a370:	e59f2010 	ldr	r2, [pc, #16]	@ a388 <bits_get+0x78>
    a374:	e59f1010 	ldr	r1, [pc, #16]	@ a38c <bits_get+0x7c>
    a378:	e59f0010 	ldr	r0, [pc, #16]	@ a390 <bits_get+0x80>
    a37c:	eb00028d 	bl	adb8 <printk>
    a380:	eb0003a9 	bl	b22c <clean_reboot>
    a384:	0000bba4 	.word	0x0000bba4
    a388:	0000ca4c 	.word	0x0000ca4c
    a38c:	0000bb10 	.word	0x0000bb10
    a390:	0000bb5c 	.word	0x0000bb5c
    a394:	0000bbb0 	.word	0x0000bbb0

0000a398 <mode_legal>:
    a398:	e350001f 	cmp	r0, #31
    a39c:	8a000005 	bhi	a3b8 <mode_legal+0x20>
    a3a0:	e59f3038 	ldr	r3, [pc, #56]	@ a3e0 <mode_legal+0x48>
    a3a4:	e1a03033 	lsr	r3, r3, r0
    a3a8:	e3130001 	tst	r3, #1
    a3ac:	0a000001 	beq	a3b8 <mode_legal+0x20>
    a3b0:	e3a00001 	mov	r0, #1
    a3b4:	e12fff1e 	bx	lr
    a3b8:	e52de004 	push	{lr}		@ (str lr, [sp, #-4]!)
    a3bc:	e24dd00c 	sub	sp, sp, #12
    a3c0:	e58d0004 	str	r0, [sp, #4]
    a3c4:	e58d0000 	str	r0, [sp]
    a3c8:	e3a03013 	mov	r3, #19
    a3cc:	e59f2010 	ldr	r2, [pc, #16]	@ a3e4 <mode_legal+0x4c>
    a3d0:	e59f1010 	ldr	r1, [pc, #16]	@ a3e8 <mode_legal+0x50>
    a3d4:	e59f0010 	ldr	r0, [pc, #16]	@ a3ec <mode_legal+0x54>
    a3d8:	eb000276 	bl	adb8 <printk>
    a3dc:	eb000392 	bl	b22c <clean_reboot>
    a3e0:	888d0000 	.word	0x888d0000
    a3e4:	0000ca58 	.word	0x0000ca58
    a3e8:	0000bbb8 	.word	0x0000bbb8
    a3ec:	0000bbc4 	.word	0x0000bbc4

0000a3f0 <mode_get>:
    a3f0:	e92d4010 	push	{r4, lr}
    a3f4:	e24dd008 	sub	sp, sp, #8
    a3f8:	e3a02004 	mov	r2, #4
    a3fc:	e3a01000 	mov	r1, #0
    a400:	ebffffc2 	bl	a310 <bits_get>
    a404:	e1a04000 	mov	r4, r0
    a408:	ebffffe2 	bl	a398 <mode_legal>
    a40c:	e3500000 	cmp	r0, #0
    a410:	0a000002 	beq	a420 <mode_get+0x30>
    a414:	e1a00004 	mov	r0, r4
    a418:	e28dd008 	add	sp, sp, #8
    a41c:	e8bd8010 	pop	{r4, pc}
    a420:	e59f3018 	ldr	r3, [pc, #24]	@ a440 <mode_get+0x50>
    a424:	e58d3000 	str	r3, [sp]
    a428:	e3a03019 	mov	r3, #25
    a42c:	e59f2010 	ldr	r2, [pc, #16]	@ a444 <mode_get+0x54>
    a430:	e59f1010 	ldr	r1, [pc, #16]	@ a448 <mode_get+0x58>
    a434:	e59f0010 	ldr	r0, [pc, #16]	@ a44c <mode_get+0x5c>
    a438:	eb00025e 	bl	adb8 <printk>
    a43c:	eb00037a 	bl	b22c <clean_reboot>
    a440:	0000bbf0 	.word	0x0000bbf0
    a444:	0000ca64 	.word	0x0000ca64
    a448:	0000bbb8 	.word	0x0000bbb8
    a44c:	0000bb5c 	.word	0x0000bb5c

0000a450 <vector_base_set>:
    a450:	e52de004 	push	{lr}		@ (str lr, [sp, #-4]!)
    a454:	e24dd00c 	sub	sp, sp, #12
    a458:	e3500000 	cmp	r0, #0
    a45c:	0a00000e 	beq	a49c <vector_base_set+0x4c>
    a460:	e310001f 	tst	r0, #31
    a464:	1a00000c 	bne	a49c <vector_base_set+0x4c>
    a468:	ee1c3f10 	mrc	15, 0, r3, cr12, cr0, {0}
    a46c:	e1500003 	cmp	r0, r3
    a470:	0a000007 	beq	a494 <vector_base_set+0x44>
    a474:	e3530000 	cmp	r3, #0
    a478:	1a00000e 	bne	a4b8 <vector_base_set+0x68>
    a47c:	ee0c0f10 	mcr	15, 0, r0, cr12, cr0, {0}
    a480:	e3a03000 	mov	r3, #0
    a484:	ee073f95 	mcr	15, 0, r3, cr7, cr5, {4}
    a488:	ee1c3f10 	mrc	15, 0, r3, cr12, cr0, {0}
    a48c:	e1500003 	cmp	r0, r3
    a490:	1a00000f 	bne	a4d4 <vector_base_set+0x84>
    a494:	e28dd00c 	add	sp, sp, #12
    a498:	e49df004 	pop	{pc}		@ (ldr pc, [sp], #4)
    a49c:	e58d0000 	str	r0, [sp]
    a4a0:	e3a0302a 	mov	r3, #42	@ 0x2a
    a4a4:	e59f2048 	ldr	r2, [pc, #72]	@ a4f4 <vector_base_set+0xa4>
    a4a8:	e59f1048 	ldr	r1, [pc, #72]	@ a4f8 <vector_base_set+0xa8>
    a4ac:	e59f0048 	ldr	r0, [pc, #72]	@ a4fc <vector_base_set+0xac>
    a4b0:	eb000240 	bl	adb8 <printk>
    a4b4:	eb00035c 	bl	b22c <clean_reboot>
    a4b8:	e58d3000 	str	r3, [sp]
    a4bc:	e3a03032 	mov	r3, #50	@ 0x32
    a4c0:	e59f202c 	ldr	r2, [pc, #44]	@ a4f4 <vector_base_set+0xa4>
    a4c4:	e59f102c 	ldr	r1, [pc, #44]	@ a4f8 <vector_base_set+0xa8>
    a4c8:	e59f0030 	ldr	r0, [pc, #48]	@ a500 <vector_base_set+0xb0>
    a4cc:	eb000239 	bl	adb8 <printk>
    a4d0:	eb000355 	bl	b22c <clean_reboot>
    a4d4:	e58d3004 	str	r3, [sp, #4]
    a4d8:	e58d0000 	str	r0, [sp]
    a4dc:	e3a03038 	mov	r3, #56	@ 0x38
    a4e0:	e59f200c 	ldr	r2, [pc, #12]	@ a4f4 <vector_base_set+0xa4>
    a4e4:	e59f100c 	ldr	r1, [pc, #12]	@ a4f8 <vector_base_set+0xa8>
    a4e8:	e59f0014 	ldr	r0, [pc, #20]	@ a504 <vector_base_set+0xb4>
    a4ec:	eb000231 	bl	adb8 <printk>
    a4f0:	eb00034d 	bl	b22c <clean_reboot>
    a4f4:	0000ca70 	.word	0x0000ca70
    a4f8:	0000bf84 	.word	0x0000bf84
    a4fc:	0000bfcc 	.word	0x0000bfcc
    a500:	0000bff4 	.word	0x0000bff4
    a504:	0000c02c 	.word	0x0000c02c

0000a508 <fixup_regs>:
    a508:	e92d4070 	push	{r4, r5, r6, lr}
    a50c:	e1a05000 	mov	r5, r0
    a510:	e1a04001 	mov	r4, r1
    a514:	e1a00001 	mov	r0, r1
    a518:	ebffffb4 	bl	a3f0 <mode_get>
    a51c:	e3500010 	cmp	r0, #16
    a520:	08bd8070 	popeq	{r4, r5, r6, pc}
    a524:	e2852038 	add	r2, r5, #56	@ 0x38
    a528:	e2851034 	add	r1, r5, #52	@ 0x34
    a52c:	e1a00004 	mov	r0, r4
    a530:	eb000a50 	bl	ce78 <priv_get_sp_lr_asm>
    a534:	e8bd8070 	pop	{r4, r5, r6, pc}

0000a538 <prefetch_abort_full_except>:
    a538:	e52de004 	push	{lr}		@ (str lr, [sp, #-4]!)
    a53c:	e24dd00c 	sub	sp, sp, #12
    a540:	e59f3054 	ldr	r3, [pc, #84]	@ a59c <prefetch_abort_full_except+0x64>
    a544:	e5933000 	ldr	r3, [r3]
    a548:	e3530000 	cmp	r3, #0
    a54c:	0a00000b 	beq	a580 <prefetch_abort_full_except+0x48>
    a550:	e1a04000 	mov	r4, r0
    a554:	ebffffeb 	bl	a508 <fixup_regs>
    a558:	e59f303c 	ldr	r3, [pc, #60]	@ a59c <prefetch_abort_full_except+0x64>
    a55c:	e5933000 	ldr	r3, [r3]
    a560:	e1a00004 	mov	r0, r4
    a564:	e12fff33 	blx	r3
    a568:	e3a03043 	mov	r3, #67	@ 0x43
    a56c:	e59f202c 	ldr	r2, [pc, #44]	@ a5a0 <prefetch_abort_full_except+0x68>
    a570:	e59f102c 	ldr	r1, [pc, #44]	@ a5a4 <prefetch_abort_full_except+0x6c>
    a574:	e59f002c 	ldr	r0, [pc, #44]	@ a5a8 <prefetch_abort_full_except+0x70>
    a578:	eb00020e 	bl	adb8 <printk>
    a57c:	eb00032a 	bl	b22c <clean_reboot>
    a580:	e58d2000 	str	r2, [sp]
    a584:	e3a03040 	mov	r3, #64	@ 0x40
    a588:	e59f2010 	ldr	r2, [pc, #16]	@ a5a0 <prefetch_abort_full_except+0x68>
    a58c:	e59f1010 	ldr	r1, [pc, #16]	@ a5a4 <prefetch_abort_full_except+0x6c>
    a590:	e59f0014 	ldr	r0, [pc, #20]	@ a5ac <prefetch_abort_full_except+0x74>
    a594:	eb000207 	bl	adb8 <printk>
    a598:	eb000323 	bl	b22c <clean_reboot>
    a59c:	0000d034 	.word	0x0000d034
    a5a0:	0000ca80 	.word	0x0000ca80
    a5a4:	0000c058 	.word	0x0000c058
    a5a8:	0000c0a4 	.word	0x0000c0a4
    a5ac:	0000c06c 	.word	0x0000c06c

0000a5b0 <data_abort_full_except>:
    a5b0:	e52de004 	push	{lr}		@ (str lr, [sp, #-4]!)
    a5b4:	e24dd00c 	sub	sp, sp, #12
    a5b8:	e59f3054 	ldr	r3, [pc, #84]	@ a614 <data_abort_full_except+0x64>
    a5bc:	e5933004 	ldr	r3, [r3, #4]
    a5c0:	e3530000 	cmp	r3, #0
    a5c4:	0a00000b 	beq	a5f8 <data_abort_full_except+0x48>
    a5c8:	e1a04000 	mov	r4, r0
    a5cc:	ebffffcd 	bl	a508 <fixup_regs>
    a5d0:	e59f303c 	ldr	r3, [pc, #60]	@ a614 <data_abort_full_except+0x64>
    a5d4:	e5933004 	ldr	r3, [r3, #4]
    a5d8:	e1a00004 	mov	r0, r4
    a5dc:	e12fff33 	blx	r3
    a5e0:	e3a0304e 	mov	r3, #78	@ 0x4e
    a5e4:	e59f202c 	ldr	r2, [pc, #44]	@ a618 <data_abort_full_except+0x68>
    a5e8:	e59f102c 	ldr	r1, [pc, #44]	@ a61c <data_abort_full_except+0x6c>
    a5ec:	e59f002c 	ldr	r0, [pc, #44]	@ a620 <data_abort_full_except+0x70>
    a5f0:	eb0001f0 	bl	adb8 <printk>
    a5f4:	eb00030c 	bl	b22c <clean_reboot>
    a5f8:	e58d2000 	str	r2, [sp]
    a5fc:	e3a03049 	mov	r3, #73	@ 0x49
    a600:	e59f2010 	ldr	r2, [pc, #16]	@ a618 <data_abort_full_except+0x68>
    a604:	e59f1010 	ldr	r1, [pc, #16]	@ a61c <data_abort_full_except+0x6c>
    a608:	e59f0014 	ldr	r0, [pc, #20]	@ a624 <data_abort_full_except+0x74>
    a60c:	eb0001e9 	bl	adb8 <printk>
    a610:	eb000305 	bl	b22c <clean_reboot>
    a614:	0000d034 	.word	0x0000d034
    a618:	0000ca9c 	.word	0x0000ca9c
    a61c:	0000c058 	.word	0x0000c058
    a620:	0000c0a4 	.word	0x0000c0a4
    a624:	0000c0dc 	.word	0x0000c0dc

0000a628 <syscall_full_except>:
    a628:	e92d4030 	push	{r4, r5, lr}
    a62c:	e24dd014 	sub	sp, sp, #20
    a630:	e1a05000 	mov	r5, r0
    a634:	e1a04002 	mov	r4, r2
    a638:	e1a00001 	mov	r0, r1
    a63c:	ebffff6b 	bl	a3f0 <mode_get>
    a640:	e3500010 	cmp	r0, #16
    a644:	1a00000b 	bne	a678 <syscall_full_except+0x50>
    a648:	e28d200c 	add	r2, sp, #12
    a64c:	e59f3078 	ldr	r3, [pc, #120]	@ a6cc <syscall_full_except+0xa4>
    a650:	e1520003 	cmp	r2, r3
    a654:	9a00000d 	bls	a690 <syscall_full_except+0x68>
    a658:	e59f3070 	ldr	r3, [pc, #112]	@ a6d0 <syscall_full_except+0xa8>
    a65c:	e5933008 	ldr	r3, [r3, #8]
    a660:	e3530000 	cmp	r3, #0
    a664:	0a000011 	beq	a6b0 <syscall_full_except+0x88>
    a668:	e1a00005 	mov	r0, r5
    a66c:	e12fff33 	blx	r3
    a670:	e28dd014 	add	sp, sp, #20
    a674:	e8bd8030 	pop	{r4, r5, pc}
    a678:	e3a03053 	mov	r3, #83	@ 0x53
    a67c:	e59f2050 	ldr	r2, [pc, #80]	@ a6d4 <syscall_full_except+0xac>
    a680:	e59f1050 	ldr	r1, [pc, #80]	@ a6d8 <syscall_full_except+0xb0>
    a684:	e59f0050 	ldr	r0, [pc, #80]	@ a6dc <syscall_full_except+0xb4>
    a688:	eb0001ca 	bl	adb8 <printk>
    a68c:	eb0002e6 	bl	b22c <clean_reboot>
    a690:	e59f3048 	ldr	r3, [pc, #72]	@ a6e0 <syscall_full_except+0xb8>
    a694:	e58d3000 	str	r3, [sp]
    a698:	e3a03058 	mov	r3, #88	@ 0x58
    a69c:	e59f2030 	ldr	r2, [pc, #48]	@ a6d4 <syscall_full_except+0xac>
    a6a0:	e59f1030 	ldr	r1, [pc, #48]	@ a6d8 <syscall_full_except+0xb0>
    a6a4:	e59f0038 	ldr	r0, [pc, #56]	@ a6e4 <syscall_full_except+0xbc>
    a6a8:	eb0001c2 	bl	adb8 <printk>
    a6ac:	eb0002de 	bl	b22c <clean_reboot>
    a6b0:	e58d4000 	str	r4, [sp]
    a6b4:	e3a0305d 	mov	r3, #93	@ 0x5d
    a6b8:	e59f2014 	ldr	r2, [pc, #20]	@ a6d4 <syscall_full_except+0xac>
    a6bc:	e59f1014 	ldr	r1, [pc, #20]	@ a6d8 <syscall_full_except+0xb0>
    a6c0:	e59f0020 	ldr	r0, [pc, #32]	@ a6e8 <syscall_full_except+0xc0>
    a6c4:	eb0001bb 	bl	adb8 <printk>
    a6c8:	eb0002d7 	bl	b22c <clean_reboot>
    a6cc:	000186a0 	.word	0x000186a0
    a6d0:	0000d034 	.word	0x0000d034
    a6d4:	0000cab4 	.word	0x0000cab4
    a6d8:	0000c058 	.word	0x0000c058
    a6dc:	0000c110 	.word	0x0000c110
    a6e0:	0000c190 	.word	0x0000c190
    a6e4:	0000c14c 	.word	0x0000c14c
    a6e8:	0000c1a8 	.word	0x0000c1a8

0000a6ec <full_except_set_prefetch>:
    a6ec:	e59f300c 	ldr	r3, [pc, #12]	@ a700 <full_except_set_prefetch+0x14>
    a6f0:	e5932000 	ldr	r2, [r3]
    a6f4:	e5830000 	str	r0, [r3]
    a6f8:	e1a00002 	mov	r0, r2
    a6fc:	e12fff1e 	bx	lr
    a700:	0000d034 	.word	0x0000d034

0000a704 <full_except_set_data_abort>:
    a704:	e59f300c 	ldr	r3, [pc, #12]	@ a718 <full_except_set_data_abort+0x14>
    a708:	e5932004 	ldr	r2, [r3, #4]
    a70c:	e5830004 	str	r0, [r3, #4]
    a710:	e1a00002 	mov	r0, r2
    a714:	e12fff1e 	bx	lr
    a718:	0000d034 	.word	0x0000d034

0000a71c <full_except_set_syscall>:
    a71c:	e59f300c 	ldr	r3, [pc, #12]	@ a730 <full_except_set_syscall+0x14>
    a720:	e5932008 	ldr	r2, [r3, #8]
    a724:	e5830008 	str	r0, [r3, #8]
    a728:	e1a00002 	mov	r0, r2
    a72c:	e12fff1e 	bx	lr
    a730:	0000d034 	.word	0x0000d034

0000a734 <full_except_install>:
    a734:	e52de004 	push	{lr}		@ (str lr, [sp, #-4]!)
    a738:	e24dd00c 	sub	sp, sp, #12
    a73c:	e3500000 	cmp	r0, #0
    a740:	1a000007 	bne	a764 <full_except_install+0x30>
    a744:	ee1c3f10 	mrc	15, 0, r3, cr12, cr0, {0}
    a748:	e3530000 	cmp	r3, #0
    a74c:	0a000007 	beq	a770 <full_except_install+0x3c>
    a750:	e59f2040 	ldr	r2, [pc, #64]	@ a798 <full_except_install+0x64>
    a754:	e1530002 	cmp	r3, r2
    a758:	1a000007 	bne	a77c <full_except_install+0x48>
    a75c:	e28dd00c 	add	sp, sp, #12
    a760:	e49df004 	pop	{pc}		@ (ldr pc, [sp], #4)
    a764:	e59f002c 	ldr	r0, [pc, #44]	@ a798 <full_except_install+0x64>
    a768:	ebffff38 	bl	a450 <vector_base_set>
    a76c:	eafffffa 	b	a75c <full_except_install+0x28>
    a770:	e59f0020 	ldr	r0, [pc, #32]	@ a798 <full_except_install+0x64>
    a774:	ebffff35 	bl	a450 <vector_base_set>
    a778:	eafffff7 	b	a75c <full_except_install+0x28>
    a77c:	e58d3000 	str	r3, [sp]
    a780:	e3a0308a 	mov	r3, #138	@ 0x8a
    a784:	e59f2010 	ldr	r2, [pc, #16]	@ a79c <full_except_install+0x68>
    a788:	e59f1010 	ldr	r1, [pc, #16]	@ a7a0 <full_except_install+0x6c>
    a78c:	e59f0010 	ldr	r0, [pc, #16]	@ a7a4 <full_except_install+0x70>
    a790:	eb000188 	bl	adb8 <printk>
    a794:	eb0002a4 	bl	b22c <clean_reboot>
    a798:	0000cdc0 	.word	0x0000cdc0
    a79c:	0000cac8 	.word	0x0000cac8
    a7a0:	0000c058 	.word	0x0000c058
    a7a4:	0000c1d8 	.word	0x0000c1d8

0000a7a8 <kmalloc_heap_end>:
    a7a8:	e59f3004 	ldr	r3, [pc, #4]	@ a7b4 <kmalloc_heap_end+0xc>
    a7ac:	e5930000 	ldr	r0, [r3]
    a7b0:	e12fff1e 	bx	lr
    a7b4:	0000d040 	.word	0x0000d040

0000a7b8 <kmalloc_heap_start>:
    a7b8:	e59f3004 	ldr	r3, [pc, #4]	@ a7c4 <kmalloc_heap_start+0xc>
    a7bc:	e5930004 	ldr	r0, [r3, #4]
    a7c0:	e12fff1e 	bx	lr
    a7c4:	0000d040 	.word	0x0000d040

0000a7c8 <kmalloc_heap_ptr>:
    a7c8:	e59f3004 	ldr	r3, [pc, #4]	@ a7d4 <kmalloc_heap_ptr+0xc>
    a7cc:	e5930008 	ldr	r0, [r3, #8]
    a7d0:	e12fff1e 	bx	lr
    a7d4:	0000d040 	.word	0x0000d040

0000a7d8 <kmalloc_init_set_start>:
    a7d8:	e92d4030 	push	{r4, r5, lr}
    a7dc:	e24dd00c 	sub	sp, sp, #12
    a7e0:	e1a04000 	mov	r4, r0
    a7e4:	e1a05001 	mov	r5, r1
    a7e8:	eb0002d6 	bl	b348 <program_end>
    a7ec:	e1540000 	cmp	r4, r0
    a7f0:	3a000010 	bcc	a838 <kmalloc_init_set_start+0x60>
    a7f4:	e3550000 	cmp	r5, #0
    a7f8:	0a000014 	beq	a850 <kmalloc_init_set_start+0x78>
    a7fc:	e59f30ac 	ldr	r3, [pc, #172]	@ a8b0 <kmalloc_init_set_start+0xd8>
    a800:	e5933004 	ldr	r3, [r3, #4]
    a804:	e1530004 	cmp	r3, r4
    a808:	8a000018 	bhi	a870 <kmalloc_init_set_start+0x98>
    a80c:	e59f309c 	ldr	r3, [pc, #156]	@ a8b0 <kmalloc_init_set_start+0xd8>
    a810:	e5933008 	ldr	r3, [r3, #8]
    a814:	e1530004 	cmp	r3, r4
    a818:	8a00001a 	bhi	a888 <kmalloc_init_set_start+0xb0>
    a81c:	e59f308c 	ldr	r3, [pc, #140]	@ a8b0 <kmalloc_init_set_start+0xd8>
    a820:	e5834008 	str	r4, [r3, #8]
    a824:	e5834004 	str	r4, [r3, #4]
    a828:	e0844005 	add	r4, r4, r5
    a82c:	e5834000 	str	r4, [r3]
    a830:	e28dd00c 	add	sp, sp, #12
    a834:	e8bd8030 	pop	{r4, r5, pc}
    a838:	e3a03030 	mov	r3, #48	@ 0x30
    a83c:	e59f2070 	ldr	r2, [pc, #112]	@ a8b4 <kmalloc_init_set_start+0xdc>
    a840:	e59f1070 	ldr	r1, [pc, #112]	@ a8b8 <kmalloc_init_set_start+0xe0>
    a844:	e59f0070 	ldr	r0, [pc, #112]	@ a8bc <kmalloc_init_set_start+0xe4>
    a848:	eb00015a 	bl	adb8 <printk>
    a84c:	eb000276 	bl	b22c <clean_reboot>
    a850:	e59f3068 	ldr	r3, [pc, #104]	@ a8c0 <kmalloc_init_set_start+0xe8>
    a854:	e58d3000 	str	r3, [sp]
    a858:	e3a03032 	mov	r3, #50	@ 0x32
    a85c:	e59f2050 	ldr	r2, [pc, #80]	@ a8b4 <kmalloc_init_set_start+0xdc>
    a860:	e59f1050 	ldr	r1, [pc, #80]	@ a8b8 <kmalloc_init_set_start+0xe0>
    a864:	e59f0058 	ldr	r0, [pc, #88]	@ a8c4 <kmalloc_init_set_start+0xec>
    a868:	eb000152 	bl	adb8 <printk>
    a86c:	eb00026e 	bl	b22c <clean_reboot>
    a870:	e3a03034 	mov	r3, #52	@ 0x34
    a874:	e59f2038 	ldr	r2, [pc, #56]	@ a8b4 <kmalloc_init_set_start+0xdc>
    a878:	e59f1038 	ldr	r1, [pc, #56]	@ a8b8 <kmalloc_init_set_start+0xe0>
    a87c:	e59f0044 	ldr	r0, [pc, #68]	@ a8c8 <kmalloc_init_set_start+0xf0>
    a880:	eb00014c 	bl	adb8 <printk>
    a884:	eb000268 	bl	b22c <clean_reboot>
    a888:	e59f3020 	ldr	r3, [pc, #32]	@ a8b0 <kmalloc_init_set_start+0xd8>
    a88c:	e5933000 	ldr	r3, [r3]
    a890:	e58d3004 	str	r3, [sp, #4]
    a894:	e58d4000 	str	r4, [sp]
    a898:	e3a03038 	mov	r3, #56	@ 0x38
    a89c:	e59f2010 	ldr	r2, [pc, #16]	@ a8b4 <kmalloc_init_set_start+0xdc>
    a8a0:	e59f1010 	ldr	r1, [pc, #16]	@ a8b8 <kmalloc_init_set_start+0xe0>
    a8a4:	e59f0020 	ldr	r0, [pc, #32]	@ a8cc <kmalloc_init_set_start+0xf4>
    a8a8:	eb000142 	bl	adb8 <printk>
    a8ac:	eb00025e 	bl	b22c <clean_reboot>
    a8b0:	0000d040 	.word	0x0000d040
    a8b4:	0000cadc 	.word	0x0000cadc
    a8b8:	0000c21c 	.word	0x0000c21c
    a8bc:	0000c228 	.word	0x0000c228
    a8c0:	0000c250 	.word	0x0000c250
    a8c4:	0000bb5c 	.word	0x0000bb5c
    a8c8:	0000c25c 	.word	0x0000c25c
    a8cc:	0000c2a8 	.word	0x0000c2a8

0000a8d0 <kmalloc_notzero>:
    a8d0:	e52de004 	push	{lr}		@ (str lr, [sp, #-4]!)
    a8d4:	e24dd00c 	sub	sp, sp, #12
    a8d8:	e3500000 	cmp	r0, #0
    a8dc:	0a00000f 	beq	a920 <kmalloc_notzero+0x50>
    a8e0:	e2800007 	add	r0, r0, #7
    a8e4:	e3c03007 	bic	r3, r0, #7
    a8e8:	e59f20b4 	ldr	r2, [pc, #180]	@ a9a4 <kmalloc_notzero+0xd4>
    a8ec:	e5920008 	ldr	r0, [r2, #8]
    a8f0:	e3100007 	tst	r0, #7
    a8f4:	1a000011 	bne	a940 <kmalloc_notzero+0x70>
    a8f8:	e3500000 	cmp	r0, #0
    a8fc:	0a000017 	beq	a960 <kmalloc_notzero+0x90>
    a900:	e0802003 	add	r2, r0, r3
    a904:	e59f1098 	ldr	r1, [pc, #152]	@ a9a4 <kmalloc_notzero+0xd4>
    a908:	e5812008 	str	r2, [r1, #8]
    a90c:	e5911000 	ldr	r1, [r1]
    a910:	e1520001 	cmp	r2, r1
    a914:	8a000019 	bhi	a980 <kmalloc_notzero+0xb0>
    a918:	e28dd00c 	add	sp, sp, #12
    a91c:	e49df004 	pop	{pc}		@ (ldr pc, [sp], #4)
    a920:	e59f3080 	ldr	r3, [pc, #128]	@ a9a8 <kmalloc_notzero+0xd8>
    a924:	e58d3000 	str	r3, [sp]
    a928:	e3a03041 	mov	r3, #65	@ 0x41
    a92c:	e59f2078 	ldr	r2, [pc, #120]	@ a9ac <kmalloc_notzero+0xdc>
    a930:	e59f1078 	ldr	r1, [pc, #120]	@ a9b0 <kmalloc_notzero+0xe0>
    a934:	e59f0078 	ldr	r0, [pc, #120]	@ a9b4 <kmalloc_notzero+0xe4>
    a938:	eb00011e 	bl	adb8 <printk>
    a93c:	eb00023a 	bl	b22c <clean_reboot>
    a940:	e59f3070 	ldr	r3, [pc, #112]	@ a9b8 <kmalloc_notzero+0xe8>
    a944:	e58d3000 	str	r3, [sp]
    a948:	e3a03044 	mov	r3, #68	@ 0x44
    a94c:	e59f2058 	ldr	r2, [pc, #88]	@ a9ac <kmalloc_notzero+0xdc>
    a950:	e59f1058 	ldr	r1, [pc, #88]	@ a9b0 <kmalloc_notzero+0xe0>
    a954:	e59f0058 	ldr	r0, [pc, #88]	@ a9b4 <kmalloc_notzero+0xe4>
    a958:	eb000116 	bl	adb8 <printk>
    a95c:	eb000232 	bl	b22c <clean_reboot>
    a960:	e59f3054 	ldr	r3, [pc, #84]	@ a9bc <kmalloc_notzero+0xec>
    a964:	e58d3000 	str	r3, [sp]
    a968:	e3a03047 	mov	r3, #71	@ 0x47
    a96c:	e59f2038 	ldr	r2, [pc, #56]	@ a9ac <kmalloc_notzero+0xdc>
    a970:	e59f1038 	ldr	r1, [pc, #56]	@ a9b0 <kmalloc_notzero+0xe0>
    a974:	e59f0038 	ldr	r0, [pc, #56]	@ a9b4 <kmalloc_notzero+0xe4>
    a978:	eb00010e 	bl	adb8 <printk>
    a97c:	eb00022a 	bl	b22c <clean_reboot>
    a980:	e0422001 	sub	r2, r2, r1
    a984:	e58d2004 	str	r2, [sp, #4]
    a988:	e58d3000 	str	r3, [sp]
    a98c:	e3a0304b 	mov	r3, #75	@ 0x4b
    a990:	e59f2014 	ldr	r2, [pc, #20]	@ a9ac <kmalloc_notzero+0xdc>
    a994:	e59f1014 	ldr	r1, [pc, #20]	@ a9b0 <kmalloc_notzero+0xe0>
    a998:	e59f0020 	ldr	r0, [pc, #32]	@ a9c0 <kmalloc_notzero+0xf0>
    a99c:	eb000105 	bl	adb8 <printk>
    a9a0:	eb000221 	bl	b22c <clean_reboot>
    a9a4:	0000d040 	.word	0x0000d040
    a9a8:	0000c254 	.word	0x0000c254
    a9ac:	0000caf4 	.word	0x0000caf4
    a9b0:	0000c21c 	.word	0x0000c21c
    a9b4:	0000bb5c 	.word	0x0000bb5c
    a9b8:	0000c2ec 	.word	0x0000c2ec
    a9bc:	0000c304 	.word	0x0000c304
    a9c0:	0000c30c 	.word	0x0000c30c

0000a9c4 <kmalloc>:
    a9c4:	e92d4030 	push	{r4, r5, lr}
    a9c8:	e24dd00c 	sub	sp, sp, #12
    a9cc:	e2504000 	subs	r4, r0, #0
    a9d0:	0a000008 	beq	a9f8 <kmalloc+0x34>
    a9d4:	e1a00004 	mov	r0, r4
    a9d8:	ebffffbc 	bl	a8d0 <kmalloc_notzero>
    a9dc:	e1a05000 	mov	r5, r0
    a9e0:	e1a02004 	mov	r2, r4
    a9e4:	e3a01000 	mov	r1, #0
    a9e8:	eb0000cc 	bl	ad20 <memset>
    a9ec:	e1a00005 	mov	r0, r5
    a9f0:	e28dd00c 	add	sp, sp, #12
    a9f4:	e8bd8030 	pop	{r4, r5, pc}
    a9f8:	e59f3018 	ldr	r3, [pc, #24]	@ aa18 <kmalloc+0x54>
    a9fc:	e58d3000 	str	r3, [sp]
    aa00:	e3a03053 	mov	r3, #83	@ 0x53
    aa04:	e59f2010 	ldr	r2, [pc, #16]	@ aa1c <kmalloc+0x58>
    aa08:	e59f1010 	ldr	r1, [pc, #16]	@ aa20 <kmalloc+0x5c>
    aa0c:	e59f0010 	ldr	r0, [pc, #16]	@ aa24 <kmalloc+0x60>
    aa10:	eb0000e8 	bl	adb8 <printk>
    aa14:	eb000204 	bl	b22c <clean_reboot>
    aa18:	0000c254 	.word	0x0000c254
    aa1c:	0000cb04 	.word	0x0000cb04
    aa20:	0000c21c 	.word	0x0000c21c
    aa24:	0000bb5c 	.word	0x0000bb5c

0000aa28 <kmalloc_aligned>:
    aa28:	e52de004 	push	{lr}		@ (str lr, [sp, #-4]!)
    aa2c:	e24dd00c 	sub	sp, sp, #12
    aa30:	e3500000 	cmp	r0, #0
    aa34:	0a000014 	beq	aa8c <kmalloc_aligned+0x64>
    aa38:	e2613000 	rsb	r3, r1, #0
    aa3c:	e1d13003 	bics	r3, r1, r3
    aa40:	1a000019 	bne	aaac <kmalloc_aligned+0x84>
    aa44:	e3510008 	cmp	r1, #8
    aa48:	33a01008 	movcc	r1, #8
    aa4c:	e59f30b8 	ldr	r3, [pc, #184]	@ ab0c <kmalloc_aligned+0xe4>
    aa50:	e5932008 	ldr	r2, [r3, #8]
    aa54:	e2613000 	rsb	r3, r1, #0
    aa58:	e1d1c003 	bics	ip, r1, r3
    aa5c:	1a00001a 	bne	aacc <kmalloc_aligned+0xa4>
    aa60:	e0822001 	add	r2, r2, r1
    aa64:	e2422001 	sub	r2, r2, #1
    aa68:	e0033002 	and	r3, r3, r2
    aa6c:	e2411001 	sub	r1, r1, #1
    aa70:	e1110003 	tst	r1, r3
    aa74:	1a00001c 	bne	aaec <kmalloc_aligned+0xc4>
    aa78:	e59f208c 	ldr	r2, [pc, #140]	@ ab0c <kmalloc_aligned+0xe4>
    aa7c:	e5823008 	str	r3, [r2, #8]
    aa80:	ebffffcf 	bl	a9c4 <kmalloc>
    aa84:	e28dd00c 	add	sp, sp, #12
    aa88:	e49df004 	pop	{pc}		@ (ldr pc, [sp], #4)
    aa8c:	e59f307c 	ldr	r3, [pc, #124]	@ ab10 <kmalloc_aligned+0xe8>
    aa90:	e58d3000 	str	r3, [sp]
    aa94:	e3a0305d 	mov	r3, #93	@ 0x5d
    aa98:	e59f2074 	ldr	r2, [pc, #116]	@ ab14 <kmalloc_aligned+0xec>
    aa9c:	e59f1074 	ldr	r1, [pc, #116]	@ ab18 <kmalloc_aligned+0xf0>
    aaa0:	e59f0074 	ldr	r0, [pc, #116]	@ ab1c <kmalloc_aligned+0xf4>
    aaa4:	eb0000c3 	bl	adb8 <printk>
    aaa8:	eb0001df 	bl	b22c <clean_reboot>
    aaac:	e59f306c 	ldr	r3, [pc, #108]	@ ab20 <kmalloc_aligned+0xf8>
    aab0:	e58d3000 	str	r3, [sp]
    aab4:	e3a0305e 	mov	r3, #94	@ 0x5e
    aab8:	e59f2054 	ldr	r2, [pc, #84]	@ ab14 <kmalloc_aligned+0xec>
    aabc:	e59f1054 	ldr	r1, [pc, #84]	@ ab18 <kmalloc_aligned+0xf0>
    aac0:	e59f005c 	ldr	r0, [pc, #92]	@ ab24 <kmalloc_aligned+0xfc>
    aac4:	eb0000bb 	bl	adb8 <printk>
    aac8:	eb0001d7 	bl	b22c <clean_reboot>
    aacc:	e59f3054 	ldr	r3, [pc, #84]	@ ab28 <kmalloc_aligned+0x100>
    aad0:	e58d3000 	str	r3, [sp]
    aad4:	e3a03011 	mov	r3, #17
    aad8:	e59f204c 	ldr	r2, [pc, #76]	@ ab2c <kmalloc_aligned+0x104>
    aadc:	e59f1034 	ldr	r1, [pc, #52]	@ ab18 <kmalloc_aligned+0xf0>
    aae0:	e59f0034 	ldr	r0, [pc, #52]	@ ab1c <kmalloc_aligned+0xf4>
    aae4:	eb0000b3 	bl	adb8 <printk>
    aae8:	eb0001cf 	bl	b22c <clean_reboot>
    aaec:	e59f303c 	ldr	r3, [pc, #60]	@ ab30 <kmalloc_aligned+0x108>
    aaf0:	e58d3000 	str	r3, [sp]
    aaf4:	e3a03065 	mov	r3, #101	@ 0x65
    aaf8:	e59f2014 	ldr	r2, [pc, #20]	@ ab14 <kmalloc_aligned+0xec>
    aafc:	e59f1014 	ldr	r1, [pc, #20]	@ ab18 <kmalloc_aligned+0xf0>
    ab00:	e59f002c 	ldr	r0, [pc, #44]	@ ab34 <kmalloc_aligned+0x10c>
    ab04:	eb0000ab 	bl	adb8 <printk>
    ab08:	eb0001c7 	bl	b22c <clean_reboot>
    ab0c:	0000d040 	.word	0x0000d040
    ab10:	0000c254 	.word	0x0000c254
    ab14:	0000cb0c 	.word	0x0000cb0c
    ab18:	0000c21c 	.word	0x0000c21c
    ab1c:	0000bb5c 	.word	0x0000bb5c
    ab20:	0000c394 	.word	0x0000c394
    ab24:	0000c354 	.word	0x0000c354
    ab28:	0000c3a8 	.word	0x0000c3a8
    ab2c:	0000cb1c 	.word	0x0000cb1c
    ab30:	0000c3ec 	.word	0x0000c3ec
    ab34:	0000c3b4 	.word	0x0000c3b4

0000ab38 <kfree_all>:
    ab38:	e59f3008 	ldr	r3, [pc, #8]	@ ab48 <kfree_all+0x10>
    ab3c:	e5932004 	ldr	r2, [r3, #4]
    ab40:	e5832008 	str	r2, [r3, #8]
    ab44:	e12fff1e 	bx	lr
    ab48:	0000d040 	.word	0x0000d040

0000ab4c <OR32>:
    ab4c:	e92d4070 	push	{r4, r5, r6, lr}
    ab50:	e1a05000 	mov	r5, r0
    ab54:	e1a04001 	mov	r4, r1
    ab58:	ebfff533 	bl	802c <GET32>
    ab5c:	e1804004 	orr	r4, r0, r4
    ab60:	e1a01004 	mov	r1, r4
    ab64:	e1a00005 	mov	r0, r5
    ab68:	ebfff52d 	bl	8024 <PUT32>
    ab6c:	e1a00004 	mov	r0, r4
    ab70:	e8bd8070 	pop	{r4, r5, r6, pc}

0000ab74 <uart_init>:
    ab74:	e92d4010 	push	{r4, lr}
    ab78:	eb000235 	bl	b454 <dev_barrier>
    ab7c:	e3a01002 	mov	r1, #2
    ab80:	e3a0000e 	mov	r0, #14
    ab84:	eb000268 	bl	b52c <gpio_set_function>
    ab88:	e3a01002 	mov	r1, #2
    ab8c:	e3a0000f 	mov	r0, #15
    ab90:	eb000265 	bl	b52c <gpio_set_function>
    ab94:	eb00022e 	bl	b454 <dev_barrier>
    ab98:	e3a01001 	mov	r1, #1
    ab9c:	e59f0058 	ldr	r0, [pc, #88]	@ abfc <uart_init+0x88>
    aba0:	ebffffe9 	bl	ab4c <OR32>
    aba4:	eb00022a 	bl	b454 <dev_barrier>
    aba8:	e59f4050 	ldr	r4, [pc, #80]	@ ac00 <uart_init+0x8c>
    abac:	e3a01000 	mov	r1, #0
    abb0:	e1a00004 	mov	r0, r4
    abb4:	ebfff51a 	bl	8024 <PUT32>
    abb8:	e3a01006 	mov	r1, #6
    abbc:	e59f0040 	ldr	r0, [pc, #64]	@ ac04 <uart_init+0x90>
    abc0:	ebfff517 	bl	8024 <PUT32>
    abc4:	e3a01003 	mov	r1, #3
    abc8:	e59f0038 	ldr	r0, [pc, #56]	@ ac08 <uart_init+0x94>
    abcc:	ebfff514 	bl	8024 <PUT32>
    abd0:	e59f1034 	ldr	r1, [pc, #52]	@ ac0c <uart_init+0x98>
    abd4:	e59f0034 	ldr	r0, [pc, #52]	@ ac10 <uart_init+0x9c>
    abd8:	ebfff511 	bl	8024 <PUT32>
    abdc:	e3a01000 	mov	r1, #0
    abe0:	e59f002c 	ldr	r0, [pc, #44]	@ ac14 <uart_init+0xa0>
    abe4:	ebfff50e 	bl	8024 <PUT32>
    abe8:	e3a01003 	mov	r1, #3
    abec:	e1a00004 	mov	r0, r4
    abf0:	ebfff50b 	bl	8024 <PUT32>
    abf4:	eb000216 	bl	b454 <dev_barrier>
    abf8:	e8bd8010 	pop	{r4, pc}
    abfc:	20215004 	.word	0x20215004
    ac00:	20215060 	.word	0x20215060
    ac04:	20215048 	.word	0x20215048
    ac08:	2021504c 	.word	0x2021504c
    ac0c:	0000010e 	.word	0x0000010e
    ac10:	20215068 	.word	0x20215068
    ac14:	20215044 	.word	0x20215044

0000ac18 <uart_tx_is_empty>:
    ac18:	e92d4010 	push	{r4, lr}
    ac1c:	e59f0008 	ldr	r0, [pc, #8]	@ ac2c <uart_tx_is_empty+0x14>
    ac20:	ebfff501 	bl	802c <GET32>
    ac24:	e2000040 	and	r0, r0, #64	@ 0x40
    ac28:	e8bd8010 	pop	{r4, pc}
    ac2c:	20215054 	.word	0x20215054

0000ac30 <uart_has_data>:
    ac30:	e92d4010 	push	{r4, lr}
    ac34:	e59f0008 	ldr	r0, [pc, #8]	@ ac44 <uart_has_data+0x14>
    ac38:	ebfff4fb 	bl	802c <GET32>
    ac3c:	e2000001 	and	r0, r0, #1
    ac40:	e8bd8010 	pop	{r4, pc}
    ac44:	20215064 	.word	0x20215064

0000ac48 <uart_get8>:
    ac48:	e92d4010 	push	{r4, lr}
    ac4c:	ebfffff7 	bl	ac30 <uart_has_data>
    ac50:	e3500000 	cmp	r0, #0
    ac54:	0afffffc 	beq	ac4c <uart_get8+0x4>
    ac58:	e59f000c 	ldr	r0, [pc, #12]	@ ac6c <uart_get8+0x24>
    ac5c:	ebfff4f2 	bl	802c <GET32>
    ac60:	e1a00b80 	lsl	r0, r0, #23
    ac64:	e1a00ba0 	lsr	r0, r0, #23
    ac68:	e8bd8010 	pop	{r4, pc}
    ac6c:	20215040 	.word	0x20215040

0000ac70 <uart_can_put8>:
    ac70:	e92d4010 	push	{r4, lr}
    ac74:	e59f0008 	ldr	r0, [pc, #8]	@ ac84 <uart_can_put8+0x14>
    ac78:	ebfff4eb 	bl	802c <GET32>
    ac7c:	e2000002 	and	r0, r0, #2
    ac80:	e8bd8010 	pop	{r4, pc}
    ac84:	20215064 	.word	0x20215064

0000ac88 <uart_put8>:
    ac88:	e92d4010 	push	{r4, lr}
    ac8c:	e1a04000 	mov	r4, r0
    ac90:	ebfffff6 	bl	ac70 <uart_can_put8>
    ac94:	e3500000 	cmp	r0, #0
    ac98:	0afffffc 	beq	ac90 <uart_put8+0x8>
    ac9c:	e1a01004 	mov	r1, r4
    aca0:	e59f0008 	ldr	r0, [pc, #8]	@ acb0 <uart_put8+0x28>
    aca4:	ebfff4de 	bl	8024 <PUT32>
    aca8:	e3a00001 	mov	r0, #1
    acac:	e8bd8010 	pop	{r4, pc}
    acb0:	20215040 	.word	0x20215040

0000acb4 <uart_get8_async>:
    acb4:	e92d4010 	push	{r4, lr}
    acb8:	ebffffdc 	bl	ac30 <uart_has_data>
    acbc:	e3500000 	cmp	r0, #0
    acc0:	0a000001 	beq	accc <uart_get8_async+0x18>
    acc4:	ebffffdf 	bl	ac48 <uart_get8>
    acc8:	e8bd8010 	pop	{r4, pc}
    accc:	e3e00000 	mvn	r0, #0
    acd0:	e8bd8010 	pop	{r4, pc}

0000acd4 <uart_flush_tx>:
    acd4:	e92d4010 	push	{r4, lr}
    acd8:	ea000000 	b	ace0 <uart_flush_tx+0xc>
    acdc:	eb0001f0 	bl	b4a4 <rpi_wait>
    ace0:	ebffffcc 	bl	ac18 <uart_tx_is_empty>
    ace4:	e3500000 	cmp	r0, #0
    ace8:	0afffffb 	beq	acdc <uart_flush_tx+0x8>
    acec:	e8bd8010 	pop	{r4, pc}

0000acf0 <uart_disable>:
    acf0:	e92d4010 	push	{r4, lr}
    acf4:	ebfffff6 	bl	acd4 <uart_flush_tx>
    acf8:	eb0001d5 	bl	b454 <dev_barrier>
    acfc:	e59f4018 	ldr	r4, [pc, #24]	@ ad1c <uart_disable+0x2c>
    ad00:	e1a00004 	mov	r0, r4
    ad04:	ebfff4c8 	bl	802c <GET32>
    ad08:	e3c01001 	bic	r1, r0, #1
    ad0c:	e1a00004 	mov	r0, r4
    ad10:	ebfff4c3 	bl	8024 <PUT32>
    ad14:	eb0001ce 	bl	b454 <dev_barrier>
    ad18:	e8bd8010 	pop	{r4, pc}
    ad1c:	20215004 	.word	0x20215004

0000ad20 <memset>:
    ad20:	e3520000 	cmp	r2, #0
    ad24:	012fff1e 	bxeq	lr
    ad28:	e3510000 	cmp	r1, #0
    ad2c:	1a000007 	bne	ad50 <memset+0x30>
    ad30:	e3100007 	tst	r0, #7
    ad34:	1a000001 	bne	ad40 <memset+0x20>
    ad38:	e3120007 	tst	r2, #7
    ad3c:	0a000005 	beq	ad58 <memset+0x38>
    ad40:	e3100003 	tst	r0, #3
    ad44:	1a000001 	bne	ad50 <memset+0x30>
    ad48:	e3120003 	tst	r2, #3
    ad4c:	0a00000d 	beq	ad88 <memset+0x68>
    ad50:	e0802002 	add	r2, r0, r2
    ad54:	ea000014 	b	adac <memset+0x8c>
    ad58:	e1a021a2 	lsr	r2, r2, #3
    ad5c:	ea000005 	b	ad78 <memset+0x58>
    ad60:	e1a03000 	mov	r3, r0
    ad64:	e1a02fc1 	asr	r2, r1, #31
    ad68:	e4831008 	str	r1, [r3], #8
    ad6c:	e5802004 	str	r2, [r0, #4]
    ad70:	e1a00003 	mov	r0, r3
    ad74:	e1a0200c 	mov	r2, ip
    ad78:	e242c001 	sub	ip, r2, #1
    ad7c:	e3520000 	cmp	r2, #0
    ad80:	1afffff6 	bne	ad60 <memset+0x40>
    ad84:	e12fff1e 	bx	lr
    ad88:	e1a02122 	lsr	r2, r2, #2
    ad8c:	ea000001 	b	ad98 <memset+0x78>
    ad90:	e4801004 	str	r1, [r0], #4
    ad94:	e1a02003 	mov	r2, r3
    ad98:	e2423001 	sub	r3, r2, #1
    ad9c:	e3520000 	cmp	r2, #0
    ada0:	1afffffa 	bne	ad90 <memset+0x70>
    ada4:	e12fff1e 	bx	lr
    ada8:	e4c01001 	strb	r1, [r0], #1
    adac:	e1500002 	cmp	r0, r2
    adb0:	3afffffc 	bcc	ada8 <memset+0x88>
    adb4:	e12fff1e 	bx	lr

0000adb8 <printk>:
    adb8:	e92d000f 	push	{r0, r1, r2, r3}
    adbc:	e52de004 	push	{lr}		@ (str lr, [sp, #-4]!)
    adc0:	e24dd00c 	sub	sp, sp, #12
    adc4:	e28d1014 	add	r1, sp, #20
    adc8:	e58d1004 	str	r1, [sp, #4]
    adcc:	e59d0010 	ldr	r0, [sp, #16]
    add0:	eb000047 	bl	aef4 <vprintk>
    add4:	e28dd00c 	add	sp, sp, #12
    add8:	e49de004 	pop	{lr}		@ (ldr lr, [sp], #4)
    addc:	e28dd010 	add	sp, sp, #16
    ade0:	e12fff1e 	bx	lr

0000ade4 <emit_val>:
    ade4:	e92d4010 	push	{r4, lr}
    ade8:	e24dd030 	sub	sp, sp, #48	@ 0x30
    adec:	e350000a 	cmp	r0, #10
    adf0:	0a00000d 	beq	ae2c <emit_val+0x48>
    adf4:	e3500010 	cmp	r0, #16
    adf8:	0a00001b 	beq	ae6c <emit_val+0x88>
    adfc:	e3500002 	cmp	r0, #2
    ae00:	1a000023 	bne	ae94 <emit_val+0xb0>
    ae04:	e28d400c 	add	r4, sp, #12
    ae08:	e2012001 	and	r2, r1, #1
    ae0c:	e59f00c0 	ldr	r0, [pc, #192]	@ aed4 <emit_val+0xf0>
    ae10:	e7d02002 	ldrb	r2, [r0, r2]
    ae14:	e5c42000 	strb	r2, [r4]
    ae18:	e2844001 	add	r4, r4, #1
    ae1c:	e3510001 	cmp	r1, #1
    ae20:	e1a010a1 	lsr	r1, r1, #1
    ae24:	8afffff7 	bhi	ae08 <emit_val+0x24>
    ae28:	ea000024 	b	aec0 <emit_val+0xdc>
    ae2c:	e28d400c 	add	r4, sp, #12
    ae30:	e59f30a0 	ldr	r3, [pc, #160]	@ aed8 <emit_val+0xf4>
    ae34:	e0832193 	umull	r2, r3, r3, r1
    ae38:	e1a031a3 	lsr	r3, r3, #3
    ae3c:	e1a00003 	mov	r0, r3
    ae40:	e0833103 	add	r3, r3, r3, lsl #2
    ae44:	e0413083 	sub	r3, r1, r3, lsl #1
    ae48:	e59fc08c 	ldr	ip, [pc, #140]	@ aedc <emit_val+0xf8>
    ae4c:	e7dcc003 	ldrb	ip, [ip, r3]
    ae50:	e5c4c000 	strb	ip, [r4]
    ae54:	e2844001 	add	r4, r4, #1
    ae58:	e1a03001 	mov	r3, r1
    ae5c:	e1a01000 	mov	r1, r0
    ae60:	e3530009 	cmp	r3, #9
    ae64:	8afffff1 	bhi	ae30 <emit_val+0x4c>
    ae68:	ea000014 	b	aec0 <emit_val+0xdc>
    ae6c:	e28d400c 	add	r4, sp, #12
    ae70:	e201200f 	and	r2, r1, #15
    ae74:	e59f0064 	ldr	r0, [pc, #100]	@ aee0 <emit_val+0xfc>
    ae78:	e7d02002 	ldrb	r2, [r0, r2]
    ae7c:	e5c42000 	strb	r2, [r4]
    ae80:	e2844001 	add	r4, r4, #1
    ae84:	e351000f 	cmp	r1, #15
    ae88:	e1a01221 	lsr	r1, r1, #4
    ae8c:	8afffff7 	bhi	ae70 <emit_val+0x8c>
    ae90:	ea00000a 	b	aec0 <emit_val+0xdc>
    ae94:	e58d0000 	str	r0, [sp]
    ae98:	e3a0301b 	mov	r3, #27
    ae9c:	e59f2040 	ldr	r2, [pc, #64]	@ aee4 <emit_val+0x100>
    aea0:	e59f1040 	ldr	r1, [pc, #64]	@ aee8 <emit_val+0x104>
    aea4:	e59f0040 	ldr	r0, [pc, #64]	@ aeec <emit_val+0x108>
    aea8:	ebffffc2 	bl	adb8 <printk>
    aeac:	eb0000de 	bl	b22c <clean_reboot>
    aeb0:	e59f3038 	ldr	r3, [pc, #56]	@ aef0 <emit_val+0x10c>
    aeb4:	e5933000 	ldr	r3, [r3]
    aeb8:	e5740001 	ldrb	r0, [r4, #-1]!
    aebc:	e12fff33 	blx	r3
    aec0:	e28d300c 	add	r3, sp, #12
    aec4:	e1540003 	cmp	r4, r3
    aec8:	8afffff8 	bhi	aeb0 <emit_val+0xcc>
    aecc:	e28dd030 	add	sp, sp, #48	@ 0x30
    aed0:	e8bd8010 	pop	{r4, pc}
    aed4:	0000c43c 	.word	0x0000c43c
    aed8:	cccccccd 	.word	0xcccccccd
    aedc:	0000c440 	.word	0x0000c440
    aee0:	0000c44c 	.word	0x0000c44c
    aee4:	0000cb3c 	.word	0x0000cb3c
    aee8:	0000c408 	.word	0x0000c408
    aeec:	0000c418 	.word	0x0000c418
    aef0:	0000cf50 	.word	0x0000cf50

0000aef4 <vprintk>:
    aef4:	e92d4030 	push	{r4, r5, lr}
    aef8:	e24dd014 	sub	sp, sp, #20
    aefc:	e1a04000 	mov	r4, r0
    af00:	e58d100c 	str	r1, [sp, #12]
    af04:	ea000003 	b	af18 <vprintk+0x24>
    af08:	e59f3238 	ldr	r3, [pc, #568]	@ b148 <vprintk+0x254>
    af0c:	e5933000 	ldr	r3, [r3]
    af10:	e12fff33 	blx	r3
    af14:	e2844001 	add	r4, r4, #1
    af18:	e5d40000 	ldrb	r0, [r4]
    af1c:	e3500000 	cmp	r0, #0
    af20:	0a000086 	beq	b140 <vprintk+0x24c>
    af24:	e3500025 	cmp	r0, #37	@ 0x25
    af28:	1afffff6 	bne	af08 <vprintk+0x14>
    af2c:	e2845001 	add	r5, r4, #1
    af30:	e5d42001 	ldrb	r2, [r4, #1]
    af34:	e2423062 	sub	r3, r2, #98	@ 0x62
    af38:	e59f120c 	ldr	r1, [pc, #524]	@ b14c <vprintk+0x258>
    af3c:	e3530016 	cmp	r3, #22
    af40:	8a000077 	bhi	b124 <vprintk+0x230>
    af44:	e7d13003 	ldrb	r3, [r1, r3]
    af48:	e08ff103 	add	pc, pc, r3, lsl #2
    af4c:	e320f000 	nop	{0}
    af50:	e59d300c 	ldr	r3, [sp, #12]
    af54:	e2832004 	add	r2, r3, #4
    af58:	e58d200c 	str	r2, [sp, #12]
    af5c:	e5931000 	ldr	r1, [r3]
    af60:	e3a00002 	mov	r0, #2
    af64:	ebffff9e 	bl	ade4 <emit_val>
    af68:	e1a04005 	mov	r4, r5
    af6c:	eaffffe8 	b	af14 <vprintk+0x20>
    af70:	e59d300c 	ldr	r3, [sp, #12]
    af74:	e2832004 	add	r2, r3, #4
    af78:	e58d200c 	str	r2, [sp, #12]
    af7c:	e5931000 	ldr	r1, [r3]
    af80:	e3a0000a 	mov	r0, #10
    af84:	ebffff96 	bl	ade4 <emit_val>
    af88:	e1a04005 	mov	r4, r5
    af8c:	eaffffe0 	b	af14 <vprintk+0x20>
    af90:	e59f31b0 	ldr	r3, [pc, #432]	@ b148 <vprintk+0x254>
    af94:	e5932000 	ldr	r2, [r3]
    af98:	e59d300c 	ldr	r3, [sp, #12]
    af9c:	e2831004 	add	r1, r3, #4
    afa0:	e58d100c 	str	r1, [sp, #12]
    afa4:	e5930000 	ldr	r0, [r3]
    afa8:	e12fff32 	blx	r2
    afac:	e1a04005 	mov	r4, r5
    afb0:	eaffffd7 	b	af14 <vprintk+0x20>
    afb4:	e2842002 	add	r2, r4, #2
    afb8:	e5d43002 	ldrb	r3, [r4, #2]
    afbc:	e353006c 	cmp	r3, #108	@ 0x6c
    afc0:	1a000018 	bne	b028 <vprintk+0x134>
    afc4:	e2845003 	add	r5, r4, #3
    afc8:	e5d43003 	ldrb	r3, [r4, #3]
    afcc:	e3530078 	cmp	r3, #120	@ 0x78
    afd0:	1a00001b 	bne	b044 <vprintk+0x150>
    afd4:	e59f416c 	ldr	r4, [pc, #364]	@ b148 <vprintk+0x254>
    afd8:	e5943000 	ldr	r3, [r4]
    afdc:	e3a00030 	mov	r0, #48	@ 0x30
    afe0:	e12fff33 	blx	r3
    afe4:	e5943000 	ldr	r3, [r4]
    afe8:	e3a00078 	mov	r0, #120	@ 0x78
    afec:	e12fff33 	blx	r3
    aff0:	e59d300c 	ldr	r3, [sp, #12]
    aff4:	e2833007 	add	r3, r3, #7
    aff8:	e3c33007 	bic	r3, r3, #7
    affc:	e2832008 	add	r2, r3, #8
    b000:	e58d200c 	str	r2, [sp, #12]
    b004:	e5934000 	ldr	r4, [r3]
    b008:	e5931004 	ldr	r1, [r3, #4]
    b00c:	e3510000 	cmp	r1, #0
    b010:	1a000012 	bne	b060 <vprintk+0x16c>
    b014:	e1a01004 	mov	r1, r4
    b018:	e3a00010 	mov	r0, #16
    b01c:	ebffff70 	bl	ade4 <emit_val>
    b020:	e1a04005 	mov	r4, r5
    b024:	eaffffba 	b	af14 <vprintk+0x20>
    b028:	e58d2000 	str	r2, [sp]
    b02c:	e3a0303b 	mov	r3, #59	@ 0x3b
    b030:	e59f2118 	ldr	r2, [pc, #280]	@ b150 <vprintk+0x25c>
    b034:	e59f1118 	ldr	r1, [pc, #280]	@ b154 <vprintk+0x260>
    b038:	e59f0118 	ldr	r0, [pc, #280]	@ b158 <vprintk+0x264>
    b03c:	ebffff5d 	bl	adb8 <printk>
    b040:	eb000079 	bl	b22c <clean_reboot>
    b044:	e58d5000 	str	r5, [sp]
    b048:	e3a0303e 	mov	r3, #62	@ 0x3e
    b04c:	e59f20fc 	ldr	r2, [pc, #252]	@ b150 <vprintk+0x25c>
    b050:	e59f10fc 	ldr	r1, [pc, #252]	@ b154 <vprintk+0x260>
    b054:	e59f00fc 	ldr	r0, [pc, #252]	@ b158 <vprintk+0x264>
    b058:	ebffff56 	bl	adb8 <printk>
    b05c:	eb000072 	bl	b22c <clean_reboot>
    b060:	e3a00010 	mov	r0, #16
    b064:	ebffff5e 	bl	ade4 <emit_val>
    b068:	eaffffe9 	b	b014 <vprintk+0x120>
    b06c:	e59f40d4 	ldr	r4, [pc, #212]	@ b148 <vprintk+0x254>
    b070:	e5943000 	ldr	r3, [r4]
    b074:	e3a00030 	mov	r0, #48	@ 0x30
    b078:	e12fff33 	blx	r3
    b07c:	e5943000 	ldr	r3, [r4]
    b080:	e3a00078 	mov	r0, #120	@ 0x78
    b084:	e12fff33 	blx	r3
    b088:	e59d300c 	ldr	r3, [sp, #12]
    b08c:	e2832004 	add	r2, r3, #4
    b090:	e58d200c 	str	r2, [sp, #12]
    b094:	e5931000 	ldr	r1, [r3]
    b098:	e3a00010 	mov	r0, #16
    b09c:	ebffff50 	bl	ade4 <emit_val>
    b0a0:	e1a04005 	mov	r4, r5
    b0a4:	eaffff9a 	b	af14 <vprintk+0x20>
    b0a8:	e59d300c 	ldr	r3, [sp, #12]
    b0ac:	e2832004 	add	r2, r3, #4
    b0b0:	e58d200c 	str	r2, [sp, #12]
    b0b4:	e5934000 	ldr	r4, [r3]
    b0b8:	e3540000 	cmp	r4, #0
    b0bc:	ba000004 	blt	b0d4 <vprintk+0x1e0>
    b0c0:	e1a01004 	mov	r1, r4
    b0c4:	e3a0000a 	mov	r0, #10
    b0c8:	ebffff45 	bl	ade4 <emit_val>
    b0cc:	e1a04005 	mov	r4, r5
    b0d0:	eaffff8f 	b	af14 <vprintk+0x20>
    b0d4:	e59f306c 	ldr	r3, [pc, #108]	@ b148 <vprintk+0x254>
    b0d8:	e5933000 	ldr	r3, [r3]
    b0dc:	e3a0002d 	mov	r0, #45	@ 0x2d
    b0e0:	e12fff33 	blx	r3
    b0e4:	e2644000 	rsb	r4, r4, #0
    b0e8:	eafffff4 	b	b0c0 <vprintk+0x1cc>
    b0ec:	e59d300c 	ldr	r3, [sp, #12]
    b0f0:	e2832004 	add	r2, r3, #4
    b0f4:	e58d200c 	str	r2, [sp, #12]
    b0f8:	e5934000 	ldr	r4, [r3]
    b0fc:	ea000003 	b	b110 <vprintk+0x21c>
    b100:	e59f3040 	ldr	r3, [pc, #64]	@ b148 <vprintk+0x254>
    b104:	e5933000 	ldr	r3, [r3]
    b108:	e12fff33 	blx	r3
    b10c:	e2844001 	add	r4, r4, #1
    b110:	e5d40000 	ldrb	r0, [r4]
    b114:	e3500000 	cmp	r0, #0
    b118:	1afffff8 	bne	b100 <vprintk+0x20c>
    b11c:	e1a04005 	mov	r4, r5
    b120:	eaffff7b 	b	af14 <vprintk+0x20>
    b124:	e58d2000 	str	r2, [sp]
    b128:	e3a03062 	mov	r3, #98	@ 0x62
    b12c:	e59f201c 	ldr	r2, [pc, #28]	@ b150 <vprintk+0x25c>
    b130:	e59f101c 	ldr	r1, [pc, #28]	@ b154 <vprintk+0x260>
    b134:	e59f0020 	ldr	r0, [pc, #32]	@ b15c <vprintk+0x268>
    b138:	ebffff1e 	bl	adb8 <printk>
    b13c:	eb00003a 	bl	b22c <clean_reboot>
    b140:	e28dd014 	add	sp, sp, #20
    b144:	e8bd8030 	pop	{r4, r5, pc}
    b148:	0000cf50 	.word	0x0000cf50
    b14c:	0000cb24 	.word	0x0000cb24
    b150:	0000cb48 	.word	0x0000cb48
    b154:	0000c408 	.word	0x0000c408
    b158:	0000c460 	.word	0x0000c460
    b15c:	0000c498 	.word	0x0000c498

0000b160 <default_putchar>:
    b160:	e92d4010 	push	{r4, lr}
    b164:	e1a04000 	mov	r4, r0
    b168:	e6ef0070 	uxtb	r0, r0
    b16c:	ebfffec5 	bl	ac88 <uart_put8>
    b170:	e1a00004 	mov	r0, r4
    b174:	e8bd8010 	pop	{r4, pc}

0000b178 <rpi_putchar_set>:
    b178:	e59f300c 	ldr	r3, [pc, #12]	@ b18c <rpi_putchar_set+0x14>
    b17c:	e5932000 	ldr	r2, [r3]
    b180:	e5830000 	str	r0, [r3]
    b184:	e1a00002 	mov	r0, r2
    b188:	e12fff1e 	bx	lr
    b18c:	0000cf50 	.word	0x0000cf50

0000b190 <asm_not_reached_helper>:
    b190:	e92d4010 	push	{r4, lr}
    b194:	e1a04000 	mov	r4, r0
    b198:	e59f0010 	ldr	r0, [pc, #16]	@ b1b0 <asm_not_reached_helper+0x20>
    b19c:	ebffff05 	bl	adb8 <printk>
    b1a0:	e1a01004 	mov	r1, r4
    b1a4:	e59f0008 	ldr	r0, [pc, #8]	@ b1b4 <asm_not_reached_helper+0x24>
    b1a8:	ebffff02 	bl	adb8 <printk>
    b1ac:	eb00001e 	bl	b22c <clean_reboot>
    b1b0:	0000c4c0 	.word	0x0000c4c0
    b1b4:	0000c4f4 	.word	0x0000c4f4

0000b1b8 <asm_not_implemented_helper>:
    b1b8:	e92d4010 	push	{r4, lr}
    b1bc:	e1a04000 	mov	r4, r0
    b1c0:	e59f0010 	ldr	r0, [pc, #16]	@ b1d8 <asm_not_implemented_helper+0x20>
    b1c4:	ebfffefb 	bl	adb8 <printk>
    b1c8:	e1a01004 	mov	r1, r4
    b1cc:	e59f0008 	ldr	r0, [pc, #8]	@ b1dc <asm_not_implemented_helper+0x24>
    b1d0:	ebfffef8 	bl	adb8 <printk>
    b1d4:	eb000014 	bl	b22c <clean_reboot>
    b1d8:	0000c528 	.word	0x0000c528
    b1dc:	0000c4f4 	.word	0x0000c4f4

0000b1e0 <asm_todo_helper>:
    b1e0:	e92d4010 	push	{r4, lr}
    b1e4:	e1a04001 	mov	r4, r1
    b1e8:	e59f0018 	ldr	r0, [pc, #24]	@ b208 <asm_todo_helper+0x28>
    b1ec:	ebfffef1 	bl	adb8 <printk>
    b1f0:	e59f0014 	ldr	r0, [pc, #20]	@ b20c <asm_todo_helper+0x2c>
    b1f4:	ebfffeef 	bl	adb8 <printk>
    b1f8:	e1a01004 	mov	r1, r4
    b1fc:	e59f000c 	ldr	r0, [pc, #12]	@ b210 <asm_todo_helper+0x30>
    b200:	ebfffeec 	bl	adb8 <printk>
    b204:	eb000008 	bl	b22c <clean_reboot>
    b208:	0000c554 	.word	0x0000c554
    b20c:	0000c58c 	.word	0x0000c58c
    b210:	0000c5c0 	.word	0x0000c5c0

0000b214 <asm_bad_exception_helper>:
    b214:	e92d4010 	push	{r4, lr}
    b218:	e1a02000 	mov	r2, r0
    b21c:	e59f0004 	ldr	r0, [pc, #4]	@ b228 <asm_bad_exception_helper+0x14>
    b220:	ebfffee4 	bl	adb8 <printk>
    b224:	eb000000 	bl	b22c <clean_reboot>
    b228:	0000c5c8 	.word	0x0000c5c8

0000b22c <clean_reboot>:
    b22c:	e92d4010 	push	{r4, lr}
    b230:	e59f0010 	ldr	r0, [pc, #16]	@ b248 <clean_reboot+0x1c>
    b234:	eb00011b 	bl	b6a8 <putk>
    b238:	ebfffea5 	bl	acd4 <uart_flush_tx>
    b23c:	e3a0000a 	mov	r0, #10
    b240:	eb0000ad 	bl	b4fc <delay_ms>
    b244:	eb000088 	bl	b46c <rpi_reboot>
    b248:	0000c5e8 	.word	0x0000c5e8

0000b24c <redzone_check>:
    b24c:	e92d4030 	push	{r4, r5, lr}
    b250:	e24dd00c 	sub	sp, sp, #12
    b254:	e2501000 	subs	r1, r0, #0
    b258:	0a000001 	beq	b264 <redzone_check+0x18>
    b25c:	e59f0070 	ldr	r0, [pc, #112]	@ b2d4 <redzone_check+0x88>
    b260:	ebfffed4 	bl	adb8 <printk>
    b264:	e3a04000 	mov	r4, #0
    b268:	e1a05004 	mov	r5, r4
    b26c:	ea000000 	b	b274 <redzone_check+0x28>
    b270:	e2844001 	add	r4, r4, #1
    b274:	e3540b01 	cmp	r4, #1024	@ 0x400
    b278:	2a000009 	bcs	b2a4 <redzone_check+0x58>
    b27c:	e1a01104 	lsl	r1, r4, #2
    b280:	e5913000 	ldr	r3, [r1]
    b284:	e3530000 	cmp	r3, #0
    b288:	0afffff8 	beq	b270 <redzone_check+0x24>
    b28c:	e2855001 	add	r5, r5, #1
    b290:	e5912000 	ldr	r2, [r1]
    b294:	e1a03005 	mov	r3, r5
    b298:	e59f0038 	ldr	r0, [pc, #56]	@ b2d8 <redzone_check+0x8c>
    b29c:	ebfffec5 	bl	adb8 <printk>
    b2a0:	eafffff2 	b	b270 <redzone_check+0x24>
    b2a4:	e3550000 	cmp	r5, #0
    b2a8:	1a000002 	bne	b2b8 <redzone_check+0x6c>
    b2ac:	e3a00001 	mov	r0, #1
    b2b0:	e28dd00c 	add	sp, sp, #12
    b2b4:	e8bd8030 	pop	{r4, r5, pc}
    b2b8:	e58d5000 	str	r5, [sp]
    b2bc:	e3a0301b 	mov	r3, #27
    b2c0:	e59f2014 	ldr	r2, [pc, #20]	@ b2dc <redzone_check+0x90>
    b2c4:	e59f1014 	ldr	r1, [pc, #20]	@ b2e0 <redzone_check+0x94>
    b2c8:	e59f0014 	ldr	r0, [pc, #20]	@ b2e4 <redzone_check+0x98>
    b2cc:	ebfffeb9 	bl	adb8 <printk>
    b2d0:	ebffffd5 	bl	b22c <clean_reboot>
    b2d4:	0000c5f4 	.word	0x0000c5f4
    b2d8:	0000c60c 	.word	0x0000c60c
    b2dc:	0000cb50 	.word	0x0000cb50
    b2e0:	0000c638 	.word	0x0000c638
    b2e4:	0000c680 	.word	0x0000c680

0000b2e8 <redzone_init>:
    b2e8:	e52de004 	push	{lr}		@ (str lr, [sp, #-4]!)
    b2ec:	e24dd00c 	sub	sp, sp, #12
    b2f0:	e3a02a01 	mov	r2, #4096	@ 0x1000
    b2f4:	e3a01000 	mov	r1, #0
    b2f8:	e1a00001 	mov	r0, r1
    b2fc:	ebfffe87 	bl	ad20 <memset>
    b300:	e3a00000 	mov	r0, #0
    b304:	ebffffd0 	bl	b24c <redzone_check>
    b308:	e3500000 	cmp	r0, #0
    b30c:	0a000001 	beq	b318 <redzone_init+0x30>
    b310:	e28dd00c 	add	sp, sp, #12
    b314:	e49df004 	pop	{pc}		@ (ldr pc, [sp], #4)
    b318:	e59f3018 	ldr	r3, [pc, #24]	@ b338 <redzone_init+0x50>
    b31c:	e58d3000 	str	r3, [sp]
    b320:	e3a03022 	mov	r3, #34	@ 0x22
    b324:	e59f2010 	ldr	r2, [pc, #16]	@ b33c <redzone_init+0x54>
    b328:	e59f1010 	ldr	r1, [pc, #16]	@ b340 <redzone_init+0x58>
    b32c:	e59f0010 	ldr	r0, [pc, #16]	@ b344 <redzone_init+0x5c>
    b330:	ebfffea0 	bl	adb8 <printk>
    b334:	ebffffbc 	bl	b22c <clean_reboot>
    b338:	0000c6b0 	.word	0x0000c6b0
    b33c:	0000cb60 	.word	0x0000cb60
    b340:	0000c638 	.word	0x0000c638
    b344:	0000bb5c 	.word	0x0000bb5c

0000b348 <program_end>:
    b348:	e59f0000 	ldr	r0, [pc]	@ b350 <program_end+0x8>
    b34c:	e12fff1e 	bx	lr
    b350:	0000d050 	.word	0x0000d050

0000b354 <_cstart>:
    b354:	e92d4010 	push	{r4, lr}
    b358:	e59f302c 	ldr	r3, [pc, #44]	@ b38c <_cstart+0x38>
    b35c:	ea000001 	b	b368 <_cstart+0x14>
    b360:	e3a02000 	mov	r2, #0
    b364:	e4c32001 	strb	r2, [r3], #1
    b368:	e59f2020 	ldr	r2, [pc, #32]	@ b390 <_cstart+0x3c>
    b36c:	e1530002 	cmp	r3, r2
    b370:	3afffffa 	bcc	b360 <_cstart+0xc>
    b374:	ebfffdfe 	bl	ab74 <uart_init>
    b378:	e3a03001 	mov	r3, #1
    b37c:	ee0f3f1c 	mcr	15, 0, r3, cr15, cr12, {0}
    b380:	ebffffd8 	bl	b2e8 <redzone_init>
    b384:	ebfff3df 	bl	8308 <notmain>
    b388:	ebffffa7 	bl	b22c <clean_reboot>
    b38c:	0000cf54 	.word	0x0000cf54
    b390:	0000d050 	.word	0x0000d050

0000b394 <int_vector>:
    b394:	e52de004 	push	{lr}		@ (str lr, [sp, #-4]!)
    b398:	e24dd00c 	sub	sp, sp, #12
    b39c:	e58d0000 	str	r0, [sp]
    b3a0:	e3a03003 	mov	r3, #3
    b3a4:	e59f200c 	ldr	r2, [pc, #12]	@ b3b8 <int_vector+0x24>
    b3a8:	e59f100c 	ldr	r1, [pc, #12]	@ b3bc <int_vector+0x28>
    b3ac:	e59f000c 	ldr	r0, [pc, #12]	@ b3c0 <int_vector+0x2c>
    b3b0:	ebfffe80 	bl	adb8 <printk>
    b3b4:	ebffff9c 	bl	b22c <clean_reboot>
    b3b8:	0000cb70 	.word	0x0000cb70
    b3bc:	0000c6c4 	.word	0x0000c6c4
    b3c0:	0000c6e8 	.word	0x0000c6e8

0000b3c4 <prefetch_abort_vector>:
    b3c4:	e52de004 	push	{lr}		@ (str lr, [sp, #-4]!)
    b3c8:	e24dd00c 	sub	sp, sp, #12
    b3cc:	e58d0000 	str	r0, [sp]
    b3d0:	e3a03003 	mov	r3, #3
    b3d4:	e59f200c 	ldr	r2, [pc, #12]	@ b3e8 <prefetch_abort_vector+0x24>
    b3d8:	e59f100c 	ldr	r1, [pc, #12]	@ b3ec <prefetch_abort_vector+0x28>
    b3dc:	e59f000c 	ldr	r0, [pc, #12]	@ b3f0 <prefetch_abort_vector+0x2c>
    b3e0:	ebfffe74 	bl	adb8 <printk>
    b3e4:	ebffff90 	bl	b22c <clean_reboot>
    b3e8:	0000cb7c 	.word	0x0000cb7c
    b3ec:	0000c714 	.word	0x0000c714
    b3f0:	0000c73c 	.word	0x0000c73c

0000b3f4 <reset_vector>:
    b3f4:	e52de004 	push	{lr}		@ (str lr, [sp, #-4]!)
    b3f8:	e24dd00c 	sub	sp, sp, #12
    b3fc:	e58d0000 	str	r0, [sp]
    b400:	e3a03003 	mov	r3, #3
    b404:	e59f200c 	ldr	r2, [pc, #12]	@ b418 <reset_vector+0x24>
    b408:	e59f100c 	ldr	r1, [pc, #12]	@ b41c <reset_vector+0x28>
    b40c:	e59f000c 	ldr	r0, [pc, #12]	@ b420 <reset_vector+0x2c>
    b410:	ebfffe68 	bl	adb8 <printk>
    b414:	ebffff84 	bl	b22c <clean_reboot>
    b418:	0000cb94 	.word	0x0000cb94
    b41c:	0000c76c 	.word	0x0000c76c
    b420:	0000c790 	.word	0x0000c790

0000b424 <undefined_instruction_vector>:
    b424:	e52de004 	push	{lr}		@ (str lr, [sp, #-4]!)
    b428:	e24dd00c 	sub	sp, sp, #12
    b42c:	e58d0000 	str	r0, [sp]
    b430:	e3a03003 	mov	r3, #3
    b434:	e59f200c 	ldr	r2, [pc, #12]	@ b448 <undefined_instruction_vector+0x24>
    b438:	e59f100c 	ldr	r1, [pc, #12]	@ b44c <undefined_instruction_vector+0x28>
    b43c:	e59f000c 	ldr	r0, [pc, #12]	@ b450 <undefined_instruction_vector+0x2c>
    b440:	ebfffe5c 	bl	adb8 <printk>
    b444:	ebffff78 	bl	b22c <clean_reboot>
    b448:	0000cba4 	.word	0x0000cba4
    b44c:	0000c7c4 	.word	0x0000c7c4
    b450:	0000c7f4 	.word	0x0000c7f4

0000b454 <dev_barrier>:
    b454:	ea000002 	b	b464 <dsb>

0000b458 <dmb>:
    b458:	e3a00000 	mov	r0, #0
    b45c:	ee070fba 	mcr	15, 0, r0, cr7, cr10, {5}
    b460:	e12fff1e 	bx	lr

0000b464 <dsb>:
    b464:	ee070f9a 	mcr	15, 0, r0, cr7, cr10, {4}
    b468:	e12fff1e 	bx	lr

0000b46c <rpi_reboot>:
    b46c:	e92d4010 	push	{r4, lr}
    b470:	e3a0000a 	mov	r0, #10
    b474:	eb000020 	bl	b4fc <delay_ms>
    b478:	e59f1014 	ldr	r1, [pc, #20]	@ b494 <rpi_reboot+0x28>
    b47c:	e59f0014 	ldr	r0, [pc, #20]	@ b498 <rpi_reboot+0x2c>
    b480:	ebfff2e7 	bl	8024 <PUT32>
    b484:	e59f1010 	ldr	r1, [pc, #16]	@ b49c <rpi_reboot+0x30>
    b488:	e59f0010 	ldr	r0, [pc, #16]	@ b4a0 <rpi_reboot+0x34>
    b48c:	ebfff2e4 	bl	8024 <PUT32>
    b490:	eafffffe 	b	b490 <rpi_reboot+0x24>
    b494:	5a000001 	.word	0x5a000001
    b498:	20100024 	.word	0x20100024
    b49c:	5a000020 	.word	0x5a000020
    b4a0:	2010001c 	.word	0x2010001c

0000b4a4 <rpi_wait>:
    b4a4:	e12fff1e 	bx	lr

0000b4a8 <timer_get_usec_raw>:
    b4a8:	e92d4010 	push	{r4, lr}
    b4ac:	e59f0004 	ldr	r0, [pc, #4]	@ b4b8 <timer_get_usec_raw+0x10>
    b4b0:	ebfff2dd 	bl	802c <GET32>
    b4b4:	e8bd8010 	pop	{r4, pc}
    b4b8:	20003004 	.word	0x20003004

0000b4bc <timer_get_usec>:
    b4bc:	e92d4010 	push	{r4, lr}
    b4c0:	ebffffe3 	bl	b454 <dev_barrier>
    b4c4:	ebfffff7 	bl	b4a8 <timer_get_usec_raw>
    b4c8:	e1a04000 	mov	r4, r0
    b4cc:	ebffffe0 	bl	b454 <dev_barrier>
    b4d0:	e1a00004 	mov	r0, r4
    b4d4:	e8bd8010 	pop	{r4, pc}

0000b4d8 <delay_us>:
    b4d8:	e92d4070 	push	{r4, r5, r6, lr}
    b4dc:	e1a05000 	mov	r5, r0
    b4e0:	ebfffff5 	bl	b4bc <timer_get_usec>
    b4e4:	e1a04000 	mov	r4, r0
    b4e8:	ebfffff3 	bl	b4bc <timer_get_usec>
    b4ec:	e0400004 	sub	r0, r0, r4
    b4f0:	e1500005 	cmp	r0, r5
    b4f4:	3afffffb 	bcc	b4e8 <delay_us+0x10>
    b4f8:	e8bd8070 	pop	{r4, r5, r6, pc}

0000b4fc <delay_ms>:
    b4fc:	e92d4010 	push	{r4, lr}
    b500:	e0603280 	rsb	r3, r0, r0, lsl #5
    b504:	e0800103 	add	r0, r0, r3, lsl #2
    b508:	e1a00180 	lsl	r0, r0, #3
    b50c:	ebfffff1 	bl	b4d8 <delay_us>
    b510:	e8bd8010 	pop	{r4, pc}

0000b514 <delay_sec>:
    b514:	e92d4010 	push	{r4, lr}
    b518:	e0603280 	rsb	r3, r0, r0, lsl #5
    b51c:	e0800103 	add	r0, r0, r3, lsl #2
    b520:	e1a00180 	lsl	r0, r0, #3
    b524:	ebfffff4 	bl	b4fc <delay_ms>
    b528:	e8bd8010 	pop	{r4, pc}

0000b52c <gpio_set_function>:
    b52c:	e350002f 	cmp	r0, #47	@ 0x2f
    b530:	1350001f 	cmpne	r0, #31
    b534:	812fff1e 	bxhi	lr
    b538:	e3510007 	cmp	r1, #7
    b53c:	812fff1e 	bxhi	lr
    b540:	e92d4070 	push	{r4, r5, r6, lr}
    b544:	e59f3044 	ldr	r3, [pc, #68]	@ b590 <gpio_set_function+0x64>
    b548:	e0832093 	umull	r2, r3, r3, r0
    b54c:	e1a031a3 	lsr	r3, r3, #3
    b550:	e1a02103 	lsl	r2, r3, #2
    b554:	e2825202 	add	r5, r2, #536870912	@ 0x20000000
    b558:	e2855602 	add	r5, r5, #2097152	@ 0x200000
    b55c:	e0822003 	add	r2, r2, r3
    b560:	e0400082 	sub	r0, r0, r2, lsl #1
    b564:	e0800080 	add	r0, r0, r0, lsl #1
    b568:	e1a04011 	lsl	r4, r1, r0
    b56c:	e3a06007 	mov	r6, #7
    b570:	e1a06016 	lsl	r6, r6, r0
    b574:	e1a00005 	mov	r0, r5
    b578:	ebfff2ab 	bl	802c <GET32>
    b57c:	e1c01006 	bic	r1, r0, r6
    b580:	e1841001 	orr	r1, r4, r1
    b584:	e1a00005 	mov	r0, r5
    b588:	ebfff2a5 	bl	8024 <PUT32>
    b58c:	e8bd8070 	pop	{r4, r5, r6, pc}
    b590:	cccccccd 	.word	0xcccccccd

0000b594 <gpio_set_output>:
    b594:	e92d4010 	push	{r4, lr}
    b598:	e3a01001 	mov	r1, #1
    b59c:	ebffffe2 	bl	b52c <gpio_set_function>
    b5a0:	e8bd8010 	pop	{r4, pc}

0000b5a4 <gpio_set_on>:
    b5a4:	e350002f 	cmp	r0, #47	@ 0x2f
    b5a8:	1350001f 	cmpne	r0, #31
    b5ac:	812fff1e 	bxhi	lr
    b5b0:	e92d4010 	push	{r4, lr}
    b5b4:	e350001f 	cmp	r0, #31
    b5b8:	8a000004 	bhi	b5d0 <gpio_set_on+0x2c>
    b5bc:	e3a01001 	mov	r1, #1
    b5c0:	e1a01011 	lsl	r1, r1, r0
    b5c4:	e59f001c 	ldr	r0, [pc, #28]	@ b5e8 <gpio_set_on+0x44>
    b5c8:	ebfff295 	bl	8024 <PUT32>
    b5cc:	e8bd8010 	pop	{r4, pc}
    b5d0:	e2400020 	sub	r0, r0, #32
    b5d4:	e3a01001 	mov	r1, #1
    b5d8:	e1a01011 	lsl	r1, r1, r0
    b5dc:	e59f0008 	ldr	r0, [pc, #8]	@ b5ec <gpio_set_on+0x48>
    b5e0:	ebfff28f 	bl	8024 <PUT32>
    b5e4:	e8bd8010 	pop	{r4, pc}
    b5e8:	2020001c 	.word	0x2020001c
    b5ec:	20200020 	.word	0x20200020

0000b5f0 <gpio_set_off>:
    b5f0:	e350002f 	cmp	r0, #47	@ 0x2f
    b5f4:	1350001f 	cmpne	r0, #31
    b5f8:	812fff1e 	bxhi	lr
    b5fc:	e92d4010 	push	{r4, lr}
    b600:	e350001f 	cmp	r0, #31
    b604:	8a000004 	bhi	b61c <gpio_set_off+0x2c>
    b608:	e3a01001 	mov	r1, #1
    b60c:	e1a01011 	lsl	r1, r1, r0
    b610:	e59f001c 	ldr	r0, [pc, #28]	@ b634 <gpio_set_off+0x44>
    b614:	ebfff282 	bl	8024 <PUT32>
    b618:	e8bd8010 	pop	{r4, pc}
    b61c:	e2400020 	sub	r0, r0, #32
    b620:	e3a01001 	mov	r1, #1
    b624:	e1a01011 	lsl	r1, r1, r0
    b628:	e59f0008 	ldr	r0, [pc, #8]	@ b638 <gpio_set_off+0x48>
    b62c:	ebfff27c 	bl	8024 <PUT32>
    b630:	e8bd8010 	pop	{r4, pc}
    b634:	20200028 	.word	0x20200028
    b638:	2020002c 	.word	0x2020002c

0000b63c <gpio_write>:
    b63c:	e92d4010 	push	{r4, lr}
    b640:	e3510000 	cmp	r1, #0
    b644:	0a000001 	beq	b650 <gpio_write+0x14>
    b648:	ebffffd5 	bl	b5a4 <gpio_set_on>
    b64c:	e8bd8010 	pop	{r4, pc}
    b650:	ebffffe6 	bl	b5f0 <gpio_set_off>
    b654:	e8bd8010 	pop	{r4, pc}

0000b658 <gpio_set_input>:
    b658:	e92d4010 	push	{r4, lr}
    b65c:	e3a01000 	mov	r1, #0
    b660:	ebffffb1 	bl	b52c <gpio_set_function>
    b664:	e8bd8010 	pop	{r4, pc}

0000b668 <gpio_read>:
    b668:	e92d4010 	push	{r4, lr}
    b66c:	e1a04000 	mov	r4, r0
    b670:	e350001f 	cmp	r0, #31
    b674:	8a000005 	bhi	b690 <gpio_read+0x28>
    b678:	e59f0020 	ldr	r0, [pc, #32]	@ b6a0 <gpio_read+0x38>
    b67c:	ebfff26a 	bl	802c <GET32>
    b680:	e3a03001 	mov	r3, #1
    b684:	e0000413 	and	r0, r0, r3, lsl r4
    b688:	e1a00430 	lsr	r0, r0, r4
    b68c:	e8bd8010 	pop	{r4, pc}
    b690:	e2404020 	sub	r4, r0, #32
    b694:	e59f0008 	ldr	r0, [pc, #8]	@ b6a4 <gpio_read+0x3c>
    b698:	ebfff263 	bl	802c <GET32>
    b69c:	eafffff7 	b	b680 <gpio_read+0x18>
    b6a0:	20200034 	.word	0x20200034
    b6a4:	20200038 	.word	0x20200038

0000b6a8 <putk>:
    b6a8:	e92d4010 	push	{r4, lr}
    b6ac:	e1a04000 	mov	r4, r0
    b6b0:	ea000003 	b	b6c4 <putk+0x1c>
    b6b4:	e59f301c 	ldr	r3, [pc, #28]	@ b6d8 <putk+0x30>
    b6b8:	e5933000 	ldr	r3, [r3]
    b6bc:	e12fff33 	blx	r3
    b6c0:	e2844001 	add	r4, r4, #1
    b6c4:	e5d40000 	ldrb	r0, [r4]
    b6c8:	e3500000 	cmp	r0, #0
    b6cc:	1afffff8 	bne	b6b4 <putk+0xc>
    b6d0:	e3a00001 	mov	r0, #1
    b6d4:	e8bd8010 	pop	{r4, pc}
    b6d8:	0000cf50 	.word	0x0000cf50

0000b6dc <__code_end__>:
    b6dc:	00000000 	.word	0x00000000
