
objs/tests/1-one-way-no-ack-4bytes.elf:     file format elf32-littlearm


Disassembly of section .text:

00008000 <__code_start__>:
    8000:	e3a00013 	mov	r0, #19
    8004:	e3800080 	orr	r0, r0, #128	@ 0x80
    8008:	e129f000 	msr	CPSR_fc, r0
    800c:	e3a01000 	mov	r1, #0
    8010:	ee071f95 	mcr	15, 0, r1, cr7, cr5, {4}
    8014:	e3a0d302 	mov	sp, #134217728	@ 0x8000000
    8018:	e3a0b000 	mov	fp, #0
    801c:	eb001205 	bl	c838 <_cstart>
    8020:	eb001221 	bl	c8ac <rpi_reboot>

00008024 <PUT32>:
    8024:	e5801000 	str	r1, [r0]
    8028:	e12fff1e 	bx	lr

0000802c <GET32>:
    802c:	e5900000 	ldr	r0, [r0]
    8030:	e12fff1e 	bx	lr

00008034 <BRANCHTO>:
    8034:	e12fff10 	bx	r0

00008038 <nrf_conf_mk>:
    8038:	e52de004 	push	{lr}		@ (str lr, [sp, #-4]!)
    803c:	e24dd00c 	sub	sp, sp, #12
    8040:	e35200ff 	cmp	r2, #255	@ 0xff
    8044:	8a00000c 	bhi	807c <nrf_conf_mk+0x44>
    8048:	e2413001 	sub	r3, r1, #1
    804c:	e353001f 	cmp	r3, #31
    8050:	8a000011 	bhi	809c <nrf_conf_mk+0x64>
    8054:	e3a03000 	mov	r3, #0
    8058:	e5c03000 	strb	r3, [r0]
    805c:	e5c03001 	strb	r3, [r0, #1]
    8060:	e5c03002 	strb	r3, [r0, #2]
    8064:	e5c03003 	strb	r3, [r0, #3]
    8068:	e5c03004 	strb	r3, [r0, #4]
    806c:	e5c01003 	strb	r1, [r0, #3]
    8070:	e5c02004 	strb	r2, [r0, #4]
    8074:	e28dd00c 	add	sp, sp, #12
    8078:	e49df004 	pop	{pc}		@ (ldr pc, [sp], #4)
    807c:	e59f3038 	ldr	r3, [pc, #56]	@ 80bc <nrf_conf_mk+0x84>
    8080:	e58d3000 	str	r3, [sp]
    8084:	e3a030ef 	mov	r3, #239	@ 0xef
    8088:	e59f2030 	ldr	r2, [pc, #48]	@ 80c0 <nrf_conf_mk+0x88>
    808c:	e59f1030 	ldr	r1, [pc, #48]	@ 80c4 <nrf_conf_mk+0x8c>
    8090:	e59f0030 	ldr	r0, [pc, #48]	@ 80c8 <nrf_conf_mk+0x90>
    8094:	eb0010a7 	bl	c338 <printk>
    8098:	eb00119c 	bl	c710 <clean_reboot>
    809c:	e59f3028 	ldr	r3, [pc, #40]	@ 80cc <nrf_conf_mk+0x94>
    80a0:	e58d3000 	str	r3, [sp]
    80a4:	e3a030f0 	mov	r3, #240	@ 0xf0
    80a8:	e59f2010 	ldr	r2, [pc, #16]	@ 80c0 <nrf_conf_mk+0x88>
    80ac:	e59f1010 	ldr	r1, [pc, #16]	@ 80c4 <nrf_conf_mk+0x8c>
    80b0:	e59f0010 	ldr	r0, [pc, #16]	@ 80c8 <nrf_conf_mk+0x90>
    80b4:	eb00109f 	bl	c338 <printk>
    80b8:	eb001194 	bl	c710 <clean_reboot>
    80bc:	0000cd38 	.word	0x0000cd38
    80c0:	0000e0f0 	.word	0x0000e0f0
    80c4:	0000cd00 	.word	0x0000cd00
    80c8:	0000cd08 	.word	0x0000cd08
    80cc:	0000cd4c 	.word	0x0000cd4c

000080d0 <parthiv_left>:
    80d0:	e92d4030 	push	{r4, r5, lr}
    80d4:	e24dd00c 	sub	sp, sp, #12
    80d8:	e1a04000 	mov	r4, r0
    80dc:	e1a0000d 	mov	r0, sp
    80e0:	ebffffd4 	bl	8038 <nrf_conf_mk>
    80e4:	e3a03000 	mov	r3, #0
    80e8:	e5cd3000 	strb	r3, [sp]
    80ec:	e3a03006 	mov	r3, #6
    80f0:	e5cd3001 	strb	r3, [sp, #1]
    80f4:	e3a03016 	mov	r3, #22
    80f8:	e5cd3002 	strb	r3, [sp, #2]
    80fc:	e3a02005 	mov	r2, #5
    8100:	e1a0100d 	mov	r1, sp
    8104:	e1a00004 	mov	r0, r4
    8108:	eb001039 	bl	c1f4 <memcpy>
    810c:	e1a00004 	mov	r0, r4
    8110:	e28dd00c 	add	sp, sp, #12
    8114:	e8bd8030 	pop	{r4, r5, pc}

00008118 <parthiv_right>:
    8118:	e92d4030 	push	{r4, r5, lr}
    811c:	e24dd00c 	sub	sp, sp, #12
    8120:	e1a04000 	mov	r4, r0
    8124:	e1a0000d 	mov	r0, sp
    8128:	ebffffc2 	bl	8038 <nrf_conf_mk>
    812c:	e3a03001 	mov	r3, #1
    8130:	e5cd3000 	strb	r3, [sp]
    8134:	e3a02005 	mov	r2, #5
    8138:	e5cd2001 	strb	r2, [sp, #1]
    813c:	e3a03017 	mov	r3, #23
    8140:	e5cd3002 	strb	r3, [sp, #2]
    8144:	e1a0100d 	mov	r1, sp
    8148:	e1a00004 	mov	r0, r4
    814c:	eb001028 	bl	c1f4 <memcpy>
    8150:	e1a00004 	mov	r0, r4
    8154:	e28dd00c 	add	sp, sp, #12
    8158:	e8bd8030 	pop	{r4, r5, pc}

0000815c <server_mk>:
    815c:	e92d4070 	push	{r4, r5, r6, lr}
    8160:	e24dd008 	sub	sp, sp, #8
    8164:	e1a05000 	mov	r5, r0
    8168:	e1a06002 	mov	r6, r2
    816c:	e3a02071 	mov	r2, #113	@ 0x71
    8170:	e1a0000d 	mov	r0, sp
    8174:	ebffffd5 	bl	80d0 <parthiv_left>
    8178:	e1a03006 	mov	r3, r6
    817c:	e1a02005 	mov	r2, r5
    8180:	e1cd00d0 	ldrd	r0, [sp]
    8184:	eb0007a0 	bl	a00c <nrf_init>
    8188:	e28dd008 	add	sp, sp, #8
    818c:	e8bd8070 	pop	{r4, r5, r6, pc}

00008190 <client_mk>:
    8190:	e92d4070 	push	{r4, r5, r6, lr}
    8194:	e24dd008 	sub	sp, sp, #8
    8198:	e1a05000 	mov	r5, r0
    819c:	e1a06002 	mov	r6, r2
    81a0:	e3a02071 	mov	r2, #113	@ 0x71
    81a4:	e1a0000d 	mov	r0, sp
    81a8:	ebffffda 	bl	8118 <parthiv_right>
    81ac:	e1a03006 	mov	r3, r6
    81b0:	e1a02005 	mov	r2, r5
    81b4:	e1cd00d0 	ldrd	r0, [sp]
    81b8:	eb000793 	bl	a00c <nrf_init>
    81bc:	e28dd008 	add	sp, sp, #8
    81c0:	e8bd8070 	pop	{r4, r5, r6, pc}

000081c4 <nrf_stat_start>:
    81c4:	e92d4010 	push	{r4, lr}
    81c8:	e1a04000 	mov	r4, r0
    81cc:	eb0011ca 	bl	c8fc <timer_get_usec>
    81d0:	e2843a02 	add	r3, r4, #8192	@ 0x2000
    81d4:	e583003c 	str	r0, [r3, #60]	@ 0x3c
    81d8:	e3a02000 	mov	r2, #0
    81dc:	e5832040 	str	r2, [r3, #64]	@ 0x40
    81e0:	e5832044 	str	r2, [r3, #68]	@ 0x44
    81e4:	e5832048 	str	r2, [r3, #72]	@ 0x48
    81e8:	e583204c 	str	r2, [r3, #76]	@ 0x4c
    81ec:	e5832050 	str	r2, [r3, #80]	@ 0x50
    81f0:	e5832054 	str	r2, [r3, #84]	@ 0x54
    81f4:	e8bd8010 	pop	{r4, pc}

000081f8 <one_way_noack>:
    81f8:	e92d43f0 	push	{r4, r5, r6, r7, r8, r9, lr}
    81fc:	e24dd014 	sub	sp, sp, #20
    8200:	e1a07000 	mov	r7, r0
    8204:	e1a05001 	mov	r5, r1
    8208:	e1a06002 	mov	r6, r2
    820c:	e5918020 	ldr	r8, [r1, #32]
    8210:	e3a04000 	mov	r4, #0
    8214:	e58d4008 	str	r4, [sp, #8]
    8218:	e1a09004 	mov	r9, r4
    821c:	ea000011 	b	8268 <one_way_noack+0x70>
    8220:	e3a03004 	mov	r3, #4
    8224:	e28d2008 	add	r2, sp, #8
    8228:	e1a01008 	mov	r1, r8
    822c:	e1a00007 	mov	r0, r7
    8230:	eb00062b 	bl	9ae4 <nrf_send_noack>
    8234:	e3a03ffa 	mov	r3, #1000	@ 0x3e8
    8238:	e3a02004 	mov	r2, #4
    823c:	e28d100c 	add	r1, sp, #12
    8240:	e1a00005 	mov	r0, r5
    8244:	eb0005ea 	bl	99f4 <nrf_read_exact_timeout>
    8248:	e3500004 	cmp	r0, #4
    824c:	0a000019 	beq	82b8 <one_way_noack+0xc0>
    8250:	e3560000 	cmp	r6, #0
    8254:	1a000028 	bne	82fc <one_way_noack+0x104>
    8258:	e2844001 	add	r4, r4, #1
    825c:	e59d3008 	ldr	r3, [sp, #8]
    8260:	e2833001 	add	r3, r3, #1
    8264:	e58d3008 	str	r3, [sp, #8]
    8268:	e59d3008 	ldr	r3, [sp, #8]
    826c:	e3530ffa 	cmp	r3, #1000	@ 0x3e8
    8270:	2a000027 	bcs	8314 <one_way_noack+0x11c>
    8274:	e3560000 	cmp	r6, #0
    8278:	13530000 	cmpne	r3, #0
    827c:	0affffe7 	beq	8220 <one_way_noack+0x28>
    8280:	e59fc0bc 	ldr	ip, [pc, #188]	@ 8344 <one_way_noack+0x14c>
    8284:	e08c239c 	umull	r2, ip, ip, r3
    8288:	e1a0c2ac 	lsr	ip, ip, #5
    828c:	e08cc10c 	add	ip, ip, ip, lsl #2
    8290:	e08cc10c 	add	ip, ip, ip, lsl #2
    8294:	e153010c 	cmp	r3, ip, lsl #2
    8298:	1affffe0 	bne	8220 <one_way_noack+0x28>
    829c:	e59f10a4 	ldr	r1, [pc, #164]	@ 8348 <one_way_noack+0x150>
    82a0:	e59f00a4 	ldr	r0, [pc, #164]	@ 834c <one_way_noack+0x154>
    82a4:	eb001023 	bl	c338 <printk>
    82a8:	e59d1008 	ldr	r1, [sp, #8]
    82ac:	e59f009c 	ldr	r0, [pc, #156]	@ 8350 <one_way_noack+0x158>
    82b0:	eb001020 	bl	c338 <printk>
    82b4:	eaffffd9 	b	8220 <one_way_noack+0x28>
    82b8:	e59d200c 	ldr	r2, [sp, #12]
    82bc:	e59d3008 	ldr	r3, [sp, #8]
    82c0:	e1520003 	cmp	r2, r3
    82c4:	1a000001 	bne	82d0 <one_way_noack+0xd8>
    82c8:	e2899001 	add	r9, r9, #1
    82cc:	eaffffe2 	b	825c <one_way_noack+0x64>
    82d0:	e59f007c 	ldr	r0, [pc, #124]	@ 8354 <one_way_noack+0x15c>
    82d4:	eb001017 	bl	c338 <printk>
    82d8:	e59d2008 	ldr	r2, [sp, #8]
    82dc:	e59d100c 	ldr	r1, [sp, #12]
    82e0:	e59f0070 	ldr	r0, [pc, #112]	@ 8358 <one_way_noack+0x160>
    82e4:	eb001013 	bl	c338 <printk>
    82e8:	e2852a02 	add	r2, r5, #8192	@ 0x2000
    82ec:	e592304c 	ldr	r3, [r2, #76]	@ 0x4c
    82f0:	e2833001 	add	r3, r3, #1
    82f4:	e582304c 	str	r3, [r2, #76]	@ 0x4c
    82f8:	eafffff2 	b	82c8 <one_way_noack+0xd0>
    82fc:	e59f0050 	ldr	r0, [pc, #80]	@ 8354 <one_way_noack+0x15c>
    8300:	eb00100c 	bl	c338 <printk>
    8304:	e59d1008 	ldr	r1, [sp, #8]
    8308:	e59f004c 	ldr	r0, [pc, #76]	@ 835c <one_way_noack+0x164>
    830c:	eb001009 	bl	c338 <printk>
    8310:	eaffffd0 	b	8258 <one_way_noack+0x60>
    8314:	e59f102c 	ldr	r1, [pc, #44]	@ 8348 <one_way_noack+0x150>
    8318:	e59f002c 	ldr	r0, [pc, #44]	@ 834c <one_way_noack+0x154>
    831c:	eb001005 	bl	c338 <printk>
    8320:	e2855a02 	add	r5, r5, #8192	@ 0x2000
    8324:	e58d4000 	str	r4, [sp]
    8328:	e1a03004 	mov	r3, r4
    832c:	e595204c 	ldr	r2, [r5, #76]	@ 0x4c
    8330:	e1a01009 	mov	r1, r9
    8334:	e59f0024 	ldr	r0, [pc, #36]	@ 8360 <one_way_noack+0x168>
    8338:	eb000ffe 	bl	c338 <printk>
    833c:	e28dd014 	add	sp, sp, #20
    8340:	e8bd83f0 	pop	{r4, r5, r6, r7, r8, r9, pc}
    8344:	51eb851f 	.word	0x51eb851f
    8348:	0000e0fc 	.word	0x0000e0fc
    834c:	0000cd68 	.word	0x0000cd68
    8350:	0000cd74 	.word	0x0000cd74
    8354:	0000cd90 	.word	0x0000cd90
    8358:	0000cd98 	.word	0x0000cd98
    835c:	0000cdc4 	.word	0x0000cdc4
    8360:	0000cde4 	.word	0x0000cde4

00008364 <notmain>:
    8364:	e92d4070 	push	{r4, r5, r6, lr}
    8368:	e3a01601 	mov	r1, #1048576	@ 0x100000
    836c:	e1a00001 	mov	r0, r1
    8370:	eb000cb2 	bl	b640 <kmalloc_init_set_start>
    8374:	e59f60e8 	ldr	r6, [pc, #232]	@ 8464 <notmain+0x100>
    8378:	e59f40e8 	ldr	r4, [pc, #232]	@ 8468 <notmain+0x104>
    837c:	e1a01006 	mov	r1, r6
    8380:	e1a00004 	mov	r0, r4
    8384:	eb000feb 	bl	c338 <printk>
    8388:	e59f50dc 	ldr	r5, [pc, #220]	@ 846c <notmain+0x108>
    838c:	e3a02004 	mov	r2, #4
    8390:	e1a01005 	mov	r1, r5
    8394:	e59f00d4 	ldr	r0, [pc, #212]	@ 8470 <notmain+0x10c>
    8398:	eb000fe6 	bl	c338 <printk>
    839c:	e3a02000 	mov	r2, #0
    83a0:	e3a01004 	mov	r1, #4
    83a4:	e1a00005 	mov	r0, r5
    83a8:	ebffff6b 	bl	815c <server_mk>
    83ac:	e1a05000 	mov	r5, r0
    83b0:	e1a01000 	mov	r1, r0
    83b4:	e59f00b8 	ldr	r0, [pc, #184]	@ 8474 <notmain+0x110>
    83b8:	eb0002e8 	bl	8f60 <nrf_dump>
    83bc:	e1a01006 	mov	r1, r6
    83c0:	e1a00004 	mov	r0, r4
    83c4:	eb000fdb 	bl	c338 <printk>
    83c8:	e59f40a8 	ldr	r4, [pc, #168]	@ 8478 <notmain+0x114>
    83cc:	e3a02004 	mov	r2, #4
    83d0:	e1a01004 	mov	r1, r4
    83d4:	e59f00a0 	ldr	r0, [pc, #160]	@ 847c <notmain+0x118>
    83d8:	eb000fd6 	bl	c338 <printk>
    83dc:	e3a02000 	mov	r2, #0
    83e0:	e3a01004 	mov	r1, #4
    83e4:	e1a00004 	mov	r0, r4
    83e8:	ebffff68 	bl	8190 <client_mk>
    83ec:	e1a04000 	mov	r4, r0
    83f0:	e1a01000 	mov	r1, r0
    83f4:	e59f0084 	ldr	r0, [pc, #132]	@ 8480 <notmain+0x11c>
    83f8:	eb0002d8 	bl	8f60 <nrf_dump>
    83fc:	e1a01005 	mov	r1, r5
    8400:	e1a00004 	mov	r0, r4
    8404:	eb000276 	bl	8de4 <nrf_compat>
    8408:	e3500000 	cmp	r0, #0
    840c:	0a00000e 	beq	844c <notmain+0xe8>
    8410:	e1a00005 	mov	r0, r5
    8414:	ebffff6a 	bl	81c4 <nrf_stat_start>
    8418:	e1a00004 	mov	r0, r4
    841c:	ebffff68 	bl	81c4 <nrf_stat_start>
    8420:	e3a02001 	mov	r2, #1
    8424:	e1a01004 	mov	r1, r4
    8428:	e1a00005 	mov	r0, r5
    842c:	ebffff71 	bl	81f8 <one_way_noack>
    8430:	e59f104c 	ldr	r1, [pc, #76]	@ 8484 <notmain+0x120>
    8434:	e1a00005 	mov	r0, r5
    8438:	eb000486 	bl	9658 <nrf_stat_print>
    843c:	e59f1044 	ldr	r1, [pc, #68]	@ 8488 <notmain+0x124>
    8440:	e1a00004 	mov	r0, r4
    8444:	eb000483 	bl	9658 <nrf_stat_print>
    8448:	e8bd8070 	pop	{r4, r5, r6, pc}
    844c:	e3a0303e 	mov	r3, #62	@ 0x3e
    8450:	e1a02006 	mov	r2, r6
    8454:	e59f1030 	ldr	r1, [pc, #48]	@ 848c <notmain+0x128>
    8458:	e59f0030 	ldr	r0, [pc, #48]	@ 8490 <notmain+0x12c>
    845c:	eb000fb5 	bl	c338 <printk>
    8460:	eb0010aa 	bl	c710 <clean_reboot>
    8464:	0000e10c 	.word	0x0000e10c
    8468:	0000cd68 	.word	0x0000cd68
    846c:	00d5d5d5 	.word	0x00d5d5d5
    8470:	0000ce28 	.word	0x0000ce28
    8474:	0000ce5c 	.word	0x0000ce5c
    8478:	00e5e5e5 	.word	0x00e5e5e5
    847c:	0000ce78 	.word	0x0000ce78
    8480:	0000ceac 	.word	0x0000ceac
    8484:	0000cf28 	.word	0x0000cf28
    8488:	0000cf48 	.word	0x0000cf48
    848c:	0000cec8 	.word	0x0000cec8
    8490:	0000cee8 	.word	0x0000cee8

00008494 <pretty_time_print>:
    8494:	e52de004 	push	{lr}		@ (str lr, [sp, #-4]!)
    8498:	e24dd014 	sub	sp, sp, #20
    849c:	e28d3010 	add	r3, sp, #16
    84a0:	e9030007 	stmdb	r3, {r0, r1, r2}
    84a4:	e3500000 	cmp	r0, #0
    84a8:	1a000007 	bne	84cc <pretty_time_print+0x38>
    84ac:	e59d1008 	ldr	r1, [sp, #8]
    84b0:	e3510000 	cmp	r1, #0
    84b4:	1a000008 	bne	84dc <pretty_time_print+0x48>
    84b8:	e59d100c 	ldr	r1, [sp, #12]
    84bc:	e3510000 	cmp	r1, #0
    84c0:	1a000008 	bne	84e8 <pretty_time_print+0x54>
    84c4:	e28dd014 	add	sp, sp, #20
    84c8:	e49df004 	pop	{pc}		@ (ldr pc, [sp], #4)
    84cc:	e1a01000 	mov	r1, r0
    84d0:	e59f001c 	ldr	r0, [pc, #28]	@ 84f4 <pretty_time_print+0x60>
    84d4:	eb000f97 	bl	c338 <printk>
    84d8:	eafffff3 	b	84ac <pretty_time_print+0x18>
    84dc:	e59f0014 	ldr	r0, [pc, #20]	@ 84f8 <pretty_time_print+0x64>
    84e0:	eb000f94 	bl	c338 <printk>
    84e4:	eafffff3 	b	84b8 <pretty_time_print+0x24>
    84e8:	e59f000c 	ldr	r0, [pc, #12]	@ 84fc <pretty_time_print+0x68>
    84ec:	eb000f91 	bl	c338 <printk>
    84f0:	eafffff3 	b	84c4 <pretty_time_print+0x30>
    84f4:	0000cf68 	.word	0x0000cf68
    84f8:	0000cf70 	.word	0x0000cf70
    84fc:	0000cf78 	.word	0x0000cf78

00008500 <bit_clr>:
    8500:	e351001f 	cmp	r1, #31
    8504:	8a000002 	bhi	8514 <bit_clr+0x14>
    8508:	e3a03001 	mov	r3, #1
    850c:	e1c00113 	bic	r0, r0, r3, lsl r1
    8510:	e12fff1e 	bx	lr
    8514:	e52de004 	push	{lr}		@ (str lr, [sp, #-4]!)
    8518:	e24dd00c 	sub	sp, sp, #12
    851c:	e59f3018 	ldr	r3, [pc, #24]	@ 853c <bit_clr+0x3c>
    8520:	e58d3000 	str	r3, [sp]
    8524:	e3a03008 	mov	r3, #8
    8528:	e59f2010 	ldr	r2, [pc, #16]	@ 8540 <bit_clr+0x40>
    852c:	e59f1010 	ldr	r1, [pc, #16]	@ 8544 <bit_clr+0x44>
    8530:	e59f0010 	ldr	r0, [pc, #16]	@ 8548 <bit_clr+0x48>
    8534:	eb000f7f 	bl	c338 <printk>
    8538:	eb001074 	bl	c710 <clean_reboot>
    853c:	0000cfcc 	.word	0x0000cfcc
    8540:	0000e118 	.word	0x0000e118
    8544:	0000cf80 	.word	0x0000cf80
    8548:	0000cd08 	.word	0x0000cd08

0000854c <bit_set>:
    854c:	e351001f 	cmp	r1, #31
    8550:	8a000002 	bhi	8560 <bit_set+0x14>
    8554:	e3a03001 	mov	r3, #1
    8558:	e1800113 	orr	r0, r0, r3, lsl r1
    855c:	e12fff1e 	bx	lr
    8560:	e52de004 	push	{lr}		@ (str lr, [sp, #-4]!)
    8564:	e24dd00c 	sub	sp, sp, #12
    8568:	e59f3018 	ldr	r3, [pc, #24]	@ 8588 <bit_set+0x3c>
    856c:	e58d3000 	str	r3, [sp]
    8570:	e3a0300f 	mov	r3, #15
    8574:	e59f2010 	ldr	r2, [pc, #16]	@ 858c <bit_set+0x40>
    8578:	e59f1010 	ldr	r1, [pc, #16]	@ 8590 <bit_set+0x44>
    857c:	e59f0010 	ldr	r0, [pc, #16]	@ 8594 <bit_set+0x48>
    8580:	eb000f6c 	bl	c338 <printk>
    8584:	eb001061 	bl	c710 <clean_reboot>
    8588:	0000cfcc 	.word	0x0000cfcc
    858c:	0000e120 	.word	0x0000e120
    8590:	0000cf80 	.word	0x0000cf80
    8594:	0000cd08 	.word	0x0000cd08

00008598 <bit_is_on>:
    8598:	e351001f 	cmp	r1, #31
    859c:	8a000002 	bhi	85ac <bit_is_on+0x14>
    85a0:	e1a00130 	lsr	r0, r0, r1
    85a4:	e2000001 	and	r0, r0, #1
    85a8:	e12fff1e 	bx	lr
    85ac:	e52de004 	push	{lr}		@ (str lr, [sp, #-4]!)
    85b0:	e24dd00c 	sub	sp, sp, #12
    85b4:	e59f3018 	ldr	r3, [pc, #24]	@ 85d4 <bit_is_on+0x3c>
    85b8:	e58d3000 	str	r3, [sp]
    85bc:	e3a0301f 	mov	r3, #31
    85c0:	e59f2010 	ldr	r2, [pc, #16]	@ 85d8 <bit_is_on+0x40>
    85c4:	e59f1010 	ldr	r1, [pc, #16]	@ 85dc <bit_is_on+0x44>
    85c8:	e59f0010 	ldr	r0, [pc, #16]	@ 85e0 <bit_is_on+0x48>
    85cc:	eb000f59 	bl	c338 <printk>
    85d0:	eb00104e 	bl	c710 <clean_reboot>
    85d4:	0000cfcc 	.word	0x0000cfcc
    85d8:	0000e128 	.word	0x0000e128
    85dc:	0000cf80 	.word	0x0000cf80
    85e0:	0000cd08 	.word	0x0000cd08

000085e4 <bits_mask>:
    85e4:	e3500020 	cmp	r0, #32
    85e8:	0a00000f 	beq	862c <bits_mask+0x48>
    85ec:	e350001f 	cmp	r0, #31
    85f0:	8a000003 	bhi	8604 <bits_mask+0x20>
    85f4:	e3a03001 	mov	r3, #1
    85f8:	e1a00013 	lsl	r0, r3, r0
    85fc:	e2400001 	sub	r0, r0, #1
    8600:	e12fff1e 	bx	lr
    8604:	e52de004 	push	{lr}		@ (str lr, [sp, #-4]!)
    8608:	e24dd00c 	sub	sp, sp, #12
    860c:	e59f3020 	ldr	r3, [pc, #32]	@ 8634 <bits_mask+0x50>
    8610:	e58d3000 	str	r3, [sp]
    8614:	e3a03033 	mov	r3, #51	@ 0x33
    8618:	e59f2018 	ldr	r2, [pc, #24]	@ 8638 <bits_mask+0x54>
    861c:	e59f1018 	ldr	r1, [pc, #24]	@ 863c <bits_mask+0x58>
    8620:	e59f0018 	ldr	r0, [pc, #24]	@ 8640 <bits_mask+0x5c>
    8624:	eb000f43 	bl	c338 <printk>
    8628:	eb001038 	bl	c710 <clean_reboot>
    862c:	e3e00000 	mvn	r0, #0
    8630:	e12fff1e 	bx	lr
    8634:	0000cfd4 	.word	0x0000cfd4
    8638:	0000e134 	.word	0x0000e134
    863c:	0000cf80 	.word	0x0000cf80
    8640:	0000cd08 	.word	0x0000cd08

00008644 <bits_get>:
    8644:	e92d4010 	push	{r4, lr}
    8648:	e24dd008 	sub	sp, sp, #8
    864c:	e1510002 	cmp	r1, r2
    8650:	8a000008 	bhi	8678 <bits_get+0x34>
    8654:	e352001f 	cmp	r2, #31
    8658:	8a00000e 	bhi	8698 <bits_get+0x54>
    865c:	e1a04130 	lsr	r4, r0, r1
    8660:	e0422001 	sub	r2, r2, r1
    8664:	e2820001 	add	r0, r2, #1
    8668:	ebffffdd 	bl	85e4 <bits_mask>
    866c:	e0000004 	and	r0, r0, r4
    8670:	e28dd008 	add	sp, sp, #8
    8674:	e8bd8010 	pop	{r4, pc}
    8678:	e59f3038 	ldr	r3, [pc, #56]	@ 86b8 <bits_get+0x74>
    867c:	e58d3000 	str	r3, [sp]
    8680:	e3a0303a 	mov	r3, #58	@ 0x3a
    8684:	e59f2030 	ldr	r2, [pc, #48]	@ 86bc <bits_get+0x78>
    8688:	e59f1030 	ldr	r1, [pc, #48]	@ 86c0 <bits_get+0x7c>
    868c:	e59f0030 	ldr	r0, [pc, #48]	@ 86c4 <bits_get+0x80>
    8690:	eb000f28 	bl	c338 <printk>
    8694:	eb00101d 	bl	c710 <clean_reboot>
    8698:	e59f3028 	ldr	r3, [pc, #40]	@ 86c8 <bits_get+0x84>
    869c:	e58d3000 	str	r3, [sp]
    86a0:	e3a0303b 	mov	r3, #59	@ 0x3b
    86a4:	e59f2010 	ldr	r2, [pc, #16]	@ 86bc <bits_get+0x78>
    86a8:	e59f1010 	ldr	r1, [pc, #16]	@ 86c0 <bits_get+0x7c>
    86ac:	e59f0010 	ldr	r0, [pc, #16]	@ 86c4 <bits_get+0x80>
    86b0:	eb000f20 	bl	c338 <printk>
    86b4:	eb001015 	bl	c710 <clean_reboot>
    86b8:	0000cfec 	.word	0x0000cfec
    86bc:	0000e140 	.word	0x0000e140
    86c0:	0000cf80 	.word	0x0000cf80
    86c4:	0000cd08 	.word	0x0000cd08
    86c8:	0000cff8 	.word	0x0000cff8

000086cc <pretty_print_usec>:
    86cc:	e92d4010 	push	{r4, lr}
    86d0:	e24dd010 	sub	sp, sp, #16
    86d4:	e1a04000 	mov	r4, r0
    86d8:	eb001087 	bl	c8fc <timer_get_usec>
    86dc:	e0400004 	sub	r0, r0, r4
    86e0:	e59f1054 	ldr	r1, [pc, #84]	@ 873c <pretty_print_usec+0x70>
    86e4:	e0813091 	umull	r3, r1, r1, r0
    86e8:	e1a01921 	lsr	r1, r1, #18
    86ec:	e0613281 	rsb	r3, r1, r1, lsl #5
    86f0:	e0632303 	rsb	r2, r3, r3, lsl #6
    86f4:	e0812182 	add	r2, r1, r2, lsl #3
    86f8:	e0402302 	sub	r2, r0, r2, lsl #6
    86fc:	e59f303c 	ldr	r3, [pc, #60]	@ 8740 <pretty_print_usec+0x74>
    8700:	e082c293 	umull	ip, r2, r3, r2
    8704:	e1a02322 	lsr	r2, r2, #6
    8708:	e083c093 	umull	ip, r3, r3, r0
    870c:	e1a03323 	lsr	r3, r3, #6
    8710:	e063c283 	rsb	ip, r3, r3, lsl #5
    8714:	e083310c 	add	r3, r3, ip, lsl #2
    8718:	e0403183 	sub	r3, r0, r3, lsl #3
    871c:	e58d1004 	str	r1, [sp, #4]
    8720:	e58d2008 	str	r2, [sp, #8]
    8724:	e58d300c 	str	r3, [sp, #12]
    8728:	e28d3010 	add	r3, sp, #16
    872c:	e9130007 	ldmdb	r3, {r0, r1, r2}
    8730:	ebffff57 	bl	8494 <pretty_time_print>
    8734:	e28dd010 	add	sp, sp, #16
    8738:	e8bd8010 	pop	{r4, pc}
    873c:	431bde83 	.word	0x431bde83
    8740:	10624dd3 	.word	0x10624dd3

00008744 <nrf_set_verbose>:
    8744:	e59f3004 	ldr	r3, [pc, #4]	@ 8750 <nrf_set_verbose+0xc>
    8748:	e5830000 	str	r0, [r3]
    874c:	e12fff1e 	bx	lr
    8750:	0000e380 	.word	0x0000e380

00008754 <nrf_spi_init>:
    8754:	e92d4070 	push	{r4, r5, r6, lr}
    8758:	e24dd008 	sub	sp, sp, #8
    875c:	e1a05000 	mov	r5, r0
    8760:	e1a06001 	mov	r6, r1
    8764:	e1a04002 	mov	r4, r2
    8768:	e3a00064 	mov	r0, #100	@ 0x64
    876c:	eb001072 	bl	c93c <delay_ms>
    8770:	e3540001 	cmp	r4, #1
    8774:	8a000013 	bhi	87c8 <nrf_spi_init+0x74>
    8778:	e3a02014 	mov	r2, #20
    877c:	e1a01004 	mov	r1, r4
    8780:	e1a00005 	mov	r0, r5
    8784:	eb000d6b 	bl	bd38 <spi_n_init>
    8788:	e5953000 	ldr	r3, [r5]
    878c:	e1530004 	cmp	r3, r4
    8790:	1a000014 	bne	87e8 <nrf_spi_init+0x94>
    8794:	e3a00064 	mov	r0, #100	@ 0x64
    8798:	eb001067 	bl	c93c <delay_ms>
    879c:	eb00103c 	bl	c894 <dev_barrier>
    87a0:	e1a00006 	mov	r0, r6
    87a4:	eb000e2f 	bl	c068 <gpio_set_output>
    87a8:	e1a00006 	mov	r0, r6
    87ac:	eb0010b6 	bl	ca8c <gpio_set_pulldown>
    87b0:	e1a00006 	mov	r0, r6
    87b4:	eb000e42 	bl	c0c4 <gpio_set_off>
    87b8:	eb001035 	bl	c894 <dev_barrier>
    87bc:	e1a00005 	mov	r0, r5
    87c0:	e28dd008 	add	sp, sp, #8
    87c4:	e8bd8070 	pop	{r4, r5, r6, pc}
    87c8:	e59f3038 	ldr	r3, [pc, #56]	@ 8808 <nrf_spi_init+0xb4>
    87cc:	e58d3000 	str	r3, [sp]
    87d0:	e3a03018 	mov	r3, #24
    87d4:	e59f2030 	ldr	r2, [pc, #48]	@ 880c <nrf_spi_init+0xb8>
    87d8:	e59f1030 	ldr	r1, [pc, #48]	@ 8810 <nrf_spi_init+0xbc>
    87dc:	e59f0030 	ldr	r0, [pc, #48]	@ 8814 <nrf_spi_init+0xc0>
    87e0:	eb000ed4 	bl	c338 <printk>
    87e4:	eb000fc9 	bl	c710 <clean_reboot>
    87e8:	e59f3028 	ldr	r3, [pc, #40]	@ 8818 <nrf_spi_init+0xc4>
    87ec:	e58d3000 	str	r3, [sp]
    87f0:	e3a0301f 	mov	r3, #31
    87f4:	e59f2010 	ldr	r2, [pc, #16]	@ 880c <nrf_spi_init+0xb8>
    87f8:	e59f1010 	ldr	r1, [pc, #16]	@ 8810 <nrf_spi_init+0xbc>
    87fc:	e59f0010 	ldr	r0, [pc, #16]	@ 8814 <nrf_spi_init+0xc0>
    8800:	eb000ecc 	bl	c338 <printk>
    8804:	eb000fc1 	bl	c710 <clean_reboot>
    8808:	0000d014 	.word	0x0000d014
    880c:	0000e14c 	.word	0x0000e14c
    8810:	0000d000 	.word	0x0000d000
    8814:	0000cd08 	.word	0x0000cd08
    8818:	0000d034 	.word	0x0000d034

0000881c <nrf_get8>:
    881c:	e52de004 	push	{lr}		@ (str lr, [sp, #-4]!)
    8820:	e24dd024 	sub	sp, sp, #36	@ 0x24
    8824:	e1a03000 	mov	r3, r0
    8828:	e5cd1018 	strb	r1, [sp, #24]
    882c:	e3e02000 	mvn	r2, #0
    8830:	e5cd2019 	strb	r2, [sp, #25]
    8834:	e3a02002 	mov	r2, #2
    8838:	e58d2010 	str	r2, [sp, #16]
    883c:	e28d2018 	add	r2, sp, #24
    8840:	e58d200c 	str	r2, [sp, #12]
    8844:	e28d201c 	add	r2, sp, #28
    8848:	e58d2008 	str	r2, [sp, #8]
    884c:	e2802018 	add	r2, r0, #24
    8850:	e8920003 	ldm	r2, {r0, r1}
    8854:	e88d0003 	stm	sp, {r0, r1}
    8858:	e2830008 	add	r0, r3, #8
    885c:	e890000f 	ldm	r0, {r0, r1, r2, r3}
    8860:	eb000d0b 	bl	bc94 <spi_n_transfer>
    8864:	e5dd001d 	ldrb	r0, [sp, #29]
    8868:	e28dd024 	add	sp, sp, #36	@ 0x24
    886c:	e49df004 	pop	{pc}		@ (ldr pc, [sp], #4)

00008870 <nrf_put8>:
    8870:	e52de004 	push	{lr}		@ (str lr, [sp, #-4]!)
    8874:	e24dd024 	sub	sp, sp, #36	@ 0x24
    8878:	e1a03000 	mov	r3, r0
    887c:	e3811020 	orr	r1, r1, #32
    8880:	e5cd1018 	strb	r1, [sp, #24]
    8884:	e5cd2019 	strb	r2, [sp, #25]
    8888:	e3a02002 	mov	r2, #2
    888c:	e58d2010 	str	r2, [sp, #16]
    8890:	e28d2018 	add	r2, sp, #24
    8894:	e58d200c 	str	r2, [sp, #12]
    8898:	e28d201c 	add	r2, sp, #28
    889c:	e58d2008 	str	r2, [sp, #8]
    88a0:	e2802018 	add	r2, r0, #24
    88a4:	e8920003 	ldm	r2, {r0, r1}
    88a8:	e88d0003 	stm	sp, {r0, r1}
    88ac:	e2830008 	add	r0, r3, #8
    88b0:	e890000f 	ldm	r0, {r0, r1, r2, r3}
    88b4:	eb000cf6 	bl	bc94 <spi_n_transfer>
    88b8:	e5dd001c 	ldrb	r0, [sp, #28]
    88bc:	e28dd024 	add	sp, sp, #36	@ 0x24
    88c0:	e49df004 	pop	{pc}		@ (ldr pc, [sp], #4)

000088c4 <nrf_put8_chk_helper>:
    88c4:	e92d40f0 	push	{r4, r5, r6, r7, lr}
    88c8:	e24dd014 	sub	sp, sp, #20
    88cc:	e28dc010 	add	ip, sp, #16
    88d0:	e90c0007 	stmdb	ip, {r0, r1, r2}
    88d4:	e1a04003 	mov	r4, r3
    88d8:	e5dd6028 	ldrb	r6, [sp, #40]	@ 0x28
    88dc:	e5dd702c 	ldrb	r7, [sp, #44]	@ 0x2c
    88e0:	e1a02007 	mov	r2, r7
    88e4:	e1a01006 	mov	r1, r6
    88e8:	e1a00003 	mov	r0, r3
    88ec:	ebffffdf 	bl	8870 <nrf_put8>
    88f0:	e1a05000 	mov	r5, r0
    88f4:	e1a01006 	mov	r1, r6
    88f8:	e1a00004 	mov	r0, r4
    88fc:	ebffffc6 	bl	881c <nrf_get8>
    8900:	e1570000 	cmp	r7, r0
    8904:	1a000002 	bne	8914 <nrf_put8_chk_helper+0x50>
    8908:	e1a00005 	mov	r0, r5
    890c:	e28dd014 	add	sp, sp, #20
    8910:	e8bd80f0 	pop	{r4, r5, r6, r7, pc}
    8914:	e1a04000 	mov	r4, r0
    8918:	e59d300c 	ldr	r3, [sp, #12]
    891c:	e59d2008 	ldr	r2, [sp, #8]
    8920:	e59d1004 	ldr	r1, [sp, #4]
    8924:	e59f0018 	ldr	r0, [pc, #24]	@ 8944 <nrf_put8_chk_helper+0x80>
    8928:	eb000e82 	bl	c338 <printk>
    892c:	e1a03007 	mov	r3, r7
    8930:	e1a02004 	mov	r2, r4
    8934:	e1a01006 	mov	r1, r6
    8938:	e59f0008 	ldr	r0, [pc, #8]	@ 8948 <nrf_put8_chk_helper+0x84>
    893c:	eb000e7d 	bl	c338 <printk>
    8940:	eb000f72 	bl	c710 <clean_reboot>
    8944:	0000d048 	.word	0x0000d048
    8948:	0000d060 	.word	0x0000d060

0000894c <nrf_getn>:
    894c:	e92d4070 	push	{r4, r5, r6, lr}
    8950:	e24dd098 	sub	sp, sp, #152	@ 0x98
    8954:	e3530040 	cmp	r3, #64	@ 0x40
    8958:	8a00001c 	bhi	89d0 <nrf_getn+0x84>
    895c:	e1a05000 	mov	r5, r0
    8960:	e1a06002 	mov	r6, r2
    8964:	e1a04003 	mov	r4, r3
    8968:	e3530000 	cmp	r3, #0
    896c:	0a00001f 	beq	89f0 <nrf_getn+0xa4>
    8970:	e5cd1018 	strb	r1, [sp, #24]
    8974:	e1a02003 	mov	r2, r3
    8978:	e3a010ff 	mov	r1, #255	@ 0xff
    897c:	e28d0019 	add	r0, sp, #25
    8980:	eb000e46 	bl	c2a0 <memset>
    8984:	e2843001 	add	r3, r4, #1
    8988:	e58d3010 	str	r3, [sp, #16]
    898c:	e28d3018 	add	r3, sp, #24
    8990:	e58d300c 	str	r3, [sp, #12]
    8994:	e28d3058 	add	r3, sp, #88	@ 0x58
    8998:	e58d3008 	str	r3, [sp, #8]
    899c:	e2853018 	add	r3, r5, #24
    89a0:	e8930003 	ldm	r3, {r0, r1}
    89a4:	e88d0003 	stm	sp, {r0, r1}
    89a8:	e2850008 	add	r0, r5, #8
    89ac:	e890000f 	ldm	r0, {r0, r1, r2, r3}
    89b0:	eb000cb7 	bl	bc94 <spi_n_transfer>
    89b4:	e1a02004 	mov	r2, r4
    89b8:	e28d1059 	add	r1, sp, #89	@ 0x59
    89bc:	e1a00006 	mov	r0, r6
    89c0:	eb000e0b 	bl	c1f4 <memcpy>
    89c4:	e5dd0058 	ldrb	r0, [sp, #88]	@ 0x58
    89c8:	e28dd098 	add	sp, sp, #152	@ 0x98
    89cc:	e8bd8070 	pop	{r4, r5, r6, pc}
    89d0:	e59f3038 	ldr	r3, [pc, #56]	@ 8a10 <nrf_getn+0xc4>
    89d4:	e58d3000 	str	r3, [sp]
    89d8:	e3a0306b 	mov	r3, #107	@ 0x6b
    89dc:	e59f2030 	ldr	r2, [pc, #48]	@ 8a14 <nrf_getn+0xc8>
    89e0:	e59f1030 	ldr	r1, [pc, #48]	@ 8a18 <nrf_getn+0xcc>
    89e4:	e59f0030 	ldr	r0, [pc, #48]	@ 8a1c <nrf_getn+0xd0>
    89e8:	eb000e52 	bl	c338 <printk>
    89ec:	eb000f47 	bl	c710 <clean_reboot>
    89f0:	e59f3028 	ldr	r3, [pc, #40]	@ 8a20 <nrf_getn+0xd4>
    89f4:	e58d3000 	str	r3, [sp]
    89f8:	e3a0306c 	mov	r3, #108	@ 0x6c
    89fc:	e59f2010 	ldr	r2, [pc, #16]	@ 8a14 <nrf_getn+0xc8>
    8a00:	e59f1010 	ldr	r1, [pc, #16]	@ 8a18 <nrf_getn+0xcc>
    8a04:	e59f0010 	ldr	r0, [pc, #16]	@ 8a1c <nrf_getn+0xd0>
    8a08:	eb000e4a 	bl	c338 <printk>
    8a0c:	eb000f3f 	bl	c710 <clean_reboot>
    8a10:	0000d084 	.word	0x0000d084
    8a14:	0000e15c 	.word	0x0000e15c
    8a18:	0000d000 	.word	0x0000d000
    8a1c:	0000cd08 	.word	0x0000cd08
    8a20:	0000d0a0 	.word	0x0000d0a0

00008a24 <nrf_putn>:
    8a24:	e92d4030 	push	{r4, r5, lr}
    8a28:	e24dd09c 	sub	sp, sp, #156	@ 0x9c
    8a2c:	e3530040 	cmp	r3, #64	@ 0x40
    8a30:	8a000018 	bhi	8a98 <nrf_putn+0x74>
    8a34:	e1a05000 	mov	r5, r0
    8a38:	e1a00001 	mov	r0, r1
    8a3c:	e1a01002 	mov	r1, r2
    8a40:	e1a04003 	mov	r4, r3
    8a44:	e3530000 	cmp	r3, #0
    8a48:	0a00001a 	beq	8ab8 <nrf_putn+0x94>
    8a4c:	e5cd0018 	strb	r0, [sp, #24]
    8a50:	e1a02003 	mov	r2, r3
    8a54:	e28d0019 	add	r0, sp, #25
    8a58:	eb000de5 	bl	c1f4 <memcpy>
    8a5c:	e2844001 	add	r4, r4, #1
    8a60:	e58d4010 	str	r4, [sp, #16]
    8a64:	e28d3018 	add	r3, sp, #24
    8a68:	e58d300c 	str	r3, [sp, #12]
    8a6c:	e28d3058 	add	r3, sp, #88	@ 0x58
    8a70:	e58d3008 	str	r3, [sp, #8]
    8a74:	e2853018 	add	r3, r5, #24
    8a78:	e8930003 	ldm	r3, {r0, r1}
    8a7c:	e88d0003 	stm	sp, {r0, r1}
    8a80:	e2850008 	add	r0, r5, #8
    8a84:	e890000f 	ldm	r0, {r0, r1, r2, r3}
    8a88:	eb000c81 	bl	bc94 <spi_n_transfer>
    8a8c:	e5dd0058 	ldrb	r0, [sp, #88]	@ 0x58
    8a90:	e28dd09c 	add	sp, sp, #156	@ 0x9c
    8a94:	e8bd8030 	pop	{r4, r5, pc}
    8a98:	e59f3038 	ldr	r3, [pc, #56]	@ 8ad8 <nrf_putn+0xb4>
    8a9c:	e58d3000 	str	r3, [sp]
    8aa0:	e3a0307b 	mov	r3, #123	@ 0x7b
    8aa4:	e59f2030 	ldr	r2, [pc, #48]	@ 8adc <nrf_putn+0xb8>
    8aa8:	e59f1030 	ldr	r1, [pc, #48]	@ 8ae0 <nrf_putn+0xbc>
    8aac:	e59f0030 	ldr	r0, [pc, #48]	@ 8ae4 <nrf_putn+0xc0>
    8ab0:	eb000e20 	bl	c338 <printk>
    8ab4:	eb000f15 	bl	c710 <clean_reboot>
    8ab8:	e59f3028 	ldr	r3, [pc, #40]	@ 8ae8 <nrf_putn+0xc4>
    8abc:	e58d3000 	str	r3, [sp]
    8ac0:	e3a0307c 	mov	r3, #124	@ 0x7c
    8ac4:	e59f2010 	ldr	r2, [pc, #16]	@ 8adc <nrf_putn+0xb8>
    8ac8:	e59f1010 	ldr	r1, [pc, #16]	@ 8ae0 <nrf_putn+0xbc>
    8acc:	e59f0010 	ldr	r0, [pc, #16]	@ 8ae4 <nrf_putn+0xc0>
    8ad0:	eb000e18 	bl	c338 <printk>
    8ad4:	eb000f0d 	bl	c710 <clean_reboot>
    8ad8:	0000d084 	.word	0x0000d084
    8adc:	0000e168 	.word	0x0000e168
    8ae0:	0000d000 	.word	0x0000d000
    8ae4:	0000cd08 	.word	0x0000cd08
    8ae8:	0000d0a0 	.word	0x0000d0a0

00008aec <nrf_or8>:
    8aec:	e92d4070 	push	{r4, r5, r6, lr}
    8af0:	e1a04000 	mov	r4, r0
    8af4:	e1a05001 	mov	r5, r1
    8af8:	e1a06002 	mov	r6, r2
    8afc:	ebffff46 	bl	881c <nrf_get8>
    8b00:	e1802006 	orr	r2, r0, r6
    8b04:	e6ef2072 	uxtb	r2, r2
    8b08:	e1a01005 	mov	r1, r5
    8b0c:	e1a00004 	mov	r0, r4
    8b10:	ebffff56 	bl	8870 <nrf_put8>
    8b14:	e8bd8070 	pop	{r4, r5, r6, pc}

00008b18 <nrf_bit_clr>:
    8b18:	e92d4070 	push	{r4, r5, r6, lr}
    8b1c:	e24dd018 	sub	sp, sp, #24
    8b20:	e3520007 	cmp	r2, #7
    8b24:	8a000014 	bhi	8b7c <nrf_bit_clr+0x64>
    8b28:	e1a05000 	mov	r5, r0
    8b2c:	e1a06001 	mov	r6, r1
    8b30:	e1a04002 	mov	r4, r2
    8b34:	e59f3060 	ldr	r3, [pc, #96]	@ 8b9c <nrf_bit_clr+0x84>
    8b38:	e58d300c 	str	r3, [sp, #12]
    8b3c:	e59f305c 	ldr	r3, [pc, #92]	@ 8ba0 <nrf_bit_clr+0x88>
    8b40:	e58d3010 	str	r3, [sp, #16]
    8b44:	e3a0308e 	mov	r3, #142	@ 0x8e
    8b48:	e58d3014 	str	r3, [sp, #20]
    8b4c:	ebffff32 	bl	881c <nrf_get8>
    8b50:	e1a01004 	mov	r1, r4
    8b54:	ebfffe69 	bl	8500 <bit_clr>
    8b58:	e6ef0070 	uxtb	r0, r0
    8b5c:	e58d0004 	str	r0, [sp, #4]
    8b60:	e58d6000 	str	r6, [sp]
    8b64:	e1a03005 	mov	r3, r5
    8b68:	e28d2018 	add	r2, sp, #24
    8b6c:	e9120007 	ldmdb	r2, {r0, r1, r2}
    8b70:	ebffff53 	bl	88c4 <nrf_put8_chk_helper>
    8b74:	e28dd018 	add	sp, sp, #24
    8b78:	e8bd8070 	pop	{r4, r5, r6, pc}
    8b7c:	e59f3020 	ldr	r3, [pc, #32]	@ 8ba4 <nrf_bit_clr+0x8c>
    8b80:	e58d3000 	str	r3, [sp]
    8b84:	e3a0308d 	mov	r3, #141	@ 0x8d
    8b88:	e59f2010 	ldr	r2, [pc, #16]	@ 8ba0 <nrf_bit_clr+0x88>
    8b8c:	e59f1008 	ldr	r1, [pc, #8]	@ 8b9c <nrf_bit_clr+0x84>
    8b90:	e59f0010 	ldr	r0, [pc, #16]	@ 8ba8 <nrf_bit_clr+0x90>
    8b94:	eb000de7 	bl	c338 <printk>
    8b98:	eb000edc 	bl	c710 <clean_reboot>
    8b9c:	0000d000 	.word	0x0000d000
    8ba0:	0000e174 	.word	0x0000e174
    8ba4:	0000d0ac 	.word	0x0000d0ac
    8ba8:	0000cd08 	.word	0x0000cd08

00008bac <nrf_bit_set>:
    8bac:	e92d4070 	push	{r4, r5, r6, lr}
    8bb0:	e24dd018 	sub	sp, sp, #24
    8bb4:	e3520007 	cmp	r2, #7
    8bb8:	8a000014 	bhi	8c10 <nrf_bit_set+0x64>
    8bbc:	e1a05000 	mov	r5, r0
    8bc0:	e1a06001 	mov	r6, r1
    8bc4:	e1a04002 	mov	r4, r2
    8bc8:	e59f3060 	ldr	r3, [pc, #96]	@ 8c30 <nrf_bit_set+0x84>
    8bcc:	e58d300c 	str	r3, [sp, #12]
    8bd0:	e59f305c 	ldr	r3, [pc, #92]	@ 8c34 <nrf_bit_set+0x88>
    8bd4:	e58d3010 	str	r3, [sp, #16]
    8bd8:	e3a03093 	mov	r3, #147	@ 0x93
    8bdc:	e58d3014 	str	r3, [sp, #20]
    8be0:	ebffff0d 	bl	881c <nrf_get8>
    8be4:	e1a01004 	mov	r1, r4
    8be8:	ebfffe57 	bl	854c <bit_set>
    8bec:	e6ef0070 	uxtb	r0, r0
    8bf0:	e58d0004 	str	r0, [sp, #4]
    8bf4:	e58d6000 	str	r6, [sp]
    8bf8:	e1a03005 	mov	r3, r5
    8bfc:	e28d2018 	add	r2, sp, #24
    8c00:	e9120007 	ldmdb	r2, {r0, r1, r2}
    8c04:	ebffff2e 	bl	88c4 <nrf_put8_chk_helper>
    8c08:	e28dd018 	add	sp, sp, #24
    8c0c:	e8bd8070 	pop	{r4, r5, r6, pc}
    8c10:	e59f3020 	ldr	r3, [pc, #32]	@ 8c38 <nrf_bit_set+0x8c>
    8c14:	e58d3000 	str	r3, [sp]
    8c18:	e3a03092 	mov	r3, #146	@ 0x92
    8c1c:	e59f2010 	ldr	r2, [pc, #16]	@ 8c34 <nrf_bit_set+0x88>
    8c20:	e59f1008 	ldr	r1, [pc, #8]	@ 8c30 <nrf_bit_set+0x84>
    8c24:	e59f0010 	ldr	r0, [pc, #16]	@ 8c3c <nrf_bit_set+0x90>
    8c28:	eb000dc2 	bl	c338 <printk>
    8c2c:	eb000eb7 	bl	c710 <clean_reboot>
    8c30:	0000d000 	.word	0x0000d000
    8c34:	0000e180 	.word	0x0000e180
    8c38:	0000d0ac 	.word	0x0000d0ac
    8c3c:	0000cd08 	.word	0x0000cd08

00008c40 <nrf_bit_isset>:
    8c40:	e92d4010 	push	{r4, lr}
    8c44:	e24dd008 	sub	sp, sp, #8
    8c48:	e3520007 	cmp	r2, #7
    8c4c:	8a000008 	bhi	8c74 <nrf_bit_isset+0x34>
    8c50:	e1a04002 	mov	r4, r2
    8c54:	ebfffef0 	bl	881c <nrf_get8>
    8c58:	e1a01004 	mov	r1, r4
    8c5c:	ebfffe4d 	bl	8598 <bit_is_on>
    8c60:	e3500001 	cmp	r0, #1
    8c64:	13a00000 	movne	r0, #0
    8c68:	03a00001 	moveq	r0, #1
    8c6c:	e28dd008 	add	sp, sp, #8
    8c70:	e8bd8010 	pop	{r4, pc}
    8c74:	e59f3018 	ldr	r3, [pc, #24]	@ 8c94 <nrf_bit_isset+0x54>
    8c78:	e58d3000 	str	r3, [sp]
    8c7c:	e3a03097 	mov	r3, #151	@ 0x97
    8c80:	e59f2010 	ldr	r2, [pc, #16]	@ 8c98 <nrf_bit_isset+0x58>
    8c84:	e59f1010 	ldr	r1, [pc, #16]	@ 8c9c <nrf_bit_isset+0x5c>
    8c88:	e59f0010 	ldr	r0, [pc, #16]	@ 8ca0 <nrf_bit_isset+0x60>
    8c8c:	eb000da9 	bl	c338 <printk>
    8c90:	eb000e9e 	bl	c710 <clean_reboot>
    8c94:	0000d0b4 	.word	0x0000d0b4
    8c98:	0000e18c 	.word	0x0000e18c
    8c9c:	0000d000 	.word	0x0000d000
    8ca0:	0000cd08 	.word	0x0000cd08

00008ca4 <nrf_get_addr>:
    8ca4:	e52de004 	push	{lr}		@ (str lr, [sp, #-4]!)
    8ca8:	e24dd014 	sub	sp, sp, #20
    8cac:	e1a03002 	mov	r3, r2
    8cb0:	e2422003 	sub	r2, r2, #3
    8cb4:	e3520001 	cmp	r2, #1
    8cb8:	8a000008 	bhi	8ce0 <nrf_get_addr+0x3c>
    8cbc:	e3a02000 	mov	r2, #0
    8cc0:	e58d200c 	str	r2, [sp, #12]
    8cc4:	e3530003 	cmp	r3, #3
    8cc8:	1a00000c 	bne	8d00 <nrf_get_addr+0x5c>
    8ccc:	e28d200c 	add	r2, sp, #12
    8cd0:	ebffff1d 	bl	894c <nrf_getn>
    8cd4:	e59d000c 	ldr	r0, [sp, #12]
    8cd8:	e28dd014 	add	sp, sp, #20
    8cdc:	e49df004 	pop	{pc}		@ (ldr pc, [sp], #4)
    8ce0:	e59f3038 	ldr	r3, [pc, #56]	@ 8d20 <nrf_get_addr+0x7c>
    8ce4:	e58d3000 	str	r3, [sp]
    8ce8:	e3a0309f 	mov	r3, #159	@ 0x9f
    8cec:	e59f2030 	ldr	r2, [pc, #48]	@ 8d24 <nrf_get_addr+0x80>
    8cf0:	e59f1030 	ldr	r1, [pc, #48]	@ 8d28 <nrf_get_addr+0x84>
    8cf4:	e59f0030 	ldr	r0, [pc, #48]	@ 8d2c <nrf_get_addr+0x88>
    8cf8:	eb000d8e 	bl	c338 <printk>
    8cfc:	eb000e83 	bl	c710 <clean_reboot>
    8d00:	e59f3028 	ldr	r3, [pc, #40]	@ 8d30 <nrf_get_addr+0x8c>
    8d04:	e58d3000 	str	r3, [sp]
    8d08:	e3a030a1 	mov	r3, #161	@ 0xa1
    8d0c:	e59f2010 	ldr	r2, [pc, #16]	@ 8d24 <nrf_get_addr+0x80>
    8d10:	e59f1010 	ldr	r1, [pc, #16]	@ 8d28 <nrf_get_addr+0x84>
    8d14:	e59f0010 	ldr	r0, [pc, #16]	@ 8d2c <nrf_get_addr+0x88>
    8d18:	eb000d86 	bl	c338 <printk>
    8d1c:	eb000e7b 	bl	c710 <clean_reboot>
    8d20:	0000d0bc 	.word	0x0000d0bc
    8d24:	0000e19c 	.word	0x0000e19c
    8d28:	0000d000 	.word	0x0000d000
    8d2c:	0000cd08 	.word	0x0000cd08
    8d30:	0000d0d4 	.word	0x0000d0d4

00008d34 <nrf_tx_flush>:
    8d34:	e52de004 	push	{lr}		@ (str lr, [sp, #-4]!)
    8d38:	e24dd024 	sub	sp, sp, #36	@ 0x24
    8d3c:	e1a03000 	mov	r3, r0
    8d40:	e3e0201e 	mvn	r2, #30
    8d44:	e5cd201f 	strb	r2, [sp, #31]
    8d48:	e3a02000 	mov	r2, #0
    8d4c:	e5cd201e 	strb	r2, [sp, #30]
    8d50:	e3a02001 	mov	r2, #1
    8d54:	e58d2010 	str	r2, [sp, #16]
    8d58:	e28d201f 	add	r2, sp, #31
    8d5c:	e58d200c 	str	r2, [sp, #12]
    8d60:	e28d201e 	add	r2, sp, #30
    8d64:	e58d2008 	str	r2, [sp, #8]
    8d68:	e2802018 	add	r2, r0, #24
    8d6c:	e8920003 	ldm	r2, {r0, r1}
    8d70:	e88d0003 	stm	sp, {r0, r1}
    8d74:	e2830008 	add	r0, r3, #8
    8d78:	e890000f 	ldm	r0, {r0, r1, r2, r3}
    8d7c:	eb000bc4 	bl	bc94 <spi_n_transfer>
    8d80:	e5dd001e 	ldrb	r0, [sp, #30]
    8d84:	e28dd024 	add	sp, sp, #36	@ 0x24
    8d88:	e49df004 	pop	{pc}		@ (ldr pc, [sp], #4)

00008d8c <nrf_rx_flush>:
    8d8c:	e52de004 	push	{lr}		@ (str lr, [sp, #-4]!)
    8d90:	e24dd024 	sub	sp, sp, #36	@ 0x24
    8d94:	e1a03000 	mov	r3, r0
    8d98:	e3e0201d 	mvn	r2, #29
    8d9c:	e5cd201f 	strb	r2, [sp, #31]
    8da0:	e3a02000 	mov	r2, #0
    8da4:	e5cd201e 	strb	r2, [sp, #30]
    8da8:	e3a02001 	mov	r2, #1
    8dac:	e58d2010 	str	r2, [sp, #16]
    8db0:	e28d201f 	add	r2, sp, #31
    8db4:	e58d200c 	str	r2, [sp, #12]
    8db8:	e28d201e 	add	r2, sp, #30
    8dbc:	e58d2008 	str	r2, [sp, #8]
    8dc0:	e2802018 	add	r2, r0, #24
    8dc4:	e8920003 	ldm	r2, {r0, r1}
    8dc8:	e88d0003 	stm	sp, {r0, r1}
    8dcc:	e2830008 	add	r0, r3, #8
    8dd0:	e890000f 	ldm	r0, {r0, r1, r2, r3}
    8dd4:	eb000bae 	bl	bc94 <spi_n_transfer>
    8dd8:	e5dd001e 	ldrb	r0, [sp, #30]
    8ddc:	e28dd024 	add	sp, sp, #36	@ 0x24
    8de0:	e49df004 	pop	{pc}		@ (ldr pc, [sp], #4)

00008de4 <nrf_compat>:
    8de4:	e52de004 	push	{lr}		@ (str lr, [sp, #-4]!)
    8de8:	e24dd00c 	sub	sp, sp, #12
    8dec:	e5902020 	ldr	r2, [r0, #32]
    8df0:	e5913020 	ldr	r3, [r1, #32]
    8df4:	e1520003 	cmp	r2, r3
    8df8:	0a000016 	beq	8e58 <nrf_compat+0x74>
    8dfc:	e5d03000 	ldrb	r3, [r0]
    8e00:	e5d12000 	ldrb	r2, [r1]
    8e04:	e1530002 	cmp	r3, r2
    8e08:	0a000018 	beq	8e70 <nrf_compat+0x8c>
    8e0c:	e5d02001 	ldrb	r2, [r0, #1]
    8e10:	e5d13001 	ldrb	r3, [r1, #1]
    8e14:	e1520003 	cmp	r2, r3
    8e18:	0a00001c 	beq	8e90 <nrf_compat+0xac>
    8e1c:	e5d02002 	ldrb	r2, [r0, #2]
    8e20:	e5d13002 	ldrb	r3, [r1, #2]
    8e24:	e1520003 	cmp	r2, r3
    8e28:	0a00001e 	beq	8ea8 <nrf_compat+0xc4>
    8e2c:	e5d03003 	ldrb	r3, [r0, #3]
    8e30:	e5d12003 	ldrb	r2, [r1, #3]
    8e34:	e1530002 	cmp	r3, r2
    8e38:	1a000020 	bne	8ec0 <nrf_compat+0xdc>
    8e3c:	e5d03004 	ldrb	r3, [r0, #4]
    8e40:	e5d12004 	ldrb	r2, [r1, #4]
    8e44:	e1530002 	cmp	r3, r2
    8e48:	1a000024 	bne	8ee0 <nrf_compat+0xfc>
    8e4c:	e3a00001 	mov	r0, #1
    8e50:	e28dd00c 	add	sp, sp, #12
    8e54:	e49df004 	pop	{pc}		@ (ldr pc, [sp], #4)
    8e58:	e3a030cc 	mov	r3, #204	@ 0xcc
    8e5c:	e59f209c 	ldr	r2, [pc, #156]	@ 8f00 <nrf_compat+0x11c>
    8e60:	e59f109c 	ldr	r1, [pc, #156]	@ 8f04 <nrf_compat+0x120>
    8e64:	e59f009c 	ldr	r0, [pc, #156]	@ 8f08 <nrf_compat+0x124>
    8e68:	eb000d32 	bl	c338 <printk>
    8e6c:	eb000e27 	bl	c710 <clean_reboot>
    8e70:	e58d2004 	str	r2, [sp, #4]
    8e74:	e58d3000 	str	r3, [sp]
    8e78:	e3a030d6 	mov	r3, #214	@ 0xd6
    8e7c:	e59f207c 	ldr	r2, [pc, #124]	@ 8f00 <nrf_compat+0x11c>
    8e80:	e59f107c 	ldr	r1, [pc, #124]	@ 8f04 <nrf_compat+0x120>
    8e84:	e59f0080 	ldr	r0, [pc, #128]	@ 8f0c <nrf_compat+0x128>
    8e88:	eb000d2a 	bl	c338 <printk>
    8e8c:	eb000e1f 	bl	c710 <clean_reboot>
    8e90:	e3a030da 	mov	r3, #218	@ 0xda
    8e94:	e59f2064 	ldr	r2, [pc, #100]	@ 8f00 <nrf_compat+0x11c>
    8e98:	e59f1064 	ldr	r1, [pc, #100]	@ 8f04 <nrf_compat+0x120>
    8e9c:	e59f006c 	ldr	r0, [pc, #108]	@ 8f10 <nrf_compat+0x12c>
    8ea0:	eb000d24 	bl	c338 <printk>
    8ea4:	eb000e19 	bl	c710 <clean_reboot>
    8ea8:	e3a030dc 	mov	r3, #220	@ 0xdc
    8eac:	e59f204c 	ldr	r2, [pc, #76]	@ 8f00 <nrf_compat+0x11c>
    8eb0:	e59f104c 	ldr	r1, [pc, #76]	@ 8f04 <nrf_compat+0x120>
    8eb4:	e59f0054 	ldr	r0, [pc, #84]	@ 8f10 <nrf_compat+0x12c>
    8eb8:	eb000d1e 	bl	c338 <printk>
    8ebc:	eb000e13 	bl	c710 <clean_reboot>
    8ec0:	e58d2004 	str	r2, [sp, #4]
    8ec4:	e58d3000 	str	r3, [sp]
    8ec8:	e3a030e1 	mov	r3, #225	@ 0xe1
    8ecc:	e59f202c 	ldr	r2, [pc, #44]	@ 8f00 <nrf_compat+0x11c>
    8ed0:	e59f102c 	ldr	r1, [pc, #44]	@ 8f04 <nrf_compat+0x120>
    8ed4:	e59f0038 	ldr	r0, [pc, #56]	@ 8f14 <nrf_compat+0x130>
    8ed8:	eb000d16 	bl	c338 <printk>
    8edc:	eb000e0b 	bl	c710 <clean_reboot>
    8ee0:	e58d2004 	str	r2, [sp, #4]
    8ee4:	e58d3000 	str	r3, [sp]
    8ee8:	e3a030e7 	mov	r3, #231	@ 0xe7
    8eec:	e59f200c 	ldr	r2, [pc, #12]	@ 8f00 <nrf_compat+0x11c>
    8ef0:	e59f100c 	ldr	r1, [pc, #12]	@ 8f04 <nrf_compat+0x120>
    8ef4:	e59f001c 	ldr	r0, [pc, #28]	@ 8f18 <nrf_compat+0x134>
    8ef8:	eb000d0e 	bl	c338 <printk>
    8efc:	eb000e03 	bl	c710 <clean_reboot>
    8f00:	0000e1ac 	.word	0x0000e1ac
    8f04:	0000d000 	.word	0x0000d000
    8f08:	0000d0f8 	.word	0x0000d0f8
    8f0c:	0000d120 	.word	0x0000d120
    8f10:	0000d15c 	.word	0x0000d15c
    8f14:	0000d180 	.word	0x0000d180
    8f18:	0000d1b0 	.word	0x0000d1b0

00008f1c <nrf_conf_print>:
    8f1c:	e92d4030 	push	{r4, r5, lr}
    8f20:	e24dd00c 	sub	sp, sp, #12
    8f24:	e1a05000 	mov	r5, r0
    8f28:	e1a04001 	mov	r4, r1
    8f2c:	e59f0024 	ldr	r0, [pc, #36]	@ 8f58 <nrf_conf_print+0x3c>
    8f30:	eb000d00 	bl	c338 <printk>
    8f34:	e5d43000 	ldrb	r3, [r4]
    8f38:	e58d3000 	str	r3, [sp]
    8f3c:	e5d43002 	ldrb	r3, [r4, #2]
    8f40:	e5d42001 	ldrb	r2, [r4, #1]
    8f44:	e1a01005 	mov	r1, r5
    8f48:	e59f000c 	ldr	r0, [pc, #12]	@ 8f5c <nrf_conf_print+0x40>
    8f4c:	eb000cf9 	bl	c338 <printk>
    8f50:	e28dd00c 	add	sp, sp, #12
    8f54:	e8bd8030 	pop	{r4, r5, pc}
    8f58:	0000cd90 	.word	0x0000cd90
    8f5c:	0000d1e0 	.word	0x0000d1e0

00008f60 <nrf_dump>:
    8f60:	e92d43f0 	push	{r4, r5, r6, r7, r8, r9, lr}
    8f64:	e24dd024 	sub	sp, sp, #36	@ 0x24
    8f68:	e1a04000 	mov	r4, r0
    8f6c:	e1a05001 	mov	r5, r1
    8f70:	e59f7584 	ldr	r7, [pc, #1412]	@ 94fc <nrf_dump+0x59c>
    8f74:	e1a00007 	mov	r0, r7
    8f78:	eb000cee 	bl	c338 <printk>
    8f7c:	e59f057c 	ldr	r0, [pc, #1404]	@ 9500 <nrf_dump+0x5a0>
    8f80:	eb000cec 	bl	c338 <printk>
    8f84:	e1a00007 	mov	r0, r7
    8f88:	eb000cea 	bl	c338 <printk>
    8f8c:	e1a01004 	mov	r1, r4
    8f90:	e59f056c 	ldr	r0, [pc, #1388]	@ 9504 <nrf_dump+0x5a4>
    8f94:	eb000ce7 	bl	c338 <printk>
    8f98:	e1a01005 	mov	r1, r5
    8f9c:	e59f0564 	ldr	r0, [pc, #1380]	@ 9508 <nrf_dump+0x5a8>
    8fa0:	ebffffdd 	bl	8f1c <nrf_conf_print>
    8fa4:	e3a01000 	mov	r1, #0
    8fa8:	e1a00005 	mov	r0, r5
    8fac:	ebfffe1a 	bl	881c <nrf_get8>
    8fb0:	e1a04000 	mov	r4, r0
    8fb4:	e1a00007 	mov	r0, r7
    8fb8:	eb000cde 	bl	c338 <printk>
    8fbc:	e1a020a4 	lsr	r2, r4, #1
    8fc0:	e1a03124 	lsr	r3, r4, #2
    8fc4:	e2033001 	and	r3, r3, #1
    8fc8:	e1a011a4 	lsr	r1, r4, #3
    8fcc:	e2011001 	and	r1, r1, #1
    8fd0:	e58d1004 	str	r1, [sp, #4]
    8fd4:	e58d3000 	str	r3, [sp]
    8fd8:	e2043001 	and	r3, r4, #1
    8fdc:	e2022001 	and	r2, r2, #1
    8fe0:	e1a01004 	mov	r1, r4
    8fe4:	e59f0520 	ldr	r0, [pc, #1312]	@ 950c <nrf_dump+0x5ac>
    8fe8:	eb000cd2 	bl	c338 <printk>
    8fec:	e1a01324 	lsr	r1, r4, #6
    8ff0:	e1a022a4 	lsr	r2, r4, #5
    8ff4:	e1a03224 	lsr	r3, r4, #4
    8ff8:	e2033001 	and	r3, r3, #1
    8ffc:	e2022001 	and	r2, r2, #1
    9000:	e2011001 	and	r1, r1, #1
    9004:	e59f0504 	ldr	r0, [pc, #1284]	@ 9510 <nrf_dump+0x5b0>
    9008:	eb000cca 	bl	c338 <printk>
    900c:	e3a01001 	mov	r1, #1
    9010:	e1a00005 	mov	r0, r5
    9014:	ebfffe00 	bl	881c <nrf_get8>
    9018:	e1a06000 	mov	r6, r0
    901c:	e1a00007 	mov	r0, r7
    9020:	eb000cc4 	bl	c338 <printk>
    9024:	e1a01006 	mov	r1, r6
    9028:	e59f04e4 	ldr	r0, [pc, #1252]	@ 9514 <nrf_dump+0x5b4>
    902c:	eb000cc1 	bl	c338 <printk>
    9030:	e356003f 	cmp	r6, #63	@ 0x3f
    9034:	0a000003 	beq	9048 <nrf_dump+0xe8>
    9038:	e59f04d8 	ldr	r0, [pc, #1240]	@ 9518 <nrf_dump+0x5b8>
    903c:	eb000cbd 	bl	c338 <printk>
    9040:	e3a04000 	mov	r4, #0
    9044:	ea000003 	b	9058 <nrf_dump+0xf8>
    9048:	e59f04cc 	ldr	r0, [pc, #1228]	@ 951c <nrf_dump+0x5bc>
    904c:	eb000cb9 	bl	c338 <printk>
    9050:	ea00000d 	b	908c <nrf_dump+0x12c>
    9054:	e2844001 	add	r4, r4, #1
    9058:	e3540005 	cmp	r4, #5
    905c:	ca000008 	bgt	9084 <nrf_dump+0x124>
    9060:	e1a01004 	mov	r1, r4
    9064:	e1a00006 	mov	r0, r6
    9068:	ebfffd4a 	bl	8598 <bit_is_on>
    906c:	e3500000 	cmp	r0, #0
    9070:	0afffff7 	beq	9054 <nrf_dump+0xf4>
    9074:	e1a01004 	mov	r1, r4
    9078:	e59f04a0 	ldr	r0, [pc, #1184]	@ 9520 <nrf_dump+0x5c0>
    907c:	eb000cad 	bl	c338 <printk>
    9080:	eafffff3 	b	9054 <nrf_dump+0xf4>
    9084:	e59f0498 	ldr	r0, [pc, #1176]	@ 9524 <nrf_dump+0x5c4>
    9088:	eb000caa 	bl	c338 <printk>
    908c:	e3a01002 	mov	r1, #2
    9090:	e1a00005 	mov	r0, r5
    9094:	ebfffde0 	bl	881c <nrf_get8>
    9098:	e1a06000 	mov	r6, r0
    909c:	e59f0458 	ldr	r0, [pc, #1112]	@ 94fc <nrf_dump+0x59c>
    90a0:	eb000ca4 	bl	c338 <printk>
    90a4:	e1a01006 	mov	r1, r6
    90a8:	e59f0478 	ldr	r0, [pc, #1144]	@ 9528 <nrf_dump+0x5c8>
    90ac:	eb000ca1 	bl	c338 <printk>
    90b0:	e356003f 	cmp	r6, #63	@ 0x3f
    90b4:	0a000003 	beq	90c8 <nrf_dump+0x168>
    90b8:	e59f046c 	ldr	r0, [pc, #1132]	@ 952c <nrf_dump+0x5cc>
    90bc:	eb000c9d 	bl	c338 <printk>
    90c0:	e3a04000 	mov	r4, #0
    90c4:	ea000003 	b	90d8 <nrf_dump+0x178>
    90c8:	e59f0460 	ldr	r0, [pc, #1120]	@ 9530 <nrf_dump+0x5d0>
    90cc:	eb000c99 	bl	c338 <printk>
    90d0:	ea00000d 	b	910c <nrf_dump+0x1ac>
    90d4:	e2844001 	add	r4, r4, #1
    90d8:	e3540005 	cmp	r4, #5
    90dc:	ca000008 	bgt	9104 <nrf_dump+0x1a4>
    90e0:	e1a01004 	mov	r1, r4
    90e4:	e1a00006 	mov	r0, r6
    90e8:	ebfffd2a 	bl	8598 <bit_is_on>
    90ec:	e3500000 	cmp	r0, #0
    90f0:	0afffff7 	beq	90d4 <nrf_dump+0x174>
    90f4:	e1a01004 	mov	r1, r4
    90f8:	e59f0434 	ldr	r0, [pc, #1076]	@ 9534 <nrf_dump+0x5d4>
    90fc:	eb000c8d 	bl	c338 <printk>
    9100:	eafffff3 	b	90d4 <nrf_dump+0x174>
    9104:	e59f0418 	ldr	r0, [pc, #1048]	@ 9524 <nrf_dump+0x5c4>
    9108:	eb000c8a 	bl	c338 <printk>
    910c:	e3a01003 	mov	r1, #3
    9110:	e1a00005 	mov	r0, r5
    9114:	ebfffdc0 	bl	881c <nrf_get8>
    9118:	e2403001 	sub	r3, r0, #1
    911c:	e6ef3073 	uxtb	r3, r3
    9120:	e3530002 	cmp	r3, #2
    9124:	8a00002d 	bhi	91e0 <nrf_dump+0x280>
    9128:	e3500001 	cmp	r0, #1
    912c:	1a000033 	bne	9200 <nrf_dump+0x2a0>
    9130:	e59f73c4 	ldr	r7, [pc, #964]	@ 94fc <nrf_dump+0x59c>
    9134:	e1a00007 	mov	r0, r7
    9138:	eb000c7e 	bl	c338 <printk>
    913c:	e3a01003 	mov	r1, #3
    9140:	e59f03f0 	ldr	r0, [pc, #1008]	@ 9538 <nrf_dump+0x5d8>
    9144:	eb000c7b 	bl	c338 <printk>
    9148:	e3a01004 	mov	r1, #4
    914c:	e1a00005 	mov	r0, r5
    9150:	ebfffdb1 	bl	881c <nrf_get8>
    9154:	e1a06000 	mov	r6, r0
    9158:	e1a03220 	lsr	r3, r0, #4
    915c:	e6ef3073 	uxtb	r3, r3
    9160:	e2833001 	add	r3, r3, #1
    9164:	e0632283 	rsb	r2, r3, r3, lsl #5
    9168:	e0833102 	add	r3, r3, r2, lsl #2
    916c:	e1a04083 	lsl	r4, r3, #1
    9170:	e200800f 	and	r8, r0, #15
    9174:	e1a00007 	mov	r0, r7
    9178:	eb000c6e 	bl	c338 <printk>
    917c:	e1a03008 	mov	r3, r8
    9180:	e1a02004 	mov	r2, r4
    9184:	e1a01006 	mov	r1, r6
    9188:	e59f03ac 	ldr	r0, [pc, #940]	@ 953c <nrf_dump+0x5dc>
    918c:	eb000c69 	bl	c338 <printk>
    9190:	e3a01005 	mov	r1, #5
    9194:	e1a00005 	mov	r0, r5
    9198:	ebfffd9f 	bl	881c <nrf_get8>
    919c:	e1a04000 	mov	r4, r0
    91a0:	e1a00007 	mov	r0, r7
    91a4:	eb000c63 	bl	c338 <printk>
    91a8:	e2842e19 	add	r2, r4, #400	@ 0x190
    91ac:	e1a01004 	mov	r1, r4
    91b0:	e59f0388 	ldr	r0, [pc, #904]	@ 9540 <nrf_dump+0x5e0>
    91b4:	eb000c5f 	bl	c338 <printk>
    91b8:	e3a01006 	mov	r1, #6
    91bc:	e1a00005 	mov	r0, r5
    91c0:	ebfffd95 	bl	881c <nrf_get8>
    91c4:	e1a04000 	mov	r4, r0
    91c8:	e3100020 	tst	r0, #32
    91cc:	1a000013 	bne	9220 <nrf_dump+0x2c0>
    91d0:	e3100008 	tst	r0, #8
    91d4:	0a000019 	beq	9240 <nrf_dump+0x2e0>
    91d8:	e3a07002 	mov	r7, #2
    91dc:	ea000018 	b	9244 <nrf_dump+0x2e4>
    91e0:	e59f335c 	ldr	r3, [pc, #860]	@ 9544 <nrf_dump+0x5e4>
    91e4:	e58d3000 	str	r3, [sp]
    91e8:	e59f3358 	ldr	r3, [pc, #856]	@ 9548 <nrf_dump+0x5e8>
    91ec:	e59f2358 	ldr	r2, [pc, #856]	@ 954c <nrf_dump+0x5ec>
    91f0:	e59f1358 	ldr	r1, [pc, #856]	@ 9550 <nrf_dump+0x5f0>
    91f4:	e59f0358 	ldr	r0, [pc, #856]	@ 9554 <nrf_dump+0x5f4>
    91f8:	eb000c4e 	bl	c338 <printk>
    91fc:	eb000d43 	bl	c710 <clean_reboot>
    9200:	e59f3350 	ldr	r3, [pc, #848]	@ 9558 <nrf_dump+0x5f8>
    9204:	e58d3000 	str	r3, [sp]
    9208:	e3a03f49 	mov	r3, #292	@ 0x124
    920c:	e59f2338 	ldr	r2, [pc, #824]	@ 954c <nrf_dump+0x5ec>
    9210:	e59f1338 	ldr	r1, [pc, #824]	@ 9550 <nrf_dump+0x5f0>
    9214:	e59f0338 	ldr	r0, [pc, #824]	@ 9554 <nrf_dump+0x5f4>
    9218:	eb000c46 	bl	c338 <printk>
    921c:	eb000d3b 	bl	c710 <clean_reboot>
    9220:	e59f3334 	ldr	r3, [pc, #820]	@ 955c <nrf_dump+0x5fc>
    9224:	e58d3000 	str	r3, [sp]
    9228:	e59f3330 	ldr	r3, [pc, #816]	@ 9560 <nrf_dump+0x600>
    922c:	e59f2318 	ldr	r2, [pc, #792]	@ 954c <nrf_dump+0x5ec>
    9230:	e59f1318 	ldr	r1, [pc, #792]	@ 9550 <nrf_dump+0x5f0>
    9234:	e59f0318 	ldr	r0, [pc, #792]	@ 9554 <nrf_dump+0x5f4>
    9238:	eb000c3e 	bl	c338 <printk>
    923c:	eb000d33 	bl	c710 <clean_reboot>
    9240:	e3a07001 	mov	r7, #1
    9244:	e3a02002 	mov	r2, #2
    9248:	e3a01001 	mov	r1, #1
    924c:	e1a00004 	mov	r0, r4
    9250:	ebfffcfb 	bl	8644 <bits_get>
    9254:	e59f3308 	ldr	r3, [pc, #776]	@ 9564 <nrf_dump+0x604>
    9258:	e3500003 	cmp	r0, #3
    925c:	8a000042 	bhi	936c <nrf_dump+0x40c>
    9260:	e7d30000 	ldrb	r0, [r3, r0]
    9264:	e08ff100 	add	pc, pc, r0, lsl #2
    9268:	e320f000 	nop	{0}
    926c:	e3e08005 	mvn	r8, #5
    9270:	e59f6284 	ldr	r6, [pc, #644]	@ 94fc <nrf_dump+0x59c>
    9274:	e1a00006 	mov	r0, r6
    9278:	eb000c2e 	bl	c338 <printk>
    927c:	e1a03008 	mov	r3, r8
    9280:	e1a02007 	mov	r2, r7
    9284:	e1a01004 	mov	r1, r4
    9288:	e59f02d8 	ldr	r0, [pc, #728]	@ 9568 <nrf_dump+0x608>
    928c:	eb000c29 	bl	c338 <printk>
    9290:	e3a01007 	mov	r1, #7
    9294:	e1a00005 	mov	r0, r5
    9298:	ebfffd5f 	bl	881c <nrf_get8>
    929c:	e1a04000 	mov	r4, r0
    92a0:	e1a00006 	mov	r0, r6
    92a4:	eb000c23 	bl	c338 <printk>
    92a8:	e1a06324 	lsr	r6, r4, #6
    92ac:	e2066001 	and	r6, r6, #1
    92b0:	e1a072a4 	lsr	r7, r4, #5
    92b4:	e2077001 	and	r7, r7, #1
    92b8:	e1a08224 	lsr	r8, r4, #4
    92bc:	e2088001 	and	r8, r8, #1
    92c0:	e3a02003 	mov	r2, #3
    92c4:	e3a01001 	mov	r1, #1
    92c8:	e1a00004 	mov	r0, r4
    92cc:	ebfffcdc 	bl	8644 <bits_get>
    92d0:	e1a09000 	mov	r9, r0
    92d4:	e3a02003 	mov	r2, #3
    92d8:	e3a01001 	mov	r1, #1
    92dc:	e1a00004 	mov	r0, r4
    92e0:	ebfffcd7 	bl	8644 <bits_get>
    92e4:	e3500007 	cmp	r0, #7
    92e8:	0a000029 	beq	9394 <nrf_dump+0x434>
    92ec:	e59f3278 	ldr	r3, [pc, #632]	@ 956c <nrf_dump+0x60c>
    92f0:	e2042001 	and	r2, r4, #1
    92f4:	e58d200c 	str	r2, [sp, #12]
    92f8:	e58d3008 	str	r3, [sp, #8]
    92fc:	e58d9004 	str	r9, [sp, #4]
    9300:	e58d8000 	str	r8, [sp]
    9304:	e1a03007 	mov	r3, r7
    9308:	e1a02006 	mov	r2, r6
    930c:	e1a01004 	mov	r1, r4
    9310:	e59f0258 	ldr	r0, [pc, #600]	@ 9570 <nrf_dump+0x610>
    9314:	eb000c07 	bl	c338 <printk>
    9318:	e3a02000 	mov	r2, #0
    931c:	e3a03000 	mov	r3, #0
    9320:	e1cd21f8 	strd	r2, [sp, #24]
    9324:	e3a03003 	mov	r3, #3
    9328:	e28d2018 	add	r2, sp, #24
    932c:	e3a01010 	mov	r1, #16
    9330:	e1a00005 	mov	r0, r5
    9334:	ebfffd84 	bl	894c <nrf_getn>
    9338:	e59f01bc 	ldr	r0, [pc, #444]	@ 94fc <nrf_dump+0x59c>
    933c:	eb000bfd 	bl	c338 <printk>
    9340:	e1cd21d8 	ldrd	r2, [sp, #24]
    9344:	e59f0228 	ldr	r0, [pc, #552]	@ 9574 <nrf_dump+0x614>
    9348:	eb000bfa 	bl	c338 <printk>
    934c:	e3a01002 	mov	r1, #2
    9350:	e1a00005 	mov	r0, r5
    9354:	ebfffd30 	bl	881c <nrf_get8>
    9358:	e1a07000 	mov	r7, r0
    935c:	e3a04000 	mov	r4, #0
    9360:	ea00000e 	b	93a0 <nrf_dump+0x440>
    9364:	e3a08000 	mov	r8, #0
    9368:	eaffffc0 	b	9270 <nrf_dump+0x310>
    936c:	e59f3204 	ldr	r3, [pc, #516]	@ 9578 <nrf_dump+0x618>
    9370:	e59f21d4 	ldr	r2, [pc, #468]	@ 954c <nrf_dump+0x5ec>
    9374:	e59f11d4 	ldr	r1, [pc, #468]	@ 9550 <nrf_dump+0x5f0>
    9378:	e59f01fc 	ldr	r0, [pc, #508]	@ 957c <nrf_dump+0x61c>
    937c:	eb000bed 	bl	c338 <printk>
    9380:	eb000ce2 	bl	c710 <clean_reboot>
    9384:	e3e08011 	mvn	r8, #17
    9388:	eaffffb8 	b	9270 <nrf_dump+0x310>
    938c:	e3e0800b 	mvn	r8, #11
    9390:	eaffffb6 	b	9270 <nrf_dump+0x310>
    9394:	e59f31e4 	ldr	r3, [pc, #484]	@ 9580 <nrf_dump+0x620>
    9398:	eaffffd4 	b	92f0 <nrf_dump+0x390>
    939c:	e2844001 	add	r4, r4, #1
    93a0:	e3540005 	cmp	r4, #5
    93a4:	8a000022 	bhi	9434 <nrf_dump+0x4d4>
    93a8:	e1a01004 	mov	r1, r4
    93ac:	e1a00007 	mov	r0, r7
    93b0:	ebfffc78 	bl	8598 <bit_is_on>
    93b4:	e3500000 	cmp	r0, #0
    93b8:	0afffff7 	beq	939c <nrf_dump+0x43c>
    93bc:	e3a02000 	mov	r2, #0
    93c0:	e3a03000 	mov	r3, #0
    93c4:	e1cd21f0 	strd	r2, [sp, #16]
    93c8:	e6ef6074 	uxtb	r6, r4
    93cc:	e286100a 	add	r1, r6, #10
    93d0:	e3a03003 	mov	r3, #3
    93d4:	e28d2010 	add	r2, sp, #16
    93d8:	e6ef1071 	uxtb	r1, r1
    93dc:	e1a00005 	mov	r0, r5
    93e0:	ebfffd59 	bl	894c <nrf_getn>
    93e4:	e59f8110 	ldr	r8, [pc, #272]	@ 94fc <nrf_dump+0x59c>
    93e8:	e1a00008 	mov	r0, r8
    93ec:	eb000bd1 	bl	c338 <printk>
    93f0:	e1cd21d0 	ldrd	r2, [sp, #16]
    93f4:	e1a01004 	mov	r1, r4
    93f8:	e59f0184 	ldr	r0, [pc, #388]	@ 9584 <nrf_dump+0x624>
    93fc:	eb000bcd 	bl	c338 <printk>
    9400:	e2861011 	add	r1, r6, #17
    9404:	e6ef1071 	uxtb	r1, r1
    9408:	e1a00005 	mov	r0, r5
    940c:	ebfffd02 	bl	881c <nrf_get8>
    9410:	e1a06000 	mov	r6, r0
    9414:	e1a00008 	mov	r0, r8
    9418:	eb000bc6 	bl	c338 <printk>
    941c:	e1a03006 	mov	r3, r6
    9420:	e1a02006 	mov	r2, r6
    9424:	e1a01004 	mov	r1, r4
    9428:	e59f0158 	ldr	r0, [pc, #344]	@ 9588 <nrf_dump+0x628>
    942c:	eb000bc1 	bl	c338 <printk>
    9430:	eaffffd9 	b	939c <nrf_dump+0x43c>
    9434:	e3a01017 	mov	r1, #23
    9438:	e1a00005 	mov	r0, r5
    943c:	ebfffcf6 	bl	881c <nrf_get8>
    9440:	e1a04000 	mov	r4, r0
    9444:	e59f00b0 	ldr	r0, [pc, #176]	@ 94fc <nrf_dump+0x59c>
    9448:	eb000bba 	bl	c338 <printk>
    944c:	e1a022a4 	lsr	r2, r4, #5
    9450:	e1a03224 	lsr	r3, r4, #4
    9454:	e1a010a4 	lsr	r1, r4, #1
    9458:	e2011001 	and	r1, r1, #1
    945c:	e2040001 	and	r0, r4, #1
    9460:	e58d0004 	str	r0, [sp, #4]
    9464:	e58d1000 	str	r1, [sp]
    9468:	e2033001 	and	r3, r3, #1
    946c:	e2022001 	and	r2, r2, #1
    9470:	e1a01004 	mov	r1, r4
    9474:	e59f0110 	ldr	r0, [pc, #272]	@ 958c <nrf_dump+0x62c>
    9478:	eb000bae 	bl	c338 <printk>
    947c:	e3a0101d 	mov	r1, #29
    9480:	e1a00005 	mov	r0, r5
    9484:	ebfffce4 	bl	881c <nrf_get8>
    9488:	e3500000 	cmp	r0, #0
    948c:	1a00000a 	bne	94bc <nrf_dump+0x55c>
    9490:	e3a0101c 	mov	r1, #28
    9494:	e1a00005 	mov	r0, r5
    9498:	ebfffcdf 	bl	881c <nrf_get8>
    949c:	e3500000 	cmp	r0, #0
    94a0:	1a00000d 	bne	94dc <nrf_dump+0x57c>
    94a4:	e59f0050 	ldr	r0, [pc, #80]	@ 94fc <nrf_dump+0x59c>
    94a8:	eb000ba2 	bl	c338 <printk>
    94ac:	e59f004c 	ldr	r0, [pc, #76]	@ 9500 <nrf_dump+0x5a0>
    94b0:	eb000ba0 	bl	c338 <printk>
    94b4:	e28dd024 	add	sp, sp, #36	@ 0x24
    94b8:	e8bd83f0 	pop	{r4, r5, r6, r7, r8, r9, pc}
    94bc:	e59f30cc 	ldr	r3, [pc, #204]	@ 9590 <nrf_dump+0x630>
    94c0:	e58d3000 	str	r3, [sp]
    94c4:	e59f30c8 	ldr	r3, [pc, #200]	@ 9594 <nrf_dump+0x634>
    94c8:	e59f207c 	ldr	r2, [pc, #124]	@ 954c <nrf_dump+0x5ec>
    94cc:	e59f107c 	ldr	r1, [pc, #124]	@ 9550 <nrf_dump+0x5f0>
    94d0:	e59f007c 	ldr	r0, [pc, #124]	@ 9554 <nrf_dump+0x5f4>
    94d4:	eb000b97 	bl	c338 <printk>
    94d8:	eb000c8c 	bl	c710 <clean_reboot>
    94dc:	e59f30b4 	ldr	r3, [pc, #180]	@ 9598 <nrf_dump+0x638>
    94e0:	e58d3000 	str	r3, [sp]
    94e4:	e59f30b0 	ldr	r3, [pc, #176]	@ 959c <nrf_dump+0x63c>
    94e8:	e59f205c 	ldr	r2, [pc, #92]	@ 954c <nrf_dump+0x5ec>
    94ec:	e59f105c 	ldr	r1, [pc, #92]	@ 9550 <nrf_dump+0x5f0>
    94f0:	e59f005c 	ldr	r0, [pc, #92]	@ 9554 <nrf_dump+0x5f4>
    94f4:	eb000b8f 	bl	c338 <printk>
    94f8:	eb000c84 	bl	c710 <clean_reboot>
    94fc:	0000cd90 	.word	0x0000cd90
    9500:	0000d21c 	.word	0x0000d21c
    9504:	0000d24c 	.word	0x0000d24c
    9508:	0000d254 	.word	0x0000d254
    950c:	0000d25c 	.word	0x0000d25c
    9510:	0000d294 	.word	0x0000d294
    9514:	0000d2c4 	.word	0x0000d2c4
    9518:	0000d2f8 	.word	0x0000d2f8
    951c:	0000d2d4 	.word	0x0000d2d4
    9520:	0000d308 	.word	0x0000d308
    9524:	0000d31c 	.word	0x0000d31c
    9528:	0000d320 	.word	0x0000d320
    952c:	0000d348 	.word	0x0000d348
    9530:	0000d334 	.word	0x0000d334
    9534:	0000d358 	.word	0x0000d358
    9538:	0000d39c 	.word	0x0000d39c
    953c:	0000d3bc 	.word	0x0000d3bc
    9540:	0000d3f4 	.word	0x0000d3f4
    9544:	0000d364 	.word	0x0000d364
    9548:	00000122 	.word	0x00000122
    954c:	0000e1b8 	.word	0x0000e1b8
    9550:	0000d000 	.word	0x0000d000
    9554:	0000cd08 	.word	0x0000cd08
    9558:	0000d378 	.word	0x0000d378
    955c:	0000d40c 	.word	0x0000d40c
    9560:	00000131 	.word	0x00000131
    9564:	0000e114 	.word	0x0000e114
    9568:	0000d43c 	.word	0x0000d43c
    956c:	0000d210 	.word	0x0000d210
    9570:	0000d46c 	.word	0x0000d46c
    9574:	0000d4b8 	.word	0x0000d4b8
    9578:	00000139 	.word	0x00000139
    957c:	0000d41c 	.word	0x0000d41c
    9580:	0000d208 	.word	0x0000d208
    9584:	0000d4cc 	.word	0x0000d4cc
    9588:	0000d4e4 	.word	0x0000d4e4
    958c:	0000d514 	.word	0x0000d514
    9590:	0000d55c 	.word	0x0000d55c
    9594:	00000162 	.word	0x00000162
    9598:	0000d57c 	.word	0x0000d57c
    959c:	00000163 	.word	0x00000163

000095a0 <nrf_set_addr>:
    95a0:	e92d4070 	push	{r4, r5, r6, lr}
    95a4:	e24dd010 	sub	sp, sp, #16
    95a8:	e58d200c 	str	r2, [sp, #12]
    95ac:	e3530003 	cmp	r3, #3
    95b0:	1a00000e 	bne	95f0 <nrf_set_addr+0x50>
    95b4:	e1a05000 	mov	r5, r0
    95b8:	e1a06001 	mov	r6, r1
    95bc:	e1a04003 	mov	r4, r3
    95c0:	e28d200c 	add	r2, sp, #12
    95c4:	e3811020 	orr	r1, r1, #32
    95c8:	ebfffd15 	bl	8a24 <nrf_putn>
    95cc:	e1a02004 	mov	r2, r4
    95d0:	e1a01006 	mov	r1, r6
    95d4:	e1a00005 	mov	r0, r5
    95d8:	ebfffdb1 	bl	8ca4 <nrf_get_addr>
    95dc:	e59d300c 	ldr	r3, [sp, #12]
    95e0:	e1500003 	cmp	r0, r3
    95e4:	1a000009 	bne	9610 <nrf_set_addr+0x70>
    95e8:	e28dd010 	add	sp, sp, #16
    95ec:	e8bd8070 	pop	{r4, r5, r6, pc}
    95f0:	e59f3044 	ldr	r3, [pc, #68]	@ 963c <nrf_set_addr+0x9c>
    95f4:	e58d3000 	str	r3, [sp]
    95f8:	e3a030a7 	mov	r3, #167	@ 0xa7
    95fc:	e59f203c 	ldr	r2, [pc, #60]	@ 9640 <nrf_set_addr+0xa0>
    9600:	e59f103c 	ldr	r1, [pc, #60]	@ 9644 <nrf_set_addr+0xa4>
    9604:	e59f003c 	ldr	r0, [pc, #60]	@ 9648 <nrf_set_addr+0xa8>
    9608:	eb000b4a 	bl	c338 <printk>
    960c:	eb000c3f 	bl	c710 <clean_reboot>
    9610:	e1a01005 	mov	r1, r5
    9614:	e59f0030 	ldr	r0, [pc, #48]	@ 964c <nrf_set_addr+0xac>
    9618:	ebfffe50 	bl	8f60 <nrf_dump>
    961c:	e59f302c 	ldr	r3, [pc, #44]	@ 9650 <nrf_set_addr+0xb0>
    9620:	e58d3000 	str	r3, [sp]
    9624:	e3a030ae 	mov	r3, #174	@ 0xae
    9628:	e59f2010 	ldr	r2, [pc, #16]	@ 9640 <nrf_set_addr+0xa0>
    962c:	e59f1010 	ldr	r1, [pc, #16]	@ 9644 <nrf_set_addr+0xa4>
    9630:	e59f001c 	ldr	r0, [pc, #28]	@ 9654 <nrf_set_addr+0xb4>
    9634:	eb000b3f 	bl	c338 <printk>
    9638:	eb000c34 	bl	c710 <clean_reboot>
    963c:	0000d0d4 	.word	0x0000d0d4
    9640:	0000e1c4 	.word	0x0000e1c4
    9644:	0000d000 	.word	0x0000d000
    9648:	0000cd08 	.word	0x0000cd08
    964c:	0000d59c 	.word	0x0000d59c
    9650:	0000d5c4 	.word	0x0000d5c4
    9654:	0000d5b0 	.word	0x0000d5b0

00009658 <nrf_stat_print>:
    9658:	e92d000e 	push	{r1, r2, r3}
    965c:	e92d41f0 	push	{r4, r5, r6, r7, r8, lr}
    9660:	e24dd014 	sub	sp, sp, #20
    9664:	e1a04000 	mov	r4, r0
    9668:	e2806a02 	add	r6, r0, #8192	@ 0x2000
    966c:	e596703c 	ldr	r7, [r6, #60]	@ 0x3c
    9670:	eb000ca1 	bl	c8fc <timer_get_usec>
    9674:	e0405007 	sub	r5, r0, r7
    9678:	e59f81a0 	ldr	r8, [pc, #416]	@ 9820 <nrf_stat_print+0x1c8>
    967c:	e1a00008 	mov	r0, r8
    9680:	eb000b2c 	bl	c338 <printk>
    9684:	e28d1030 	add	r1, sp, #48	@ 0x30
    9688:	e58d100c 	str	r1, [sp, #12]
    968c:	e59d002c 	ldr	r0, [sp, #44]	@ 0x2c
    9690:	eb000b77 	bl	c474 <vprintk>
    9694:	e59f0188 	ldr	r0, [pc, #392]	@ 9824 <nrf_stat_print+0x1cc>
    9698:	eb000b26 	bl	c338 <printk>
    969c:	e1a00008 	mov	r0, r8
    96a0:	eb000b24 	bl	c338 <printk>
    96a4:	e59f017c 	ldr	r0, [pc, #380]	@ 9828 <nrf_stat_print+0x1d0>
    96a8:	eb000b22 	bl	c338 <printk>
    96ac:	e1a00007 	mov	r0, r7
    96b0:	ebfffc05 	bl	86cc <pretty_print_usec>
    96b4:	e59f0170 	ldr	r0, [pc, #368]	@ 982c <nrf_stat_print+0x1d4>
    96b8:	eb000b1e 	bl	c338 <printk>
    96bc:	e5966040 	ldr	r6, [r6, #64]	@ 0x40
    96c0:	e3560000 	cmp	r6, #0
    96c4:	1a000017 	bne	9728 <nrf_stat_print+0xd0>
    96c8:	e2843a02 	add	r3, r4, #8192	@ 0x2000
    96cc:	e5937044 	ldr	r7, [r3, #68]	@ 0x44
    96d0:	e3570000 	cmp	r7, #0
    96d4:	1a000019 	bne	9740 <nrf_stat_print+0xe8>
    96d8:	e2843a02 	add	r3, r4, #8192	@ 0x2000
    96dc:	e5931048 	ldr	r1, [r3, #72]	@ 0x48
    96e0:	e3510000 	cmp	r1, #0
    96e4:	1a00002b 	bne	9798 <nrf_stat_print+0x140>
    96e8:	e2843a02 	add	r3, r4, #8192	@ 0x2000
    96ec:	e593104c 	ldr	r1, [r3, #76]	@ 0x4c
    96f0:	e3510000 	cmp	r1, #0
    96f4:	1a00002a 	bne	97a4 <nrf_stat_print+0x14c>
    96f8:	e2843a02 	add	r3, r4, #8192	@ 0x2000
    96fc:	e5936050 	ldr	r6, [r3, #80]	@ 0x50
    9700:	e3560000 	cmp	r6, #0
    9704:	1a000029 	bne	97b0 <nrf_stat_print+0x158>
    9708:	e2844a02 	add	r4, r4, #8192	@ 0x2000
    970c:	e5946054 	ldr	r6, [r4, #84]	@ 0x54
    9710:	e3560000 	cmp	r6, #0
    9714:	1a00002b 	bne	97c8 <nrf_stat_print+0x170>
    9718:	e28dd014 	add	sp, sp, #20
    971c:	e8bd41f0 	pop	{r4, r5, r6, r7, r8, lr}
    9720:	e28dd00c 	add	sp, sp, #12
    9724:	e12fff1e 	bx	lr
    9728:	e1a00008 	mov	r0, r8
    972c:	eb000b01 	bl	c338 <printk>
    9730:	e1a01006 	mov	r1, r6
    9734:	e59f00f4 	ldr	r0, [pc, #244]	@ 9830 <nrf_stat_print+0x1d8>
    9738:	eb000afe 	bl	c338 <printk>
    973c:	eaffffe1 	b	96c8 <nrf_stat_print+0x70>
    9740:	e59f60ec 	ldr	r6, [pc, #236]	@ 9834 <nrf_stat_print+0x1dc>
    9744:	e0813596 	umull	r3, r1, r6, r5
    9748:	e0670287 	rsb	r0, r7, r7, lsl #5
    974c:	e0870100 	add	r0, r7, r0, lsl #2
    9750:	e1a01321 	lsr	r1, r1, #6
    9754:	e1a00180 	lsl	r0, r0, #3
    9758:	eb0009e2 	bl	bee8 <__udivsi3>
    975c:	e0863096 	umull	r3, r6, r6, r0
    9760:	e1a06326 	lsr	r6, r6, #6
    9764:	e0663286 	rsb	r3, r6, r6, lsl #5
    9768:	e0863103 	add	r3, r6, r3, lsl #2
    976c:	e0408183 	sub	r8, r0, r3, lsl #3
    9770:	e58d6004 	str	r6, [sp, #4]
    9774:	e58d8008 	str	r8, [sp, #8]
    9778:	e59f00a0 	ldr	r0, [pc, #160]	@ 9820 <nrf_stat_print+0x1c8>
    977c:	eb000aed 	bl	c338 <printk>
    9780:	e1a03008 	mov	r3, r8
    9784:	e1a02006 	mov	r2, r6
    9788:	e1a01007 	mov	r1, r7
    978c:	e59f00a4 	ldr	r0, [pc, #164]	@ 9838 <nrf_stat_print+0x1e0>
    9790:	eb000ae8 	bl	c338 <printk>
    9794:	eaffffcf 	b	96d8 <nrf_stat_print+0x80>
    9798:	e59f009c 	ldr	r0, [pc, #156]	@ 983c <nrf_stat_print+0x1e4>
    979c:	eb000ae5 	bl	c338 <printk>
    97a0:	eaffffd0 	b	96e8 <nrf_stat_print+0x90>
    97a4:	e59f0094 	ldr	r0, [pc, #148]	@ 9840 <nrf_stat_print+0x1e8>
    97a8:	eb000ae2 	bl	c338 <printk>
    97ac:	eaffffd1 	b	96f8 <nrf_stat_print+0xa0>
    97b0:	e59f0068 	ldr	r0, [pc, #104]	@ 9820 <nrf_stat_print+0x1c8>
    97b4:	eb000adf 	bl	c338 <printk>
    97b8:	e1a01006 	mov	r1, r6
    97bc:	e59f0080 	ldr	r0, [pc, #128]	@ 9844 <nrf_stat_print+0x1ec>
    97c0:	eb000adc 	bl	c338 <printk>
    97c4:	eaffffcf 	b	9708 <nrf_stat_print+0xb0>
    97c8:	e59f4064 	ldr	r4, [pc, #100]	@ 9834 <nrf_stat_print+0x1dc>
    97cc:	e0813594 	umull	r3, r1, r4, r5
    97d0:	e0660286 	rsb	r0, r6, r6, lsl #5
    97d4:	e0860100 	add	r0, r6, r0, lsl #2
    97d8:	e1a01321 	lsr	r1, r1, #6
    97dc:	e1a00180 	lsl	r0, r0, #3
    97e0:	eb0009c0 	bl	bee8 <__udivsi3>
    97e4:	e0843094 	umull	r3, r4, r4, r0
    97e8:	e1a04324 	lsr	r4, r4, #6
    97ec:	e0643284 	rsb	r3, r4, r4, lsl #5
    97f0:	e0843103 	add	r3, r4, r3, lsl #2
    97f4:	e0405183 	sub	r5, r0, r3, lsl #3
    97f8:	e58d4004 	str	r4, [sp, #4]
    97fc:	e58d5008 	str	r5, [sp, #8]
    9800:	e59f0018 	ldr	r0, [pc, #24]	@ 9820 <nrf_stat_print+0x1c8>
    9804:	eb000acb 	bl	c338 <printk>
    9808:	e1a03005 	mov	r3, r5
    980c:	e1a02004 	mov	r2, r4
    9810:	e1a01006 	mov	r1, r6
    9814:	e59f002c 	ldr	r0, [pc, #44]	@ 9848 <nrf_stat_print+0x1f0>
    9818:	eb000ac6 	bl	c338 <printk>
    981c:	eaffffbd 	b	9718 <nrf_stat_print+0xc0>
    9820:	0000cd90 	.word	0x0000cd90
    9824:	0000d31c 	.word	0x0000d31c
    9828:	0000d5ec 	.word	0x0000d5ec
    982c:	0000ce24 	.word	0x0000ce24
    9830:	0000d5fc 	.word	0x0000d5fc
    9834:	10624dd3 	.word	0x10624dd3
    9838:	0000d618 	.word	0x0000d618
    983c:	0000d648 	.word	0x0000d648
    9840:	0000d65c 	.word	0x0000d65c
    9844:	0000d66c 	.word	0x0000d66c
    9848:	0000d68c 	.word	0x0000d68c

0000984c <cq_pop_nonblock>:
    984c:	e2803a02 	add	r3, r0, #8192	@ 0x2000
    9850:	e5932004 	ldr	r2, [r3, #4]
    9854:	e5933008 	ldr	r3, [r3, #8]
    9858:	e1520003 	cmp	r2, r3
    985c:	0a000008 	beq	9884 <cq_pop_nonblock+0x38>
    9860:	e7d02003 	ldrb	r2, [r0, r3]
    9864:	e5c12000 	strb	r2, [r1]
    9868:	e2833001 	add	r3, r3, #1
    986c:	e1a03983 	lsl	r3, r3, #19
    9870:	e1a039a3 	lsr	r3, r3, #19
    9874:	e2800a02 	add	r0, r0, #8192	@ 0x2000
    9878:	e5803008 	str	r3, [r0, #8]
    987c:	e3a00001 	mov	r0, #1
    9880:	e12fff1e 	bx	lr
    9884:	e3a00000 	mov	r0, #0
    9888:	e12fff1e 	bx	lr

0000988c <cq_pop>:
    988c:	e92d4010 	push	{r4, lr}
    9890:	e24dd008 	sub	sp, sp, #8
    9894:	e1a04000 	mov	r4, r0
    9898:	e3a03000 	mov	r3, #0
    989c:	e5cd3007 	strb	r3, [sp, #7]
    98a0:	e28d1007 	add	r1, sp, #7
    98a4:	e1a00004 	mov	r0, r4
    98a8:	ebffffe7 	bl	984c <cq_pop_nonblock>
    98ac:	e3500000 	cmp	r0, #0
    98b0:	1a000008 	bne	98d8 <cq_pop+0x4c>
    98b4:	e10f3000 	mrs	r3, CPSR
    98b8:	e3130080 	tst	r3, #128	@ 0x80
    98bc:	0afffff7 	beq	98a0 <cq_pop+0x14>
    98c0:	e3a0305f 	mov	r3, #95	@ 0x5f
    98c4:	e59f2018 	ldr	r2, [pc, #24]	@ 98e4 <cq_pop+0x58>
    98c8:	e59f1018 	ldr	r1, [pc, #24]	@ 98e8 <cq_pop+0x5c>
    98cc:	e59f0018 	ldr	r0, [pc, #24]	@ 98ec <cq_pop+0x60>
    98d0:	eb000a98 	bl	c338 <printk>
    98d4:	eb000b8d 	bl	c710 <clean_reboot>
    98d8:	e5dd0007 	ldrb	r0, [sp, #7]
    98dc:	e28dd008 	add	sp, sp, #8
    98e0:	e8bd8010 	pop	{r4, pc}
    98e4:	0000e1d4 	.word	0x0000e1d4
    98e8:	0000d6c0 	.word	0x0000d6c0
    98ec:	0000d708 	.word	0x0000d708

000098f0 <cq_pop_n>:
    98f0:	e92d41f0 	push	{r4, r5, r6, r7, r8, lr}
    98f4:	e1a07000 	mov	r7, r0
    98f8:	e1a06001 	mov	r6, r1
    98fc:	e1a05002 	mov	r5, r2
    9900:	e3a04000 	mov	r4, #0
    9904:	ea000003 	b	9918 <cq_pop_n+0x28>
    9908:	e1a00007 	mov	r0, r7
    990c:	ebffffde 	bl	988c <cq_pop>
    9910:	e7c60004 	strb	r0, [r6, r4]
    9914:	e2844001 	add	r4, r4, #1
    9918:	e1540005 	cmp	r4, r5
    991c:	3afffff9 	bcc	9908 <cq_pop_n+0x18>
    9920:	e8bd81f0 	pop	{r4, r5, r6, r7, r8, pc}

00009924 <timeout_start>:
    9924:	e92d4010 	push	{r4, lr}
    9928:	e1a04000 	mov	r4, r0
    992c:	eb000bf2 	bl	c8fc <timer_get_usec>
    9930:	e5840000 	str	r0, [r4]
    9934:	e3a02000 	mov	r2, #0
    9938:	e3a03000 	mov	r3, #0
    993c:	e1c420f8 	strd	r2, [r4, #8]
    9940:	e1a00004 	mov	r0, r4
    9944:	e8bd8010 	pop	{r4, pc}

00009948 <nrf_nbytes_avail>:
    9948:	e92d4010 	push	{r4, lr}
    994c:	e1a04000 	mov	r4, r0
    9950:	e1a00004 	mov	r0, r4
    9954:	eb0004a8 	bl	abfc <nrf_get_pkts>
    9958:	e3500000 	cmp	r0, #0
    995c:	1afffffb 	bne	9950 <nrf_nbytes_avail+0x8>
    9960:	e2844a02 	add	r4, r4, #8192	@ 0x2000
    9964:	e5940028 	ldr	r0, [r4, #40]	@ 0x28
    9968:	e594302c 	ldr	r3, [r4, #44]	@ 0x2c
    996c:	e0400003 	sub	r0, r0, r3
    9970:	e1a00980 	lsl	r0, r0, #19
    9974:	e1a009a0 	lsr	r0, r0, #19
    9978:	e8bd8010 	pop	{r4, pc}

0000997c <nrf_read_exact_noblk>:
    997c:	e92d4070 	push	{r4, r5, r6, lr}
    9980:	e24dd008 	sub	sp, sp, #8
    9984:	e2524000 	subs	r4, r2, #0
    9988:	0a000007 	beq	99ac <nrf_read_exact_noblk+0x30>
    998c:	e1a05000 	mov	r5, r0
    9990:	e1a06001 	mov	r6, r1
    9994:	ebffffeb 	bl	9948 <nrf_nbytes_avail>
    9998:	e1540000 	cmp	r4, r0
    999c:	9a00000a 	bls	99cc <nrf_read_exact_noblk+0x50>
    99a0:	e3a00000 	mov	r0, #0
    99a4:	e28dd008 	add	sp, sp, #8
    99a8:	e8bd8070 	pop	{r4, r5, r6, pc}
    99ac:	e59f3030 	ldr	r3, [pc, #48]	@ 99e4 <nrf_read_exact_noblk+0x68>
    99b0:	e58d3000 	str	r3, [sp]
    99b4:	e3a0301b 	mov	r3, #27
    99b8:	e59f2028 	ldr	r2, [pc, #40]	@ 99e8 <nrf_read_exact_noblk+0x6c>
    99bc:	e59f1028 	ldr	r1, [pc, #40]	@ 99ec <nrf_read_exact_noblk+0x70>
    99c0:	e59f0028 	ldr	r0, [pc, #40]	@ 99f0 <nrf_read_exact_noblk+0x74>
    99c4:	eb000a5b 	bl	c338 <printk>
    99c8:	eb000b50 	bl	c710 <clean_reboot>
    99cc:	e1a02004 	mov	r2, r4
    99d0:	e1a01006 	mov	r1, r6
    99d4:	e2850024 	add	r0, r5, #36	@ 0x24
    99d8:	ebffffc4 	bl	98f0 <cq_pop_n>
    99dc:	e1a00004 	mov	r0, r4
    99e0:	eaffffef 	b	99a4 <nrf_read_exact_noblk+0x28>
    99e4:	0000d0a0 	.word	0x0000d0a0
    99e8:	0000e1dc 	.word	0x0000e1dc
    99ec:	0000d748 	.word	0x0000d748
    99f0:	0000cd08 	.word	0x0000cd08

000099f4 <nrf_read_exact_timeout>:
    99f4:	e92d40f0 	push	{r4, r5, r6, r7, lr}
    99f8:	e24dd014 	sub	sp, sp, #20
    99fc:	e1a06000 	mov	r6, r0
    9a00:	e1a05001 	mov	r5, r1
    9a04:	e1a04002 	mov	r4, r2
    9a08:	e1a07003 	mov	r7, r3
    9a0c:	e1a0000d 	mov	r0, sp
    9a10:	ebffffc3 	bl	9924 <timeout_start>
    9a14:	ea000000 	b	9a1c <nrf_read_exact_timeout+0x28>
    9a18:	eb000bb1 	bl	c8e4 <rpi_wait>
    9a1c:	e1a02004 	mov	r2, r4
    9a20:	e1a01005 	mov	r1, r5
    9a24:	e1a00006 	mov	r0, r6
    9a28:	ebffffd3 	bl	997c <nrf_read_exact_noblk>
    9a2c:	e3500000 	cmp	r0, #0
    9a30:	1a00000d 	bne	9a6c <nrf_read_exact_timeout+0x78>
    9a34:	eb000bb0 	bl	c8fc <timer_get_usec>
    9a38:	e59dc008 	ldr	ip, [sp, #8]
    9a3c:	e59d3000 	ldr	r3, [sp]
    9a40:	e0403003 	sub	r3, r0, r3
    9a44:	e09cc003 	adds	ip, ip, r3
    9a48:	e59de00c 	ldr	lr, [sp, #12]
    9a4c:	e2aee000 	adc	lr, lr, #0
    9a50:	e58dc008 	str	ip, [sp, #8]
    9a54:	e58de00c 	str	lr, [sp, #12]
    9a58:	e58d0000 	str	r0, [sp]
    9a5c:	e15c0007 	cmp	ip, r7
    9a60:	e2dee000 	sbcs	lr, lr, #0
    9a64:	3affffeb 	bcc	9a18 <nrf_read_exact_timeout+0x24>
    9a68:	e3e00000 	mvn	r0, #0
    9a6c:	e28dd014 	add	sp, sp, #20
    9a70:	e8bd80f0 	pop	{r4, r5, r6, r7, pc}

00009a74 <nrf_read_exact>:
    9a74:	e92d4030 	push	{r4, r5, lr}
    9a78:	e24dd014 	sub	sp, sp, #20
    9a7c:	e1a05000 	mov	r5, r0
    9a80:	e1a04002 	mov	r4, r2
    9a84:	e59f303c 	ldr	r3, [pc, #60]	@ 9ac8 <nrf_read_exact+0x54>
    9a88:	ebffffd9 	bl	99f4 <nrf_read_exact_timeout>
    9a8c:	e1500004 	cmp	r0, r4
    9a90:	1a000001 	bne	9a9c <nrf_read_exact+0x28>
    9a94:	e28dd014 	add	sp, sp, #20
    9a98:	e8bd8030 	pop	{r4, r5, pc}
    9a9c:	e3a0300a 	mov	r3, #10
    9aa0:	e58d3008 	str	r3, [sp, #8]
    9aa4:	e58d0004 	str	r0, [sp, #4]
    9aa8:	e5953020 	ldr	r3, [r5, #32]
    9aac:	e58d3000 	str	r3, [sp]
    9ab0:	e3a03048 	mov	r3, #72	@ 0x48
    9ab4:	e59f2010 	ldr	r2, [pc, #16]	@ 9acc <nrf_read_exact+0x58>
    9ab8:	e59f1010 	ldr	r1, [pc, #16]	@ 9ad0 <nrf_read_exact+0x5c>
    9abc:	e59f0010 	ldr	r0, [pc, #16]	@ 9ad4 <nrf_read_exact+0x60>
    9ac0:	eb000a1c 	bl	c338 <printk>
    9ac4:	eb000b11 	bl	c710 <clean_reboot>
    9ac8:	00989680 	.word	0x00989680
    9acc:	0000e1f4 	.word	0x0000e1f4
    9ad0:	0000d748 	.word	0x0000d748
    9ad4:	0000d758 	.word	0x0000d758

00009ad8 <nrf_send_ack>:
    9ad8:	e92d4010 	push	{r4, lr}
    9adc:	eb0004b7 	bl	adc0 <nrf_tx_send_ack>
    9ae0:	e8bd8010 	pop	{r4, pc}

00009ae4 <nrf_send_noack>:
    9ae4:	e92d4010 	push	{r4, lr}
    9ae8:	eb0005e6 	bl	b288 <nrf_tx_send_noack>
    9aec:	e8bd8010 	pop	{r4, pc}

00009af0 <cq_pop_nonblock>:
    9af0:	e2803a02 	add	r3, r0, #8192	@ 0x2000
    9af4:	e5932004 	ldr	r2, [r3, #4]
    9af8:	e5933008 	ldr	r3, [r3, #8]
    9afc:	e1520003 	cmp	r2, r3
    9b00:	0a000008 	beq	9b28 <cq_pop_nonblock+0x38>
    9b04:	e7d02003 	ldrb	r2, [r0, r3]
    9b08:	e5c12000 	strb	r2, [r1]
    9b0c:	e2833001 	add	r3, r3, #1
    9b10:	e1a03983 	lsl	r3, r3, #19
    9b14:	e1a039a3 	lsr	r3, r3, #19
    9b18:	e2800a02 	add	r0, r0, #8192	@ 0x2000
    9b1c:	e5803008 	str	r3, [r0, #8]
    9b20:	e3a00001 	mov	r0, #1
    9b24:	e12fff1e 	bx	lr
    9b28:	e3a00000 	mov	r0, #0
    9b2c:	e12fff1e 	bx	lr

00009b30 <pipeid_empty>:
    9b30:	e3500007 	cmp	r0, #7
    9b34:	13a00000 	movne	r0, #0
    9b38:	03a00001 	moveq	r0, #1
    9b3c:	e12fff1e 	bx	lr

00009b40 <bit_is_on>:
    9b40:	e351001f 	cmp	r1, #31
    9b44:	8a000002 	bhi	9b54 <bit_is_on+0x14>
    9b48:	e1a00130 	lsr	r0, r0, r1
    9b4c:	e2000001 	and	r0, r0, #1
    9b50:	e12fff1e 	bx	lr
    9b54:	e52de004 	push	{lr}		@ (str lr, [sp, #-4]!)
    9b58:	e24dd00c 	sub	sp, sp, #12
    9b5c:	e59f3018 	ldr	r3, [pc, #24]	@ 9b7c <bit_is_on+0x3c>
    9b60:	e58d3000 	str	r3, [sp]
    9b64:	e3a0301f 	mov	r3, #31
    9b68:	e59f2010 	ldr	r2, [pc, #16]	@ 9b80 <bit_is_on+0x40>
    9b6c:	e59f1010 	ldr	r1, [pc, #16]	@ 9b84 <bit_is_on+0x44>
    9b70:	e59f0010 	ldr	r0, [pc, #16]	@ 9b88 <bit_is_on+0x48>
    9b74:	eb0009ef 	bl	c338 <printk>
    9b78:	eb000ae4 	bl	c710 <clean_reboot>
    9b7c:	0000cfcc 	.word	0x0000cfcc
    9b80:	0000e204 	.word	0x0000e204
    9b84:	0000cf80 	.word	0x0000cf80
    9b88:	0000cd08 	.word	0x0000cd08

00009b8c <bits_mask>:
    9b8c:	e3500020 	cmp	r0, #32
    9b90:	0a00000f 	beq	9bd4 <bits_mask+0x48>
    9b94:	e350001f 	cmp	r0, #31
    9b98:	8a000003 	bhi	9bac <bits_mask+0x20>
    9b9c:	e3a03001 	mov	r3, #1
    9ba0:	e1a00013 	lsl	r0, r3, r0
    9ba4:	e2400001 	sub	r0, r0, #1
    9ba8:	e12fff1e 	bx	lr
    9bac:	e52de004 	push	{lr}		@ (str lr, [sp, #-4]!)
    9bb0:	e24dd00c 	sub	sp, sp, #12
    9bb4:	e59f3020 	ldr	r3, [pc, #32]	@ 9bdc <bits_mask+0x50>
    9bb8:	e58d3000 	str	r3, [sp]
    9bbc:	e3a03033 	mov	r3, #51	@ 0x33
    9bc0:	e59f2018 	ldr	r2, [pc, #24]	@ 9be0 <bits_mask+0x54>
    9bc4:	e59f1018 	ldr	r1, [pc, #24]	@ 9be4 <bits_mask+0x58>
    9bc8:	e59f0018 	ldr	r0, [pc, #24]	@ 9be8 <bits_mask+0x5c>
    9bcc:	eb0009d9 	bl	c338 <printk>
    9bd0:	eb000ace 	bl	c710 <clean_reboot>
    9bd4:	e3e00000 	mvn	r0, #0
    9bd8:	e12fff1e 	bx	lr
    9bdc:	0000cfd4 	.word	0x0000cfd4
    9be0:	0000e210 	.word	0x0000e210
    9be4:	0000cf80 	.word	0x0000cf80
    9be8:	0000cd08 	.word	0x0000cd08

00009bec <bits_get>:
    9bec:	e92d4010 	push	{r4, lr}
    9bf0:	e24dd008 	sub	sp, sp, #8
    9bf4:	e1510002 	cmp	r1, r2
    9bf8:	8a000008 	bhi	9c20 <bits_get+0x34>
    9bfc:	e352001f 	cmp	r2, #31
    9c00:	8a00000e 	bhi	9c40 <bits_get+0x54>
    9c04:	e1a04130 	lsr	r4, r0, r1
    9c08:	e0422001 	sub	r2, r2, r1
    9c0c:	e2820001 	add	r0, r2, #1
    9c10:	ebffffdd 	bl	9b8c <bits_mask>
    9c14:	e0000004 	and	r0, r0, r4
    9c18:	e28dd008 	add	sp, sp, #8
    9c1c:	e8bd8010 	pop	{r4, pc}
    9c20:	e59f3038 	ldr	r3, [pc, #56]	@ 9c60 <bits_get+0x74>
    9c24:	e58d3000 	str	r3, [sp]
    9c28:	e3a0303a 	mov	r3, #58	@ 0x3a
    9c2c:	e59f2030 	ldr	r2, [pc, #48]	@ 9c64 <bits_get+0x78>
    9c30:	e59f1030 	ldr	r1, [pc, #48]	@ 9c68 <bits_get+0x7c>
    9c34:	e59f0030 	ldr	r0, [pc, #48]	@ 9c6c <bits_get+0x80>
    9c38:	eb0009be 	bl	c338 <printk>
    9c3c:	eb000ab3 	bl	c710 <clean_reboot>
    9c40:	e59f3028 	ldr	r3, [pc, #40]	@ 9c70 <bits_get+0x84>
    9c44:	e58d3000 	str	r3, [sp]
    9c48:	e3a0303b 	mov	r3, #59	@ 0x3b
    9c4c:	e59f2010 	ldr	r2, [pc, #16]	@ 9c64 <bits_get+0x78>
    9c50:	e59f1010 	ldr	r1, [pc, #16]	@ 9c68 <bits_get+0x7c>
    9c54:	e59f0010 	ldr	r0, [pc, #16]	@ 9c6c <bits_get+0x80>
    9c58:	eb0009b6 	bl	c338 <printk>
    9c5c:	eb000aab 	bl	c710 <clean_reboot>
    9c60:	0000cfec 	.word	0x0000cfec
    9c64:	0000e21c 	.word	0x0000e21c
    9c68:	0000cf80 	.word	0x0000cf80
    9c6c:	0000cd08 	.word	0x0000cd08
    9c70:	0000cff8 	.word	0x0000cff8

00009c74 <cq_push>:
    9c74:	e2802a02 	add	r2, r0, #8192	@ 0x2000
    9c78:	e5923004 	ldr	r3, [r2, #4]
    9c7c:	e2833001 	add	r3, r3, #1
    9c80:	e1a03983 	lsl	r3, r3, #19
    9c84:	e1a039a3 	lsr	r3, r3, #19
    9c88:	e5922008 	ldr	r2, [r2, #8]
    9c8c:	e1530002 	cmp	r3, r2
    9c90:	0a00001b 	beq	9d04 <cq_push+0x90>
    9c94:	e2803a02 	add	r3, r0, #8192	@ 0x2000
    9c98:	e5932004 	ldr	r2, [r3, #4]
    9c9c:	e593c004 	ldr	ip, [r3, #4]
    9ca0:	e5933008 	ldr	r3, [r3, #8]
    9ca4:	e043300c 	sub	r3, r3, ip
    9ca8:	e2433001 	sub	r3, r3, #1
    9cac:	e1a03983 	lsl	r3, r3, #19
    9cb0:	e1a039a3 	lsr	r3, r3, #19
    9cb4:	e3530000 	cmp	r3, #0
    9cb8:	0a000007 	beq	9cdc <cq_push+0x68>
    9cbc:	e7c01002 	strb	r1, [r0, r2]
    9cc0:	e2823001 	add	r3, r2, #1
    9cc4:	e1a03983 	lsl	r3, r3, #19
    9cc8:	e1a039a3 	lsr	r3, r3, #19
    9ccc:	e2800a02 	add	r0, r0, #8192	@ 0x2000
    9cd0:	e5803004 	str	r3, [r0, #4]
    9cd4:	e3a00001 	mov	r0, #1
    9cd8:	e12fff1e 	bx	lr
    9cdc:	e52de004 	push	{lr}		@ (str lr, [sp, #-4]!)
    9ce0:	e24dd00c 	sub	sp, sp, #12
    9ce4:	e59f3020 	ldr	r3, [pc, #32]	@ 9d0c <cq_push+0x98>
    9ce8:	e58d3000 	str	r3, [sp]
    9cec:	e3a0306a 	mov	r3, #106	@ 0x6a
    9cf0:	e59f2018 	ldr	r2, [pc, #24]	@ 9d10 <cq_push+0x9c>
    9cf4:	e59f1018 	ldr	r1, [pc, #24]	@ 9d14 <cq_push+0xa0>
    9cf8:	e59f0018 	ldr	r0, [pc, #24]	@ 9d18 <cq_push+0xa4>
    9cfc:	eb00098d 	bl	c338 <printk>
    9d00:	eb000a82 	bl	c710 <clean_reboot>
    9d04:	e3a00000 	mov	r0, #0
    9d08:	e12fff1e 	bx	lr
    9d0c:	0000d7a8 	.word	0x0000d7a8
    9d10:	0000e228 	.word	0x0000e228
    9d14:	0000d6c0 	.word	0x0000d6c0
    9d18:	0000cd08 	.word	0x0000cd08

00009d1c <cq_push_n>:
    9d1c:	e92d40f0 	push	{r4, r5, r6, r7, lr}
    9d20:	e24dd00c 	sub	sp, sp, #12
    9d24:	e2525000 	subs	r5, r2, #0
    9d28:	0a000014 	beq	9d80 <cq_push_n+0x64>
    9d2c:	e1a06000 	mov	r6, r0
    9d30:	e1a07001 	mov	r7, r1
    9d34:	e2803a02 	add	r3, r0, #8192	@ 0x2000
    9d38:	e5932004 	ldr	r2, [r3, #4]
    9d3c:	e5933008 	ldr	r3, [r3, #8]
    9d40:	e0433002 	sub	r3, r3, r2
    9d44:	e2433001 	sub	r3, r3, #1
    9d48:	e1a03983 	lsl	r3, r3, #19
    9d4c:	e1a039a3 	lsr	r3, r3, #19
    9d50:	e1550003 	cmp	r5, r3
    9d54:	8a00001a 	bhi	9dc4 <cq_push_n+0xa8>
    9d58:	e3a04000 	mov	r4, #0
    9d5c:	e1540005 	cmp	r4, r5
    9d60:	2a000014 	bcs	9db8 <cq_push_n+0x9c>
    9d64:	e7d71004 	ldrb	r1, [r7, r4]
    9d68:	e1a00006 	mov	r0, r6
    9d6c:	ebffffc0 	bl	9c74 <cq_push>
    9d70:	e3500000 	cmp	r0, #0
    9d74:	0a000009 	beq	9da0 <cq_push_n+0x84>
    9d78:	e2844001 	add	r4, r4, #1
    9d7c:	eafffff6 	b	9d5c <cq_push_n+0x40>
    9d80:	e59f3044 	ldr	r3, [pc, #68]	@ 9dcc <cq_push_n+0xb0>
    9d84:	e58d3000 	str	r3, [sp]
    9d88:	e3a030a1 	mov	r3, #161	@ 0xa1
    9d8c:	e59f203c 	ldr	r2, [pc, #60]	@ 9dd0 <cq_push_n+0xb4>
    9d90:	e59f103c 	ldr	r1, [pc, #60]	@ 9dd4 <cq_push_n+0xb8>
    9d94:	e59f003c 	ldr	r0, [pc, #60]	@ 9dd8 <cq_push_n+0xbc>
    9d98:	eb000966 	bl	c338 <printk>
    9d9c:	eb000a5b 	bl	c710 <clean_reboot>
    9da0:	e3a030aa 	mov	r3, #170	@ 0xaa
    9da4:	e59f2024 	ldr	r2, [pc, #36]	@ 9dd0 <cq_push_n+0xb4>
    9da8:	e59f1024 	ldr	r1, [pc, #36]	@ 9dd4 <cq_push_n+0xb8>
    9dac:	e59f0028 	ldr	r0, [pc, #40]	@ 9ddc <cq_push_n+0xc0>
    9db0:	eb000960 	bl	c338 <printk>
    9db4:	eb000a55 	bl	c710 <clean_reboot>
    9db8:	e3a00001 	mov	r0, #1
    9dbc:	e28dd00c 	add	sp, sp, #12
    9dc0:	e8bd80f0 	pop	{r4, r5, r6, r7, pc}
    9dc4:	e3a00000 	mov	r0, #0
    9dc8:	eafffffb 	b	9dbc <cq_push_n+0xa0>
    9dcc:	0000d7bc 	.word	0x0000d7bc
    9dd0:	0000e230 	.word	0x0000e230
    9dd4:	0000d6c0 	.word	0x0000d6c0
    9dd8:	0000cd08 	.word	0x0000cd08
    9ddc:	0000d7c0 	.word	0x0000d7c0

00009de0 <nrf_rx_get_pipeid>:
    9de0:	e92d4010 	push	{r4, lr}
    9de4:	e3a01007 	mov	r1, #7
    9de8:	ebfffa8b 	bl	881c <nrf_get8>
    9dec:	e3a02003 	mov	r2, #3
    9df0:	e3a01001 	mov	r1, #1
    9df4:	ebffff7c 	bl	9bec <bits_get>
    9df8:	e8bd8010 	pop	{r4, pc}

00009dfc <nrf_pipe_is_enabled>:
    9dfc:	e92d4010 	push	{r4, lr}
    9e00:	e1a04001 	mov	r4, r1
    9e04:	e3a01002 	mov	r1, #2
    9e08:	ebfffa83 	bl	881c <nrf_get8>
    9e0c:	e1a01004 	mov	r1, r4
    9e10:	ebffff4a 	bl	9b40 <bit_is_on>
    9e14:	e3500001 	cmp	r0, #1
    9e18:	13a00000 	movne	r0, #0
    9e1c:	03a00001 	moveq	r0, #1
    9e20:	e8bd8010 	pop	{r4, pc}

00009e24 <nrf_pipe_is_acked>:
    9e24:	e92d4010 	push	{r4, lr}
    9e28:	e1a04001 	mov	r4, r1
    9e2c:	e3a01001 	mov	r1, #1
    9e30:	ebfffa79 	bl	881c <nrf_get8>
    9e34:	e1a01004 	mov	r1, r4
    9e38:	ebffff40 	bl	9b40 <bit_is_on>
    9e3c:	e3500001 	cmp	r0, #1
    9e40:	13a00000 	movne	r0, #0
    9e44:	03a00001 	moveq	r0, #1
    9e48:	e8bd8010 	pop	{r4, pc}

00009e4c <nrf_stat_start>:
    9e4c:	e92d4010 	push	{r4, lr}
    9e50:	e1a04000 	mov	r4, r0
    9e54:	eb000aa8 	bl	c8fc <timer_get_usec>
    9e58:	e2843a02 	add	r3, r4, #8192	@ 0x2000
    9e5c:	e583003c 	str	r0, [r3, #60]	@ 0x3c
    9e60:	e3a02000 	mov	r2, #0
    9e64:	e5832040 	str	r2, [r3, #64]	@ 0x40
    9e68:	e5832044 	str	r2, [r3, #68]	@ 0x44
    9e6c:	e5832048 	str	r2, [r3, #72]	@ 0x48
    9e70:	e583204c 	str	r2, [r3, #76]	@ 0x4c
    9e74:	e5832050 	str	r2, [r3, #80]	@ 0x50
    9e78:	e5832054 	str	r2, [r3, #84]	@ 0x54
    9e7c:	e8bd8010 	pop	{r4, pc}

00009e80 <cq_init>:
    9e80:	e92d4030 	push	{r4, r5, lr}
    9e84:	e24dd014 	sub	sp, sp, #20
    9e88:	e1a05000 	mov	r5, r0
    9e8c:	e1a04001 	mov	r4, r1
    9e90:	e59f2134 	ldr	r2, [pc, #308]	@ 9fcc <cq_init+0x14c>
    9e94:	e3a01000 	mov	r1, #0
    9e98:	eb000900 	bl	c2a0 <memset>
    9e9c:	e2853a02 	add	r3, r5, #8192	@ 0x2000
    9ea0:	e59f2128 	ldr	r2, [pc, #296]	@ 9fd0 <cq_init+0x150>
    9ea4:	e5832000 	str	r2, [r3]
    9ea8:	e3a02000 	mov	r2, #0
    9eac:	e5832008 	str	r2, [r3, #8]
    9eb0:	e5832004 	str	r2, [r3, #4]
    9eb4:	e583200c 	str	r2, [r3, #12]
    9eb8:	e5d32010 	ldrb	r2, [r3, #16]
    9ebc:	e2044001 	and	r4, r4, #1
    9ec0:	e3c22001 	bic	r2, r2, #1
    9ec4:	e1844002 	orr	r4, r4, r2
    9ec8:	e5c34010 	strb	r4, [r3, #16]
    9ecc:	e5932004 	ldr	r2, [r3, #4]
    9ed0:	e5933008 	ldr	r3, [r3, #8]
    9ed4:	e1520003 	cmp	r2, r3
    9ed8:	1a00001b 	bne	9f4c <cq_init+0xcc>
    9edc:	e2852a02 	add	r2, r5, #8192	@ 0x2000
    9ee0:	e5923004 	ldr	r3, [r2, #4]
    9ee4:	e2833001 	add	r3, r3, #1
    9ee8:	e1a03983 	lsl	r3, r3, #19
    9eec:	e1a039a3 	lsr	r3, r3, #19
    9ef0:	e5922008 	ldr	r2, [r2, #8]
    9ef4:	e1530002 	cmp	r3, r2
    9ef8:	0a00001b 	beq	9f6c <cq_init+0xec>
    9efc:	e2852a02 	add	r2, r5, #8192	@ 0x2000
    9f00:	e5923004 	ldr	r3, [r2, #4]
    9f04:	e5922008 	ldr	r2, [r2, #8]
    9f08:	e0433002 	sub	r3, r3, r2
    9f0c:	e1a03983 	lsl	r3, r3, #19
    9f10:	e1a039a3 	lsr	r3, r3, #19
    9f14:	e3530000 	cmp	r3, #0
    9f18:	1a00001b 	bne	9f8c <cq_init+0x10c>
    9f1c:	e3a03012 	mov	r3, #18
    9f20:	e5cd300f 	strb	r3, [sp, #15]
    9f24:	e28d100f 	add	r1, sp, #15
    9f28:	e1a00005 	mov	r0, r5
    9f2c:	ebfffeef 	bl	9af0 <cq_pop_nonblock>
    9f30:	e3500000 	cmp	r0, #0
    9f34:	1a00001c 	bne	9fac <cq_init+0x12c>
    9f38:	e5dd300f 	ldrb	r3, [sp, #15]
    9f3c:	e3530012 	cmp	r3, #18
    9f40:	1a000019 	bne	9fac <cq_init+0x12c>
    9f44:	e28dd014 	add	sp, sp, #20
    9f48:	e8bd8030 	pop	{r4, r5, pc}
    9f4c:	e59f3080 	ldr	r3, [pc, #128]	@ 9fd4 <cq_init+0x154>
    9f50:	e58d3000 	str	r3, [sp]
    9f54:	e3a030d3 	mov	r3, #211	@ 0xd3
    9f58:	e59f2078 	ldr	r2, [pc, #120]	@ 9fd8 <cq_init+0x158>
    9f5c:	e59f1078 	ldr	r1, [pc, #120]	@ 9fdc <cq_init+0x15c>
    9f60:	e59f0078 	ldr	r0, [pc, #120]	@ 9fe0 <cq_init+0x160>
    9f64:	eb0008f3 	bl	c338 <printk>
    9f68:	eb0009e8 	bl	c710 <clean_reboot>
    9f6c:	e59f3070 	ldr	r3, [pc, #112]	@ 9fe4 <cq_init+0x164>
    9f70:	e58d3000 	str	r3, [sp]
    9f74:	e3a030d4 	mov	r3, #212	@ 0xd4
    9f78:	e59f2058 	ldr	r2, [pc, #88]	@ 9fd8 <cq_init+0x158>
    9f7c:	e59f1058 	ldr	r1, [pc, #88]	@ 9fdc <cq_init+0x15c>
    9f80:	e59f0058 	ldr	r0, [pc, #88]	@ 9fe0 <cq_init+0x160>
    9f84:	eb0008eb 	bl	c338 <printk>
    9f88:	eb0009e0 	bl	c710 <clean_reboot>
    9f8c:	e59f3054 	ldr	r3, [pc, #84]	@ 9fe8 <cq_init+0x168>
    9f90:	e58d3000 	str	r3, [sp]
    9f94:	e3a030d5 	mov	r3, #213	@ 0xd5
    9f98:	e59f2038 	ldr	r2, [pc, #56]	@ 9fd8 <cq_init+0x158>
    9f9c:	e59f1038 	ldr	r1, [pc, #56]	@ 9fdc <cq_init+0x15c>
    9fa0:	e59f0038 	ldr	r0, [pc, #56]	@ 9fe0 <cq_init+0x160>
    9fa4:	eb0008e3 	bl	c338 <printk>
    9fa8:	eb0009d8 	bl	c710 <clean_reboot>
    9fac:	e59f3038 	ldr	r3, [pc, #56]	@ 9fec <cq_init+0x16c>
    9fb0:	e58d3000 	str	r3, [sp]
    9fb4:	e3a030d7 	mov	r3, #215	@ 0xd7
    9fb8:	e59f2018 	ldr	r2, [pc, #24]	@ 9fd8 <cq_init+0x158>
    9fbc:	e59f1018 	ldr	r1, [pc, #24]	@ 9fdc <cq_init+0x15c>
    9fc0:	e59f0018 	ldr	r0, [pc, #24]	@ 9fe0 <cq_init+0x160>
    9fc4:	eb0008db 	bl	c338 <printk>
    9fc8:	eb0009d0 	bl	c710 <clean_reboot>
    9fcc:	00002014 	.word	0x00002014
    9fd0:	12345678 	.word	0x12345678
    9fd4:	0000d7f8 	.word	0x0000d7f8
    9fd8:	0000e23c 	.word	0x0000e23c
    9fdc:	0000d6c0 	.word	0x0000d6c0
    9fe0:	0000cd08 	.word	0x0000cd08
    9fe4:	0000d804 	.word	0x0000d804
    9fe8:	0000d810 	.word	0x0000d810
    9fec:	0000d824 	.word	0x0000d824

00009ff0 <nrf_rx_has_packet>:
    9ff0:	e92d4010 	push	{r4, lr}
    9ff4:	e3a02000 	mov	r2, #0
    9ff8:	e3a01017 	mov	r1, #23
    9ffc:	ebfffb0f 	bl	8c40 <nrf_bit_isset>
    a000:	e16f0f10 	clz	r0, r0
    a004:	e1a002a0 	lsr	r0, r0, #5
    a008:	e8bd8010 	pop	{r4, pc}

0000a00c <nrf_init>:
    a00c:	e92d4ff0 	push	{r4, r5, r6, r7, r8, r9, sl, fp, lr}
    a010:	e24ddf45 	sub	sp, sp, #276	@ 0x114
    a014:	e28d5020 	add	r5, sp, #32
    a018:	e8850003 	stm	r5, {r0, r1}
    a01c:	e1a06002 	mov	r6, r2
    a020:	e1a07003 	mov	r7, r3
    a024:	e59f0b54 	ldr	r0, [pc, #2900]	@ ab80 <nrf_init+0xb74>
    a028:	eb0005ff 	bl	b82c <kmalloc>
    a02c:	e1a04000 	mov	r4, r0
    a030:	e8950003 	ldm	r5, {r0, r1}
    a034:	e5840000 	str	r0, [r4]
    a038:	e5c41004 	strb	r1, [r4, #4]
    a03c:	e1a00004 	mov	r0, r4
    a040:	ebffff81 	bl	9e4c <nrf_stat_start>
    a044:	e5dd8021 	ldrb	r8, [sp, #33]	@ 0x21
    a048:	e28d5008 	add	r5, sp, #8
    a04c:	e5dd2020 	ldrb	r2, [sp, #32]
    a050:	e1a01008 	mov	r1, r8
    a054:	e1a00005 	mov	r0, r5
    a058:	ebfff9bd 	bl	8754 <nrf_spi_init>
    a05c:	e284e008 	add	lr, r4, #8
    a060:	e1a0c005 	mov	ip, r5
    a064:	e8bc000f 	ldm	ip!, {r0, r1, r2, r3}
    a068:	e8ae000f 	stmia	lr!, {r0, r1, r2, r3}
    a06c:	e89c0003 	ldm	ip, {r0, r1}
    a070:	e88e0003 	stm	lr, {r0, r1}
    a074:	e5846020 	str	r6, [r4, #32]
    a078:	e3a01001 	mov	r1, #1
    a07c:	e2840024 	add	r0, r4, #36	@ 0x24
    a080:	ebffff7e 	bl	9e80 <cq_init>
    a084:	e59f3af8 	ldr	r3, [pc, #2808]	@ ab84 <nrf_init+0xb78>
    a088:	e58d302c 	str	r3, [sp, #44]	@ 0x2c
    a08c:	e59f3af4 	ldr	r3, [pc, #2804]	@ ab88 <nrf_init+0xb7c>
    a090:	e58d3030 	str	r3, [sp, #48]	@ 0x30
    a094:	e3a0306c 	mov	r3, #108	@ 0x6c
    a098:	e58d3034 	str	r3, [sp, #52]	@ 0x34
    a09c:	e3a05000 	mov	r5, #0
    a0a0:	e58d5004 	str	r5, [sp, #4]
    a0a4:	e58d5000 	str	r5, [sp]
    a0a8:	e1a03004 	mov	r3, r4
    a0ac:	e28d202c 	add	r2, sp, #44	@ 0x2c
    a0b0:	e8920007 	ldm	r2, {r0, r1, r2}
    a0b4:	ebfffa02 	bl	88c4 <nrf_put8_chk_helper>
    a0b8:	e1a01005 	mov	r1, r5
    a0bc:	e1a00004 	mov	r0, r4
    a0c0:	ebfff9d5 	bl	881c <nrf_get8>
    a0c4:	e3100002 	tst	r0, #2
    a0c8:	1a000068 	bne	a270 <nrf_init+0x264>
    a0cc:	e59f3ab0 	ldr	r3, [pc, #2736]	@ ab84 <nrf_init+0xb78>
    a0d0:	e58d3038 	str	r3, [sp, #56]	@ 0x38
    a0d4:	e59f3aac 	ldr	r3, [pc, #2732]	@ ab88 <nrf_init+0xb7c>
    a0d8:	e58d303c 	str	r3, [sp, #60]	@ 0x3c
    a0dc:	e3a03070 	mov	r3, #112	@ 0x70
    a0e0:	e58d3040 	str	r3, [sp, #64]	@ 0x40
    a0e4:	e3a03000 	mov	r3, #0
    a0e8:	e58d3004 	str	r3, [sp, #4]
    a0ec:	e3a03002 	mov	r3, #2
    a0f0:	e58d3000 	str	r3, [sp]
    a0f4:	e1a03004 	mov	r3, r4
    a0f8:	e28d2038 	add	r2, sp, #56	@ 0x38
    a0fc:	e8920007 	ldm	r2, {r0, r1, r2}
    a100:	ebfff9ef 	bl	88c4 <nrf_put8_chk_helper>
    a104:	e3570000 	cmp	r7, #0
    a108:	1a000078 	bne	a2f0 <nrf_init+0x2e4>
    a10c:	e59f9a70 	ldr	r9, [pc, #2672]	@ ab84 <nrf_init+0xb78>
    a110:	e58d9044 	str	r9, [sp, #68]	@ 0x44
    a114:	e59f5a6c 	ldr	r5, [pc, #2668]	@ ab88 <nrf_init+0xb7c>
    a118:	e58d5048 	str	r5, [sp, #72]	@ 0x48
    a11c:	e3a03079 	mov	r3, #121	@ 0x79
    a120:	e58d304c 	str	r3, [sp, #76]	@ 0x4c
    a124:	e3a0b000 	mov	fp, #0
    a128:	e58db004 	str	fp, [sp, #4]
    a12c:	e3a0a001 	mov	sl, #1
    a130:	e58da000 	str	sl, [sp]
    a134:	e1a03004 	mov	r3, r4
    a138:	e28d2044 	add	r2, sp, #68	@ 0x44
    a13c:	e8920007 	ldm	r2, {r0, r1, r2}
    a140:	ebfff9df 	bl	88c4 <nrf_put8_chk_helper>
    a144:	e58d9050 	str	r9, [sp, #80]	@ 0x50
    a148:	e58d5054 	str	r5, [sp, #84]	@ 0x54
    a14c:	e3a0307b 	mov	r3, #123	@ 0x7b
    a150:	e58d3058 	str	r3, [sp, #88]	@ 0x58
    a154:	e3a03002 	mov	r3, #2
    a158:	e58d3004 	str	r3, [sp, #4]
    a15c:	e58d3000 	str	r3, [sp]
    a160:	e1a03004 	mov	r3, r4
    a164:	e28d2050 	add	r2, sp, #80	@ 0x50
    a168:	e8920007 	ldm	r2, {r0, r1, r2}
    a16c:	ebfff9d4 	bl	88c4 <nrf_put8_chk_helper>
    a170:	e58d905c 	str	r9, [sp, #92]	@ 0x5c
    a174:	e58d5060 	str	r5, [sp, #96]	@ 0x60
    a178:	e3a0307d 	mov	r3, #125	@ 0x7d
    a17c:	e58d3064 	str	r3, [sp, #100]	@ 0x64
    a180:	e58db004 	str	fp, [sp, #4]
    a184:	e3a03004 	mov	r3, #4
    a188:	e58d3000 	str	r3, [sp]
    a18c:	e1a03004 	mov	r3, r4
    a190:	e28d205c 	add	r2, sp, #92	@ 0x5c
    a194:	e8920007 	ldm	r2, {r0, r1, r2}
    a198:	ebfff9c9 	bl	88c4 <nrf_put8_chk_helper>
    a19c:	e1a0100a 	mov	r1, sl
    a1a0:	e1a00004 	mov	r0, r4
    a1a4:	ebffff14 	bl	9dfc <nrf_pipe_is_enabled>
    a1a8:	e150000b 	cmp	r0, fp
    a1ac:	0a000037 	beq	a290 <nrf_init+0x284>
    a1b0:	e3a01001 	mov	r1, #1
    a1b4:	e1a00004 	mov	r0, r4
    a1b8:	ebffff19 	bl	9e24 <nrf_pipe_is_acked>
    a1bc:	e3500000 	cmp	r0, #0
    a1c0:	1a00003a 	bne	a2b0 <nrf_init+0x2a4>
    a1c4:	e3a01000 	mov	r1, #0
    a1c8:	e1a00004 	mov	r0, r4
    a1cc:	ebffff0a 	bl	9dfc <nrf_pipe_is_enabled>
    a1d0:	e3500000 	cmp	r0, #0
    a1d4:	1a00003d 	bne	a2d0 <nrf_init+0x2c4>
    a1d8:	e59f99a4 	ldr	r9, [pc, #2468]	@ ab84 <nrf_init+0xb78>
    a1dc:	e58d908c 	str	r9, [sp, #140]	@ 0x8c
    a1e0:	e59f59a0 	ldr	r5, [pc, #2464]	@ ab88 <nrf_init+0xb7c>
    a1e4:	e58d5090 	str	r5, [sp, #144]	@ 0x90
    a1e8:	e3a0309e 	mov	r3, #158	@ 0x9e
    a1ec:	e58d3094 	str	r3, [sp, #148]	@ 0x94
    a1f0:	e3a03071 	mov	r3, #113	@ 0x71
    a1f4:	e58d3004 	str	r3, [sp, #4]
    a1f8:	e3a03005 	mov	r3, #5
    a1fc:	e58d3000 	str	r3, [sp]
    a200:	e1a03004 	mov	r3, r4
    a204:	e28d208c 	add	r2, sp, #140	@ 0x8c
    a208:	e8920007 	ldm	r2, {r0, r1, r2}
    a20c:	ebfff9ac 	bl	88c4 <nrf_put8_chk_helper>
    a210:	e58d9098 	str	r9, [sp, #152]	@ 0x98
    a214:	e58d509c 	str	r5, [sp, #156]	@ 0x9c
    a218:	e3a030a1 	mov	r3, #161	@ 0xa1
    a21c:	e58d30a0 	str	r3, [sp, #160]	@ 0xa0
    a220:	e3a01002 	mov	r1, #2
    a224:	e1a00004 	mov	r0, r4
    a228:	ebfff97b 	bl	881c <nrf_get8>
    a22c:	e2000003 	and	r0, r0, #3
    a230:	e58d0004 	str	r0, [sp, #4]
    a234:	e3a05002 	mov	r5, #2
    a238:	e58d5000 	str	r5, [sp]
    a23c:	e1a03004 	mov	r3, r4
    a240:	e28d2098 	add	r2, sp, #152	@ 0x98
    a244:	e8920007 	ldm	r2, {r0, r1, r2}
    a248:	ebfff99d 	bl	88c4 <nrf_put8_chk_helper>
    a24c:	e3550005 	cmp	r5, #5
    a250:	ca000087 	bgt	a474 <nrf_init+0x468>
    a254:	e1a01005 	mov	r1, r5
    a258:	e1a00004 	mov	r0, r4
    a25c:	ebfffee6 	bl	9dfc <nrf_pipe_is_enabled>
    a260:	e3500000 	cmp	r0, #0
    a264:	1a00007a 	bne	a454 <nrf_init+0x448>
    a268:	e2855001 	add	r5, r5, #1
    a26c:	eafffff6 	b	a24c <nrf_init+0x240>
    a270:	e59f3914 	ldr	r3, [pc, #2324]	@ ab8c <nrf_init+0xb80>
    a274:	e58d3000 	str	r3, [sp]
    a278:	e3a0306d 	mov	r3, #109	@ 0x6d
    a27c:	e59f2904 	ldr	r2, [pc, #2308]	@ ab88 <nrf_init+0xb7c>
    a280:	e59f18fc 	ldr	r1, [pc, #2300]	@ ab84 <nrf_init+0xb78>
    a284:	e59f0904 	ldr	r0, [pc, #2308]	@ ab90 <nrf_init+0xb84>
    a288:	eb00082a 	bl	c338 <printk>
    a28c:	eb00091f 	bl	c710 <clean_reboot>
    a290:	e59f38fc 	ldr	r3, [pc, #2300]	@ ab94 <nrf_init+0xb88>
    a294:	e58d3000 	str	r3, [sp]
    a298:	e3a03081 	mov	r3, #129	@ 0x81
    a29c:	e1a02005 	mov	r2, r5
    a2a0:	e1a01009 	mov	r1, r9
    a2a4:	e59f08e4 	ldr	r0, [pc, #2276]	@ ab90 <nrf_init+0xb84>
    a2a8:	eb000822 	bl	c338 <printk>
    a2ac:	eb000917 	bl	c710 <clean_reboot>
    a2b0:	e59f38e0 	ldr	r3, [pc, #2272]	@ ab98 <nrf_init+0xb8c>
    a2b4:	e58d3000 	str	r3, [sp]
    a2b8:	e3a03082 	mov	r3, #130	@ 0x82
    a2bc:	e59f28c4 	ldr	r2, [pc, #2244]	@ ab88 <nrf_init+0xb7c>
    a2c0:	e59f18bc 	ldr	r1, [pc, #2236]	@ ab84 <nrf_init+0xb78>
    a2c4:	e59f08c4 	ldr	r0, [pc, #2244]	@ ab90 <nrf_init+0xb84>
    a2c8:	eb00081a 	bl	c338 <printk>
    a2cc:	eb00090f 	bl	c710 <clean_reboot>
    a2d0:	e59f38c4 	ldr	r3, [pc, #2244]	@ ab9c <nrf_init+0xb90>
    a2d4:	e58d3000 	str	r3, [sp]
    a2d8:	e3a03083 	mov	r3, #131	@ 0x83
    a2dc:	e59f28a4 	ldr	r2, [pc, #2212]	@ ab88 <nrf_init+0xb7c>
    a2e0:	e59f189c 	ldr	r1, [pc, #2204]	@ ab84 <nrf_init+0xb78>
    a2e4:	e59f08a4 	ldr	r0, [pc, #2212]	@ ab90 <nrf_init+0xb84>
    a2e8:	eb000812 	bl	c338 <printk>
    a2ec:	eb000907 	bl	c710 <clean_reboot>
    a2f0:	e59f988c 	ldr	r9, [pc, #2188]	@ ab84 <nrf_init+0xb78>
    a2f4:	e58d9068 	str	r9, [sp, #104]	@ 0x68
    a2f8:	e59f5888 	ldr	r5, [pc, #2184]	@ ab88 <nrf_init+0xb7c>
    a2fc:	e58d506c 	str	r5, [sp, #108]	@ 0x6c
    a300:	e3a03092 	mov	r3, #146	@ 0x92
    a304:	e58d3070 	str	r3, [sp, #112]	@ 0x70
    a308:	e3a0a003 	mov	sl, #3
    a30c:	e58da004 	str	sl, [sp, #4]
    a310:	e3a03001 	mov	r3, #1
    a314:	e58d3000 	str	r3, [sp]
    a318:	e1a03004 	mov	r3, r4
    a31c:	e28d2068 	add	r2, sp, #104	@ 0x68
    a320:	e8920007 	ldm	r2, {r0, r1, r2}
    a324:	ebfff966 	bl	88c4 <nrf_put8_chk_helper>
    a328:	e58d9074 	str	r9, [sp, #116]	@ 0x74
    a32c:	e58d5078 	str	r5, [sp, #120]	@ 0x78
    a330:	e3a03093 	mov	r3, #147	@ 0x93
    a334:	e58d307c 	str	r3, [sp, #124]	@ 0x7c
    a338:	e58da004 	str	sl, [sp, #4]
    a33c:	e3a03002 	mov	r3, #2
    a340:	e58d3000 	str	r3, [sp]
    a344:	e1a03004 	mov	r3, r4
    a348:	e28d2074 	add	r2, sp, #116	@ 0x74
    a34c:	e8920007 	ldm	r2, {r0, r1, r2}
    a350:	ebfff95b 	bl	88c4 <nrf_put8_chk_helper>
    a354:	e58d9080 	str	r9, [sp, #128]	@ 0x80
    a358:	e58d5084 	str	r5, [sp, #132]	@ 0x84
    a35c:	e3a03094 	mov	r3, #148	@ 0x94
    a360:	e58d3088 	str	r3, [sp, #136]	@ 0x88
    a364:	e3a03076 	mov	r3, #118	@ 0x76
    a368:	e58d3004 	str	r3, [sp, #4]
    a36c:	e3a03004 	mov	r3, #4
    a370:	e58d3000 	str	r3, [sp]
    a374:	e1a03004 	mov	r3, r4
    a378:	e28d2080 	add	r2, sp, #128	@ 0x80
    a37c:	e8920007 	ldm	r2, {r0, r1, r2}
    a380:	ebfff94f 	bl	88c4 <nrf_put8_chk_helper>
    a384:	e3a01000 	mov	r1, #0
    a388:	e1a00004 	mov	r0, r4
    a38c:	ebfffe9a 	bl	9dfc <nrf_pipe_is_enabled>
    a390:	e3500000 	cmp	r0, #0
    a394:	0a000016 	beq	a3f4 <nrf_init+0x3e8>
    a398:	e3a01001 	mov	r1, #1
    a39c:	e1a00004 	mov	r0, r4
    a3a0:	ebfffe95 	bl	9dfc <nrf_pipe_is_enabled>
    a3a4:	e3500000 	cmp	r0, #0
    a3a8:	0a000019 	beq	a414 <nrf_init+0x408>
    a3ac:	e3a01001 	mov	r1, #1
    a3b0:	e1a00004 	mov	r0, r4
    a3b4:	ebfffe9a 	bl	9e24 <nrf_pipe_is_acked>
    a3b8:	e3500000 	cmp	r0, #0
    a3bc:	0a00001c 	beq	a434 <nrf_init+0x428>
    a3c0:	e3a01000 	mov	r1, #0
    a3c4:	e1a00004 	mov	r0, r4
    a3c8:	ebfffe95 	bl	9e24 <nrf_pipe_is_acked>
    a3cc:	e3500000 	cmp	r0, #0
    a3d0:	1affff80 	bne	a1d8 <nrf_init+0x1cc>
    a3d4:	e59f37c4 	ldr	r3, [pc, #1988]	@ aba0 <nrf_init+0xb94>
    a3d8:	e58d3000 	str	r3, [sp]
    a3dc:	e3a0309b 	mov	r3, #155	@ 0x9b
    a3e0:	e59f27a0 	ldr	r2, [pc, #1952]	@ ab88 <nrf_init+0xb7c>
    a3e4:	e59f1798 	ldr	r1, [pc, #1944]	@ ab84 <nrf_init+0xb78>
    a3e8:	e59f07a0 	ldr	r0, [pc, #1952]	@ ab90 <nrf_init+0xb84>
    a3ec:	eb0007d1 	bl	c338 <printk>
    a3f0:	eb0008c6 	bl	c710 <clean_reboot>
    a3f4:	e59f37a8 	ldr	r3, [pc, #1960]	@ aba4 <nrf_init+0xb98>
    a3f8:	e58d3000 	str	r3, [sp]
    a3fc:	e3a03098 	mov	r3, #152	@ 0x98
    a400:	e1a02005 	mov	r2, r5
    a404:	e1a01009 	mov	r1, r9
    a408:	e59f0780 	ldr	r0, [pc, #1920]	@ ab90 <nrf_init+0xb84>
    a40c:	eb0007c9 	bl	c338 <printk>
    a410:	eb0008be 	bl	c710 <clean_reboot>
    a414:	e59f3778 	ldr	r3, [pc, #1912]	@ ab94 <nrf_init+0xb88>
    a418:	e58d3000 	str	r3, [sp]
    a41c:	e3a03099 	mov	r3, #153	@ 0x99
    a420:	e59f2760 	ldr	r2, [pc, #1888]	@ ab88 <nrf_init+0xb7c>
    a424:	e59f1758 	ldr	r1, [pc, #1880]	@ ab84 <nrf_init+0xb78>
    a428:	e59f0760 	ldr	r0, [pc, #1888]	@ ab90 <nrf_init+0xb84>
    a42c:	eb0007c1 	bl	c338 <printk>
    a430:	eb0008b6 	bl	c710 <clean_reboot>
    a434:	e59f376c 	ldr	r3, [pc, #1900]	@ aba8 <nrf_init+0xb9c>
    a438:	e58d3000 	str	r3, [sp]
    a43c:	e3a0309a 	mov	r3, #154	@ 0x9a
    a440:	e59f2740 	ldr	r2, [pc, #1856]	@ ab88 <nrf_init+0xb7c>
    a444:	e59f1738 	ldr	r1, [pc, #1848]	@ ab84 <nrf_init+0xb78>
    a448:	e59f0740 	ldr	r0, [pc, #1856]	@ ab90 <nrf_init+0xb84>
    a44c:	eb0007b9 	bl	c338 <printk>
    a450:	eb0008ae 	bl	c710 <clean_reboot>
    a454:	e59f3750 	ldr	r3, [pc, #1872]	@ abac <nrf_init+0xba0>
    a458:	e58d3000 	str	r3, [sp]
    a45c:	e3a030a6 	mov	r3, #166	@ 0xa6
    a460:	e59f2720 	ldr	r2, [pc, #1824]	@ ab88 <nrf_init+0xb7c>
    a464:	e59f1718 	ldr	r1, [pc, #1816]	@ ab84 <nrf_init+0xb78>
    a468:	e59f0720 	ldr	r0, [pc, #1824]	@ ab90 <nrf_init+0xb84>
    a46c:	eb0007b1 	bl	c338 <printk>
    a470:	eb0008a6 	bl	c710 <clean_reboot>
    a474:	e59fa708 	ldr	sl, [pc, #1800]	@ ab84 <nrf_init+0xb78>
    a478:	e58da0a4 	str	sl, [sp, #164]	@ 0xa4
    a47c:	e59f9704 	ldr	r9, [pc, #1796]	@ ab88 <nrf_init+0xb7c>
    a480:	e58d90a8 	str	r9, [sp, #168]	@ 0xa8
    a484:	e3a030ab 	mov	r3, #171	@ 0xab
    a488:	e58d30ac 	str	r3, [sp, #172]	@ 0xac
    a48c:	e3a03001 	mov	r3, #1
    a490:	e58d3004 	str	r3, [sp, #4]
    a494:	e3a05003 	mov	r5, #3
    a498:	e58d5000 	str	r5, [sp]
    a49c:	e1a03004 	mov	r3, r4
    a4a0:	e28d20a4 	add	r2, sp, #164	@ 0xa4
    a4a4:	e8920007 	ldm	r2, {r0, r1, r2}
    a4a8:	ebfff905 	bl	88c4 <nrf_put8_chk_helper>
    a4ac:	e1a03005 	mov	r3, r5
    a4b0:	e3a02000 	mov	r2, #0
    a4b4:	e3a01010 	mov	r1, #16
    a4b8:	e1a00004 	mov	r0, r4
    a4bc:	ebfffc37 	bl	95a0 <nrf_set_addr>
    a4c0:	e58da0b0 	str	sl, [sp, #176]	@ 0xb0
    a4c4:	e58d90b4 	str	r9, [sp, #180]	@ 0xb4
    a4c8:	e3a030b4 	mov	r3, #180	@ 0xb4
    a4cc:	e58d30b8 	str	r3, [sp, #184]	@ 0xb8
    a4d0:	e5dd3023 	ldrb	r3, [sp, #35]	@ 0x23
    a4d4:	e58d3004 	str	r3, [sp, #4]
    a4d8:	e3a03012 	mov	r3, #18
    a4dc:	e58d3000 	str	r3, [sp]
    a4e0:	e1a03004 	mov	r3, r4
    a4e4:	e28d20b0 	add	r2, sp, #176	@ 0xb0
    a4e8:	e8920007 	ldm	r2, {r0, r1, r2}
    a4ec:	ebfff8f4 	bl	88c4 <nrf_put8_chk_helper>
    a4f0:	e1a03005 	mov	r3, r5
    a4f4:	e1a02006 	mov	r2, r6
    a4f8:	e3a0100b 	mov	r1, #11
    a4fc:	e1a00004 	mov	r0, r4
    a500:	ebfffc26 	bl	95a0 <nrf_set_addr>
    a504:	e3a01000 	mov	r1, #0
    a508:	e1a00004 	mov	r0, r4
    a50c:	ebfffe3a 	bl	9dfc <nrf_pipe_is_enabled>
    a510:	e3500000 	cmp	r0, #0
    a514:	1a0000c8 	bne	a83c <nrf_init+0x830>
    a518:	e59f6664 	ldr	r6, [pc, #1636]	@ ab84 <nrf_init+0xb78>
    a51c:	e58d60bc 	str	r6, [sp, #188]	@ 0xbc
    a520:	e59f5660 	ldr	r5, [pc, #1632]	@ ab88 <nrf_init+0xb7c>
    a524:	e58d50c0 	str	r5, [sp, #192]	@ 0xc0
    a528:	e3a030bc 	mov	r3, #188	@ 0xbc
    a52c:	e58d30c4 	str	r3, [sp, #196]	@ 0xc4
    a530:	e3a09000 	mov	r9, #0
    a534:	e58d9004 	str	r9, [sp, #4]
    a538:	e3a03013 	mov	r3, #19
    a53c:	e58d3000 	str	r3, [sp]
    a540:	e1a03004 	mov	r3, r4
    a544:	e28d20bc 	add	r2, sp, #188	@ 0xbc
    a548:	e8920007 	ldm	r2, {r0, r1, r2}
    a54c:	ebfff8dc 	bl	88c4 <nrf_put8_chk_helper>
    a550:	e58d60c8 	str	r6, [sp, #200]	@ 0xc8
    a554:	e58d50cc 	str	r5, [sp, #204]	@ 0xcc
    a558:	e3a030bd 	mov	r3, #189	@ 0xbd
    a55c:	e58d30d0 	str	r3, [sp, #208]	@ 0xd0
    a560:	e58d9004 	str	r9, [sp, #4]
    a564:	e3a03014 	mov	r3, #20
    a568:	e58d3000 	str	r3, [sp]
    a56c:	e1a03004 	mov	r3, r4
    a570:	e28d20c8 	add	r2, sp, #200	@ 0xc8
    a574:	e8920007 	ldm	r2, {r0, r1, r2}
    a578:	ebfff8d1 	bl	88c4 <nrf_put8_chk_helper>
    a57c:	e58d60d4 	str	r6, [sp, #212]	@ 0xd4
    a580:	e58d50d8 	str	r5, [sp, #216]	@ 0xd8
    a584:	e3a030be 	mov	r3, #190	@ 0xbe
    a588:	e58d30dc 	str	r3, [sp, #220]	@ 0xdc
    a58c:	e58d9004 	str	r9, [sp, #4]
    a590:	e3a03015 	mov	r3, #21
    a594:	e58d3000 	str	r3, [sp]
    a598:	e1a03004 	mov	r3, r4
    a59c:	e28d20d4 	add	r2, sp, #212	@ 0xd4
    a5a0:	e8920007 	ldm	r2, {r0, r1, r2}
    a5a4:	ebfff8c6 	bl	88c4 <nrf_put8_chk_helper>
    a5a8:	e58d60e0 	str	r6, [sp, #224]	@ 0xe0
    a5ac:	e58d50e4 	str	r5, [sp, #228]	@ 0xe4
    a5b0:	e3a030bf 	mov	r3, #191	@ 0xbf
    a5b4:	e58d30e8 	str	r3, [sp, #232]	@ 0xe8
    a5b8:	e58d9004 	str	r9, [sp, #4]
    a5bc:	e3a03016 	mov	r3, #22
    a5c0:	e58d3000 	str	r3, [sp]
    a5c4:	e1a03004 	mov	r3, r4
    a5c8:	e28d20e0 	add	r2, sp, #224	@ 0xe0
    a5cc:	e8920007 	ldm	r2, {r0, r1, r2}
    a5d0:	ebfff8bb 	bl	88c4 <nrf_put8_chk_helper>
    a5d4:	e58d60ec 	str	r6, [sp, #236]	@ 0xec
    a5d8:	e58d50f0 	str	r5, [sp, #240]	@ 0xf0
    a5dc:	e3a030c9 	mov	r3, #201	@ 0xc9
    a5e0:	e58d30f4 	str	r3, [sp, #244]	@ 0xf4
    a5e4:	e3a0300e 	mov	r3, #14
    a5e8:	e58d3004 	str	r3, [sp, #4]
    a5ec:	e3a03006 	mov	r3, #6
    a5f0:	e58d3000 	str	r3, [sp]
    a5f4:	e1a03004 	mov	r3, r4
    a5f8:	e28d20ec 	add	r2, sp, #236	@ 0xec
    a5fc:	e8920007 	ldm	r2, {r0, r1, r2}
    a600:	ebfff8af 	bl	88c4 <nrf_put8_chk_helper>
    a604:	e3a01007 	mov	r1, #7
    a608:	e1a00004 	mov	r0, r4
    a60c:	ebfff882 	bl	881c <nrf_get8>
    a610:	e1a02000 	mov	r2, r0
    a614:	e3a01007 	mov	r1, #7
    a618:	e1a00004 	mov	r0, r4
    a61c:	ebfff893 	bl	8870 <nrf_put8>
    a620:	e3a02005 	mov	r2, #5
    a624:	e3a01017 	mov	r1, #23
    a628:	e1a00004 	mov	r0, r4
    a62c:	ebfff983 	bl	8c40 <nrf_bit_isset>
    a630:	e1500009 	cmp	r0, r9
    a634:	1a000086 	bne	a854 <nrf_init+0x848>
    a638:	e3a02004 	mov	r2, #4
    a63c:	e3a01017 	mov	r1, #23
    a640:	e1a00004 	mov	r0, r4
    a644:	ebfff97d 	bl	8c40 <nrf_bit_isset>
    a648:	e3500000 	cmp	r0, #0
    a64c:	0a000088 	beq	a874 <nrf_init+0x868>
    a650:	e3a02001 	mov	r2, #1
    a654:	e3a01017 	mov	r1, #23
    a658:	e1a00004 	mov	r0, r4
    a65c:	ebfff977 	bl	8c40 <nrf_bit_isset>
    a660:	e3500000 	cmp	r0, #0
    a664:	1a00008a 	bne	a894 <nrf_init+0x888>
    a668:	e3a02000 	mov	r2, #0
    a66c:	e3a01017 	mov	r1, #23
    a670:	e1a00004 	mov	r0, r4
    a674:	ebfff971 	bl	8c40 <nrf_bit_isset>
    a678:	e3500000 	cmp	r0, #0
    a67c:	0a00008c 	beq	a8b4 <nrf_init+0x8a8>
    a680:	e3a02006 	mov	r2, #6
    a684:	e3a01007 	mov	r1, #7
    a688:	e1a00004 	mov	r0, r4
    a68c:	ebfff96b 	bl	8c40 <nrf_bit_isset>
    a690:	e3500000 	cmp	r0, #0
    a694:	1a00008e 	bne	a8d4 <nrf_init+0x8c8>
    a698:	e3a02005 	mov	r2, #5
    a69c:	e3a01007 	mov	r1, #7
    a6a0:	e1a00004 	mov	r0, r4
    a6a4:	ebfff965 	bl	8c40 <nrf_bit_isset>
    a6a8:	e3500000 	cmp	r0, #0
    a6ac:	1a000090 	bne	a8f4 <nrf_init+0x8e8>
    a6b0:	e1a00004 	mov	r0, r4
    a6b4:	ebfffdc9 	bl	9de0 <nrf_rx_get_pipeid>
    a6b8:	e3500007 	cmp	r0, #7
    a6bc:	1a000094 	bne	a914 <nrf_init+0x908>
    a6c0:	e1a00004 	mov	r0, r4
    a6c4:	ebfffe49 	bl	9ff0 <nrf_rx_has_packet>
    a6c8:	e3500000 	cmp	r0, #0
    a6cc:	1a000098 	bne	a934 <nrf_init+0x928>
    a6d0:	e59f94ac 	ldr	r9, [pc, #1196]	@ ab84 <nrf_init+0xb78>
    a6d4:	e58d90f8 	str	r9, [sp, #248]	@ 0xf8
    a6d8:	e59f64a8 	ldr	r6, [pc, #1192]	@ ab88 <nrf_init+0xb7c>
    a6dc:	e58d60fc 	str	r6, [sp, #252]	@ 0xfc
    a6e0:	e3a030e9 	mov	r3, #233	@ 0xe9
    a6e4:	e58d3100 	str	r3, [sp, #256]	@ 0x100
    a6e8:	e3a05000 	mov	r5, #0
    a6ec:	e58d5004 	str	r5, [sp, #4]
    a6f0:	e3a0301d 	mov	r3, #29
    a6f4:	e58d3000 	str	r3, [sp]
    a6f8:	e1a03004 	mov	r3, r4
    a6fc:	e28d20f8 	add	r2, sp, #248	@ 0xf8
    a700:	e8920007 	ldm	r2, {r0, r1, r2}
    a704:	ebfff86e 	bl	88c4 <nrf_put8_chk_helper>
    a708:	e58d9104 	str	r9, [sp, #260]	@ 0x104
    a70c:	e58d6108 	str	r6, [sp, #264]	@ 0x108
    a710:	e3a030ea 	mov	r3, #234	@ 0xea
    a714:	e58d310c 	str	r3, [sp, #268]	@ 0x10c
    a718:	e58d5004 	str	r5, [sp, #4]
    a71c:	e3a0301c 	mov	r3, #28
    a720:	e58d3000 	str	r3, [sp]
    a724:	e1a03004 	mov	r3, r4
    a728:	e28d2e11 	add	r2, sp, #272	@ 0x110
    a72c:	e9120007 	ldmdb	r2, {r0, r1, r2}
    a730:	ebfff863 	bl	88c4 <nrf_put8_chk_helper>
    a734:	e1a00004 	mov	r0, r4
    a738:	ebfff97d 	bl	8d34 <nrf_tx_flush>
    a73c:	e1a00004 	mov	r0, r4
    a740:	ebfff991 	bl	8d8c <nrf_rx_flush>
    a744:	e1a01005 	mov	r1, r5
    a748:	e1a00004 	mov	r0, r4
    a74c:	ebfff832 	bl	881c <nrf_get8>
    a750:	e3802002 	orr	r2, r0, #2
    a754:	e6ef2072 	uxtb	r2, r2
    a758:	e1a01005 	mov	r1, r5
    a75c:	e1a00004 	mov	r0, r4
    a760:	ebfff842 	bl	8870 <nrf_put8>
    a764:	e3a00002 	mov	r0, #2
    a768:	eb000873 	bl	c93c <delay_ms>
    a76c:	e3a0207f 	mov	r2, #127	@ 0x7f
    a770:	e1a01005 	mov	r1, r5
    a774:	e1a00004 	mov	r0, r4
    a778:	ebfff83c 	bl	8870 <nrf_put8>
    a77c:	e1a00008 	mov	r0, r8
    a780:	eb00063c 	bl	c078 <gpio_set_on>
    a784:	e3a00082 	mov	r0, #130	@ 0x82
    a788:	eb000862 	bl	c918 <delay_us>
    a78c:	e1570005 	cmp	r7, r5
    a790:	0a0000a6 	beq	aa30 <nrf_init+0xa24>
    a794:	e1a01005 	mov	r1, r5
    a798:	e1a00004 	mov	r0, r4
    a79c:	ebfff81e 	bl	881c <nrf_get8>
    a7a0:	e350007f 	cmp	r0, #127	@ 0x7f
    a7a4:	1a00006a 	bne	a954 <nrf_init+0x948>
    a7a8:	e3a01000 	mov	r1, #0
    a7ac:	e1a00004 	mov	r0, r4
    a7b0:	ebfffd91 	bl	9dfc <nrf_pipe_is_enabled>
    a7b4:	e3500000 	cmp	r0, #0
    a7b8:	0a000070 	beq	a980 <nrf_init+0x974>
    a7bc:	e3a01001 	mov	r1, #1
    a7c0:	e1a00004 	mov	r0, r4
    a7c4:	ebfffd8c 	bl	9dfc <nrf_pipe_is_enabled>
    a7c8:	e3500000 	cmp	r0, #0
    a7cc:	0a000076 	beq	a9ac <nrf_init+0x9a0>
    a7d0:	e3a01000 	mov	r1, #0
    a7d4:	e1a00004 	mov	r0, r4
    a7d8:	ebfffd91 	bl	9e24 <nrf_pipe_is_acked>
    a7dc:	e3500000 	cmp	r0, #0
    a7e0:	0a00007c 	beq	a9d8 <nrf_init+0x9cc>
    a7e4:	e3a01001 	mov	r1, #1
    a7e8:	e1a00004 	mov	r0, r4
    a7ec:	ebfffd8c 	bl	9e24 <nrf_pipe_is_acked>
    a7f0:	e3500000 	cmp	r0, #0
    a7f4:	0a000082 	beq	aa04 <nrf_init+0x9f8>
    a7f8:	e3a02004 	mov	r2, #4
    a7fc:	e3a01017 	mov	r1, #23
    a800:	e1a00004 	mov	r0, r4
    a804:	ebfff90d 	bl	8c40 <nrf_bit_isset>
    a808:	e3500000 	cmp	r0, #0
    a80c:	1a0000a1 	bne	aa98 <nrf_init+0xa8c>
    a810:	e1a01004 	mov	r1, r4
    a814:	e59f0394 	ldr	r0, [pc, #916]	@ abb0 <nrf_init+0xba4>
    a818:	ebfff9d0 	bl	8f60 <nrf_dump>
    a81c:	e59f3390 	ldr	r3, [pc, #912]	@ abb4 <nrf_init+0xba8>
    a820:	e58d3000 	str	r3, [sp]
    a824:	e59f338c 	ldr	r3, [pc, #908]	@ abb8 <nrf_init+0xbac>
    a828:	e59f2358 	ldr	r2, [pc, #856]	@ ab88 <nrf_init+0xb7c>
    a82c:	e59f1350 	ldr	r1, [pc, #848]	@ ab84 <nrf_init+0xb78>
    a830:	e59f0384 	ldr	r0, [pc, #900]	@ abbc <nrf_init+0xbb0>
    a834:	eb0006bf 	bl	c338 <printk>
    a838:	eb0007b4 	bl	c710 <clean_reboot>
    a83c:	e1a03005 	mov	r3, r5
    a840:	e3a02000 	mov	r2, #0
    a844:	e3a0100a 	mov	r1, #10
    a848:	e1a00004 	mov	r0, r4
    a84c:	ebfffb53 	bl	95a0 <nrf_set_addr>
    a850:	eaffff30 	b	a518 <nrf_init+0x50c>
    a854:	e59f3364 	ldr	r3, [pc, #868]	@ abc0 <nrf_init+0xbb4>
    a858:	e58d3000 	str	r3, [sp]
    a85c:	e3a030db 	mov	r3, #219	@ 0xdb
    a860:	e1a02005 	mov	r2, r5
    a864:	e1a01006 	mov	r1, r6
    a868:	e59f0320 	ldr	r0, [pc, #800]	@ ab90 <nrf_init+0xb84>
    a86c:	eb0006b1 	bl	c338 <printk>
    a870:	eb0007a6 	bl	c710 <clean_reboot>
    a874:	e59f3338 	ldr	r3, [pc, #824]	@ abb4 <nrf_init+0xba8>
    a878:	e58d3000 	str	r3, [sp]
    a87c:	e3a030dc 	mov	r3, #220	@ 0xdc
    a880:	e59f2300 	ldr	r2, [pc, #768]	@ ab88 <nrf_init+0xb7c>
    a884:	e59f12f8 	ldr	r1, [pc, #760]	@ ab84 <nrf_init+0xb78>
    a888:	e59f0300 	ldr	r0, [pc, #768]	@ ab90 <nrf_init+0xb84>
    a88c:	eb0006a9 	bl	c338 <printk>
    a890:	eb00079e 	bl	c710 <clean_reboot>
    a894:	e59f3328 	ldr	r3, [pc, #808]	@ abc4 <nrf_init+0xbb8>
    a898:	e58d3000 	str	r3, [sp]
    a89c:	e3a030dd 	mov	r3, #221	@ 0xdd
    a8a0:	e59f22e0 	ldr	r2, [pc, #736]	@ ab88 <nrf_init+0xb7c>
    a8a4:	e59f12d8 	ldr	r1, [pc, #728]	@ ab84 <nrf_init+0xb78>
    a8a8:	e59f02e0 	ldr	r0, [pc, #736]	@ ab90 <nrf_init+0xb84>
    a8ac:	eb0006a1 	bl	c338 <printk>
    a8b0:	eb000796 	bl	c710 <clean_reboot>
    a8b4:	e59f330c 	ldr	r3, [pc, #780]	@ abc8 <nrf_init+0xbbc>
    a8b8:	e58d3000 	str	r3, [sp]
    a8bc:	e3a030de 	mov	r3, #222	@ 0xde
    a8c0:	e59f22c0 	ldr	r2, [pc, #704]	@ ab88 <nrf_init+0xb7c>
    a8c4:	e59f12b8 	ldr	r1, [pc, #696]	@ ab84 <nrf_init+0xb78>
    a8c8:	e59f02c0 	ldr	r0, [pc, #704]	@ ab90 <nrf_init+0xb84>
    a8cc:	eb000699 	bl	c338 <printk>
    a8d0:	eb00078e 	bl	c710 <clean_reboot>
    a8d4:	e59f32f0 	ldr	r3, [pc, #752]	@ abcc <nrf_init+0xbc0>
    a8d8:	e58d3000 	str	r3, [sp]
    a8dc:	e3a030e0 	mov	r3, #224	@ 0xe0
    a8e0:	e59f22a0 	ldr	r2, [pc, #672]	@ ab88 <nrf_init+0xb7c>
    a8e4:	e59f1298 	ldr	r1, [pc, #664]	@ ab84 <nrf_init+0xb78>
    a8e8:	e59f02a0 	ldr	r0, [pc, #672]	@ ab90 <nrf_init+0xb84>
    a8ec:	eb000691 	bl	c338 <printk>
    a8f0:	eb000786 	bl	c710 <clean_reboot>
    a8f4:	e59f32d4 	ldr	r3, [pc, #724]	@ abd0 <nrf_init+0xbc4>
    a8f8:	e58d3000 	str	r3, [sp]
    a8fc:	e3a030e1 	mov	r3, #225	@ 0xe1
    a900:	e59f2280 	ldr	r2, [pc, #640]	@ ab88 <nrf_init+0xb7c>
    a904:	e59f1278 	ldr	r1, [pc, #632]	@ ab84 <nrf_init+0xb78>
    a908:	e59f0280 	ldr	r0, [pc, #640]	@ ab90 <nrf_init+0xb84>
    a90c:	eb000689 	bl	c338 <printk>
    a910:	eb00077e 	bl	c710 <clean_reboot>
    a914:	e59f32b8 	ldr	r3, [pc, #696]	@ abd4 <nrf_init+0xbc8>
    a918:	e58d3000 	str	r3, [sp]
    a91c:	e3a030e2 	mov	r3, #226	@ 0xe2
    a920:	e59f2260 	ldr	r2, [pc, #608]	@ ab88 <nrf_init+0xb7c>
    a924:	e59f1258 	ldr	r1, [pc, #600]	@ ab84 <nrf_init+0xb78>
    a928:	e59f0260 	ldr	r0, [pc, #608]	@ ab90 <nrf_init+0xb84>
    a92c:	eb000681 	bl	c338 <printk>
    a930:	eb000776 	bl	c710 <clean_reboot>
    a934:	e59f329c 	ldr	r3, [pc, #668]	@ abd8 <nrf_init+0xbcc>
    a938:	e58d3000 	str	r3, [sp]
    a93c:	e3a030e3 	mov	r3, #227	@ 0xe3
    a940:	e59f2240 	ldr	r2, [pc, #576]	@ ab88 <nrf_init+0xb7c>
    a944:	e59f1238 	ldr	r1, [pc, #568]	@ ab84 <nrf_init+0xb78>
    a948:	e59f0240 	ldr	r0, [pc, #576]	@ ab90 <nrf_init+0xb84>
    a94c:	eb000679 	bl	c338 <printk>
    a950:	eb00076e 	bl	c710 <clean_reboot>
    a954:	e1a01004 	mov	r1, r4
    a958:	e59f0250 	ldr	r0, [pc, #592]	@ abb0 <nrf_init+0xba4>
    a95c:	ebfff97f 	bl	8f60 <nrf_dump>
    a960:	e59f3274 	ldr	r3, [pc, #628]	@ abdc <nrf_init+0xbd0>
    a964:	e58d3000 	str	r3, [sp]
    a968:	e3a03c01 	mov	r3, #256	@ 0x100
    a96c:	e1a02006 	mov	r2, r6
    a970:	e1a01009 	mov	r1, r9
    a974:	e59f0240 	ldr	r0, [pc, #576]	@ abbc <nrf_init+0xbb0>
    a978:	eb00066e 	bl	c338 <printk>
    a97c:	eb000763 	bl	c710 <clean_reboot>
    a980:	e1a01004 	mov	r1, r4
    a984:	e59f0224 	ldr	r0, [pc, #548]	@ abb0 <nrf_init+0xba4>
    a988:	ebfff974 	bl	8f60 <nrf_dump>
    a98c:	e59f3210 	ldr	r3, [pc, #528]	@ aba4 <nrf_init+0xb98>
    a990:	e58d3000 	str	r3, [sp]
    a994:	e59f3244 	ldr	r3, [pc, #580]	@ abe0 <nrf_init+0xbd4>
    a998:	e59f21e8 	ldr	r2, [pc, #488]	@ ab88 <nrf_init+0xb7c>
    a99c:	e59f11e0 	ldr	r1, [pc, #480]	@ ab84 <nrf_init+0xb78>
    a9a0:	e59f0214 	ldr	r0, [pc, #532]	@ abbc <nrf_init+0xbb0>
    a9a4:	eb000663 	bl	c338 <printk>
    a9a8:	eb000758 	bl	c710 <clean_reboot>
    a9ac:	e1a01004 	mov	r1, r4
    a9b0:	e59f01f8 	ldr	r0, [pc, #504]	@ abb0 <nrf_init+0xba4>
    a9b4:	ebfff969 	bl	8f60 <nrf_dump>
    a9b8:	e59f31d4 	ldr	r3, [pc, #468]	@ ab94 <nrf_init+0xb88>
    a9bc:	e58d3000 	str	r3, [sp]
    a9c0:	e59f321c 	ldr	r3, [pc, #540]	@ abe4 <nrf_init+0xbd8>
    a9c4:	e59f21bc 	ldr	r2, [pc, #444]	@ ab88 <nrf_init+0xb7c>
    a9c8:	e59f11b4 	ldr	r1, [pc, #436]	@ ab84 <nrf_init+0xb78>
    a9cc:	e59f01e8 	ldr	r0, [pc, #488]	@ abbc <nrf_init+0xbb0>
    a9d0:	eb000658 	bl	c338 <printk>
    a9d4:	eb00074d 	bl	c710 <clean_reboot>
    a9d8:	e1a01004 	mov	r1, r4
    a9dc:	e59f01cc 	ldr	r0, [pc, #460]	@ abb0 <nrf_init+0xba4>
    a9e0:	ebfff95e 	bl	8f60 <nrf_dump>
    a9e4:	e59f31b4 	ldr	r3, [pc, #436]	@ aba0 <nrf_init+0xb94>
    a9e8:	e58d3000 	str	r3, [sp]
    a9ec:	e59f31f4 	ldr	r3, [pc, #500]	@ abe8 <nrf_init+0xbdc>
    a9f0:	e59f2190 	ldr	r2, [pc, #400]	@ ab88 <nrf_init+0xb7c>
    a9f4:	e59f1188 	ldr	r1, [pc, #392]	@ ab84 <nrf_init+0xb78>
    a9f8:	e59f01bc 	ldr	r0, [pc, #444]	@ abbc <nrf_init+0xbb0>
    a9fc:	eb00064d 	bl	c338 <printk>
    aa00:	eb000742 	bl	c710 <clean_reboot>
    aa04:	e1a01004 	mov	r1, r4
    aa08:	e59f01a0 	ldr	r0, [pc, #416]	@ abb0 <nrf_init+0xba4>
    aa0c:	ebfff953 	bl	8f60 <nrf_dump>
    aa10:	e59f3190 	ldr	r3, [pc, #400]	@ aba8 <nrf_init+0xb9c>
    aa14:	e58d3000 	str	r3, [sp]
    aa18:	e3a03f41 	mov	r3, #260	@ 0x104
    aa1c:	e59f2164 	ldr	r2, [pc, #356]	@ ab88 <nrf_init+0xb7c>
    aa20:	e59f115c 	ldr	r1, [pc, #348]	@ ab84 <nrf_init+0xb78>
    aa24:	e59f0190 	ldr	r0, [pc, #400]	@ abbc <nrf_init+0xbb0>
    aa28:	eb000642 	bl	c338 <printk>
    aa2c:	eb000737 	bl	c710 <clean_reboot>
    aa30:	e3a01000 	mov	r1, #0
    aa34:	e1a00004 	mov	r0, r4
    aa38:	ebfff777 	bl	881c <nrf_get8>
    aa3c:	e350007f 	cmp	r0, #127	@ 0x7f
    aa40:	1a000017 	bne	aaa4 <nrf_init+0xa98>
    aa44:	e3a01000 	mov	r1, #0
    aa48:	e1a00004 	mov	r0, r4
    aa4c:	ebfffcea 	bl	9dfc <nrf_pipe_is_enabled>
    aa50:	e3500000 	cmp	r0, #0
    aa54:	1a00001d 	bne	aad0 <nrf_init+0xac4>
    aa58:	e3a01001 	mov	r1, #1
    aa5c:	e1a00004 	mov	r0, r4
    aa60:	ebfffce5 	bl	9dfc <nrf_pipe_is_enabled>
    aa64:	e3500000 	cmp	r0, #0
    aa68:	0a000023 	beq	aafc <nrf_init+0xaf0>
    aa6c:	e3a01001 	mov	r1, #1
    aa70:	e1a00004 	mov	r0, r4
    aa74:	ebfffcea 	bl	9e24 <nrf_pipe_is_acked>
    aa78:	e3500000 	cmp	r0, #0
    aa7c:	1a000029 	bne	ab28 <nrf_init+0xb1c>
    aa80:	e3a02004 	mov	r2, #4
    aa84:	e3a01017 	mov	r1, #23
    aa88:	e1a00004 	mov	r0, r4
    aa8c:	ebfff86b 	bl	8c40 <nrf_bit_isset>
    aa90:	e3500000 	cmp	r0, #0
    aa94:	0a00002e 	beq	ab54 <nrf_init+0xb48>
    aa98:	e1a00004 	mov	r0, r4
    aa9c:	e28ddf45 	add	sp, sp, #276	@ 0x114
    aaa0:	e8bd8ff0 	pop	{r4, r5, r6, r7, r8, r9, sl, fp, pc}
    aaa4:	e1a01004 	mov	r1, r4
    aaa8:	e59f0100 	ldr	r0, [pc, #256]	@ abb0 <nrf_init+0xba4>
    aaac:	ebfff92b 	bl	8f60 <nrf_dump>
    aab0:	e59f3124 	ldr	r3, [pc, #292]	@ abdc <nrf_init+0xbd0>
    aab4:	e58d3000 	str	r3, [sp]
    aab8:	e59f312c 	ldr	r3, [pc, #300]	@ abec <nrf_init+0xbe0>
    aabc:	e59f20c4 	ldr	r2, [pc, #196]	@ ab88 <nrf_init+0xb7c>
    aac0:	e59f10bc 	ldr	r1, [pc, #188]	@ ab84 <nrf_init+0xb78>
    aac4:	e59f00f0 	ldr	r0, [pc, #240]	@ abbc <nrf_init+0xbb0>
    aac8:	eb00061a 	bl	c338 <printk>
    aacc:	eb00070f 	bl	c710 <clean_reboot>
    aad0:	e1a01004 	mov	r1, r4
    aad4:	e59f00d4 	ldr	r0, [pc, #212]	@ abb0 <nrf_init+0xba4>
    aad8:	ebfff920 	bl	8f60 <nrf_dump>
    aadc:	e59f30b8 	ldr	r3, [pc, #184]	@ ab9c <nrf_init+0xb90>
    aae0:	e58d3000 	str	r3, [sp]
    aae4:	e3a03f42 	mov	r3, #264	@ 0x108
    aae8:	e59f2098 	ldr	r2, [pc, #152]	@ ab88 <nrf_init+0xb7c>
    aaec:	e59f1090 	ldr	r1, [pc, #144]	@ ab84 <nrf_init+0xb78>
    aaf0:	e59f00c4 	ldr	r0, [pc, #196]	@ abbc <nrf_init+0xbb0>
    aaf4:	eb00060f 	bl	c338 <printk>
    aaf8:	eb000704 	bl	c710 <clean_reboot>
    aafc:	e1a01004 	mov	r1, r4
    ab00:	e59f00a8 	ldr	r0, [pc, #168]	@ abb0 <nrf_init+0xba4>
    ab04:	ebfff915 	bl	8f60 <nrf_dump>
    ab08:	e59f3084 	ldr	r3, [pc, #132]	@ ab94 <nrf_init+0xb88>
    ab0c:	e58d3000 	str	r3, [sp]
    ab10:	e59f30d8 	ldr	r3, [pc, #216]	@ abf0 <nrf_init+0xbe4>
    ab14:	e59f206c 	ldr	r2, [pc, #108]	@ ab88 <nrf_init+0xb7c>
    ab18:	e59f1064 	ldr	r1, [pc, #100]	@ ab84 <nrf_init+0xb78>
    ab1c:	e59f0098 	ldr	r0, [pc, #152]	@ abbc <nrf_init+0xbb0>
    ab20:	eb000604 	bl	c338 <printk>
    ab24:	eb0006f9 	bl	c710 <clean_reboot>
    ab28:	e1a01004 	mov	r1, r4
    ab2c:	e59f007c 	ldr	r0, [pc, #124]	@ abb0 <nrf_init+0xba4>
    ab30:	ebfff90a 	bl	8f60 <nrf_dump>
    ab34:	e59f305c 	ldr	r3, [pc, #92]	@ ab98 <nrf_init+0xb8c>
    ab38:	e58d3000 	str	r3, [sp]
    ab3c:	e59f30b0 	ldr	r3, [pc, #176]	@ abf4 <nrf_init+0xbe8>
    ab40:	e59f2040 	ldr	r2, [pc, #64]	@ ab88 <nrf_init+0xb7c>
    ab44:	e59f1038 	ldr	r1, [pc, #56]	@ ab84 <nrf_init+0xb78>
    ab48:	e59f006c 	ldr	r0, [pc, #108]	@ abbc <nrf_init+0xbb0>
    ab4c:	eb0005f9 	bl	c338 <printk>
    ab50:	eb0006ee 	bl	c710 <clean_reboot>
    ab54:	e1a01004 	mov	r1, r4
    ab58:	e59f0050 	ldr	r0, [pc, #80]	@ abb0 <nrf_init+0xba4>
    ab5c:	ebfff8ff 	bl	8f60 <nrf_dump>
    ab60:	e59f304c 	ldr	r3, [pc, #76]	@ abb4 <nrf_init+0xba8>
    ab64:	e58d3000 	str	r3, [sp]
    ab68:	e59f3088 	ldr	r3, [pc, #136]	@ abf8 <nrf_init+0xbec>
    ab6c:	e59f2014 	ldr	r2, [pc, #20]	@ ab88 <nrf_init+0xb7c>
    ab70:	e59f100c 	ldr	r1, [pc, #12]	@ ab84 <nrf_init+0xb78>
    ab74:	e59f0040 	ldr	r0, [pc, #64]	@ abbc <nrf_init+0xbb0>
    ab78:	eb0005ee 	bl	c338 <printk>
    ab7c:	eb0006e3 	bl	c710 <clean_reboot>
    ab80:	00002058 	.word	0x00002058
    ab84:	0000d84c 	.word	0x0000d84c
    ab88:	0000e244 	.word	0x0000e244
    ab8c:	0000d85c 	.word	0x0000d85c
    ab90:	0000cd08 	.word	0x0000cd08
    ab94:	0000d870 	.word	0x0000d870
    ab98:	0000d88c 	.word	0x0000d88c
    ab9c:	0000d8a8 	.word	0x0000d8a8
    aba0:	0000d8f8 	.word	0x0000d8f8
    aba4:	0000d8c4 	.word	0x0000d8c4
    aba8:	0000d8e0 	.word	0x0000d8e0
    abac:	0000d910 	.word	0x0000d910
    abb0:	0000d59c 	.word	0x0000d59c
    abb4:	0000d944 	.word	0x0000d944
    abb8:	00000105 	.word	0x00000105
    abbc:	0000d5b0 	.word	0x0000d5b0
    abc0:	0000d92c 	.word	0x0000d92c
    abc4:	0000d95c 	.word	0x0000d95c
    abc8:	0000d974 	.word	0x0000d974
    abcc:	0000d98c 	.word	0x0000d98c
    abd0:	0000d9a0 	.word	0x0000d9a0
    abd4:	0000d9b4 	.word	0x0000d9b4
    abd8:	0000d9d8 	.word	0x0000d9d8
    abdc:	0000d9f0 	.word	0x0000d9f0
    abe0:	00000101 	.word	0x00000101
    abe4:	00000102 	.word	0x00000102
    abe8:	00000103 	.word	0x00000103
    abec:	00000107 	.word	0x00000107
    abf0:	00000109 	.word	0x00000109
    abf4:	0000010a 	.word	0x0000010a
    abf8:	0000010b 	.word	0x0000010b

0000abfc <nrf_get_pkts>:
    abfc:	e92d4030 	push	{r4, r5, lr}
    ac00:	e24dd02c 	sub	sp, sp, #44	@ 0x2c
    ac04:	e1a04000 	mov	r4, r0
    ac08:	e3a01000 	mov	r1, #0
    ac0c:	ebfff702 	bl	881c <nrf_get8>
    ac10:	e350007f 	cmp	r0, #127	@ 0x7f
    ac14:	1a000005 	bne	ac30 <nrf_get_pkts+0x34>
    ac18:	e1a00004 	mov	r0, r4
    ac1c:	ebfffcf3 	bl	9ff0 <nrf_rx_has_packet>
    ac20:	e3500000 	cmp	r0, #0
    ac24:	0a00004c 	beq	ad5c <nrf_get_pkts+0x160>
    ac28:	e3a05000 	mov	r5, #0
    ac2c:	ea000024 	b	acc4 <nrf_get_pkts+0xc8>
    ac30:	e1a01004 	mov	r1, r4
    ac34:	e59f0154 	ldr	r0, [pc, #340]	@ ad90 <nrf_get_pkts+0x194>
    ac38:	ebfff8c8 	bl	8f60 <nrf_dump>
    ac3c:	e59f3150 	ldr	r3, [pc, #336]	@ ad94 <nrf_get_pkts+0x198>
    ac40:	e58d3000 	str	r3, [sp]
    ac44:	e59f314c 	ldr	r3, [pc, #332]	@ ad98 <nrf_get_pkts+0x19c>
    ac48:	e59f214c 	ldr	r2, [pc, #332]	@ ad9c <nrf_get_pkts+0x1a0>
    ac4c:	e59f114c 	ldr	r1, [pc, #332]	@ ada0 <nrf_get_pkts+0x1a4>
    ac50:	e59f014c 	ldr	r0, [pc, #332]	@ ada4 <nrf_get_pkts+0x1a8>
    ac54:	eb0005b7 	bl	c338 <printk>
    ac58:	eb0006ac 	bl	c710 <clean_reboot>
    ac5c:	e59f3144 	ldr	r3, [pc, #324]	@ ada8 <nrf_get_pkts+0x1ac>
    ac60:	e58d3000 	str	r3, [sp]
    ac64:	e3a03f79 	mov	r3, #484	@ 0x1e4
    ac68:	e59f212c 	ldr	r2, [pc, #300]	@ ad9c <nrf_get_pkts+0x1a0>
    ac6c:	e59f112c 	ldr	r1, [pc, #300]	@ ada0 <nrf_get_pkts+0x1a4>
    ac70:	e59f0134 	ldr	r0, [pc, #308]	@ adac <nrf_get_pkts+0x1b0>
    ac74:	eb0005af 	bl	c338 <printk>
    ac78:	eb0006a4 	bl	c710 <clean_reboot>
    ac7c:	e3a01007 	mov	r1, #7
    ac80:	e1a00004 	mov	r0, r4
    ac84:	ebfff6e4 	bl	881c <nrf_get8>
    ac88:	e1a02000 	mov	r2, r0
    ac8c:	e3a01007 	mov	r1, #7
    ac90:	e1a00004 	mov	r0, r4
    ac94:	ebfff6f5 	bl	8870 <nrf_put8>
    ac98:	e3a00001 	mov	r0, #1
    ac9c:	eb00071d 	bl	c918 <delay_us>
    aca0:	e2843a02 	add	r3, r4, #8192	@ 0x2000
    aca4:	e5932050 	ldr	r2, [r3, #80]	@ 0x50
    aca8:	e2822001 	add	r2, r2, #1
    acac:	e5832050 	str	r2, [r3, #80]	@ 0x50
    acb0:	e5932054 	ldr	r2, [r3, #84]	@ 0x54
    acb4:	e5d41003 	ldrb	r1, [r4, #3]
    acb8:	e0822001 	add	r2, r2, r1
    acbc:	e5832054 	str	r2, [r3, #84]	@ 0x54
    acc0:	e2855001 	add	r5, r5, #1
    acc4:	e3a02000 	mov	r2, #0
    acc8:	e3a01017 	mov	r1, #23
    accc:	e1a00004 	mov	r0, r4
    acd0:	ebfff7da 	bl	8c40 <nrf_bit_isset>
    acd4:	e3500000 	cmp	r0, #0
    acd8:	1a000019 	bne	ad44 <nrf_get_pkts+0x148>
    acdc:	e1a00004 	mov	r0, r4
    ace0:	ebfffc3e 	bl	9de0 <nrf_rx_get_pipeid>
    ace4:	e59f30c4 	ldr	r3, [pc, #196]	@ adb0 <nrf_get_pkts+0x1b4>
    ace8:	e1530000 	cmp	r3, r0
    acec:	0affffda 	beq	ac5c <nrf_get_pkts+0x60>
    acf0:	e5d43003 	ldrb	r3, [r4, #3]
    acf4:	e28d2008 	add	r2, sp, #8
    acf8:	e3a01061 	mov	r1, #97	@ 0x61
    acfc:	e1a00004 	mov	r0, r4
    ad00:	ebfff711 	bl	894c <nrf_getn>
    ad04:	e1a000a0 	lsr	r0, r0, #1
    ad08:	e2000007 	and	r0, r0, #7
    ad0c:	e3500001 	cmp	r0, #1
    ad10:	1affffd9 	bne	ac7c <nrf_get_pkts+0x80>
    ad14:	e5d42003 	ldrb	r2, [r4, #3]
    ad18:	e28d1008 	add	r1, sp, #8
    ad1c:	e2840024 	add	r0, r4, #36	@ 0x24
    ad20:	ebfffbfd 	bl	9d1c <cq_push_n>
    ad24:	e3500000 	cmp	r0, #0
    ad28:	1affffd3 	bne	ac7c <nrf_get_pkts+0x80>
    ad2c:	e59f3080 	ldr	r3, [pc, #128]	@ adb4 <nrf_get_pkts+0x1b8>
    ad30:	e59f2064 	ldr	r2, [pc, #100]	@ ad9c <nrf_get_pkts+0x1a0>
    ad34:	e59f1064 	ldr	r1, [pc, #100]	@ ada0 <nrf_get_pkts+0x1a4>
    ad38:	e59f0078 	ldr	r0, [pc, #120]	@ adb8 <nrf_get_pkts+0x1bc>
    ad3c:	eb00057d 	bl	c338 <printk>
    ad40:	eb000672 	bl	c710 <clean_reboot>
    ad44:	e3a01000 	mov	r1, #0
    ad48:	e1a00004 	mov	r0, r4
    ad4c:	ebfff6b2 	bl	881c <nrf_get8>
    ad50:	e350007f 	cmp	r0, #127	@ 0x7f
    ad54:	1a000002 	bne	ad64 <nrf_get_pkts+0x168>
    ad58:	e1a00005 	mov	r0, r5
    ad5c:	e28dd02c 	add	sp, sp, #44	@ 0x2c
    ad60:	e8bd8030 	pop	{r4, r5, pc}
    ad64:	e1a01004 	mov	r1, r4
    ad68:	e59f0020 	ldr	r0, [pc, #32]	@ ad90 <nrf_get_pkts+0x194>
    ad6c:	ebfff87b 	bl	8f60 <nrf_dump>
    ad70:	e59f301c 	ldr	r3, [pc, #28]	@ ad94 <nrf_get_pkts+0x198>
    ad74:	e58d3000 	str	r3, [sp]
    ad78:	e59f303c 	ldr	r3, [pc, #60]	@ adbc <nrf_get_pkts+0x1c0>
    ad7c:	e59f2018 	ldr	r2, [pc, #24]	@ ad9c <nrf_get_pkts+0x1a0>
    ad80:	e59f1018 	ldr	r1, [pc, #24]	@ ada0 <nrf_get_pkts+0x1a4>
    ad84:	e59f0018 	ldr	r0, [pc, #24]	@ ada4 <nrf_get_pkts+0x1a8>
    ad88:	eb00056a 	bl	c338 <printk>
    ad8c:	eb00065f 	bl	c710 <clean_reboot>
    ad90:	0000d59c 	.word	0x0000d59c
    ad94:	0000d9f0 	.word	0x0000d9f0
    ad98:	000001d1 	.word	0x000001d1
    ad9c:	0000e250 	.word	0x0000e250
    ada0:	0000d84c 	.word	0x0000d84c
    ada4:	0000d5b0 	.word	0x0000d5b0
    ada8:	0000da18 	.word	0x0000da18
    adac:	0000cd08 	.word	0x0000cd08
    adb0:	00009b30 	.word	0x00009b30
    adb4:	000001e9 	.word	0x000001e9
    adb8:	0000da48 	.word	0x0000da48
    adbc:	000001f5 	.word	0x000001f5

0000adc0 <nrf_tx_send_ack>:
    adc0:	e92d40f0 	push	{r4, r5, r6, r7, lr}
    adc4:	e24dd024 	sub	sp, sp, #36	@ 0x24
    adc8:	e1a04000 	mov	r4, r0
    adcc:	e1a06001 	mov	r6, r1
    add0:	e1a07002 	mov	r7, r2
    add4:	e1a05003 	mov	r5, r3
    add8:	e3a01000 	mov	r1, #0
    addc:	ebfff68e 	bl	881c <nrf_get8>
    ade0:	e350007f 	cmp	r0, #127	@ 0x7f
    ade4:	1a000055 	bne	af40 <nrf_tx_send_ack+0x180>
    ade8:	e3a01000 	mov	r1, #0
    adec:	e1a00004 	mov	r0, r4
    adf0:	ebfffc01 	bl	9dfc <nrf_pipe_is_enabled>
    adf4:	e3500000 	cmp	r0, #0
    adf8:	0a00005b 	beq	af6c <nrf_tx_send_ack+0x1ac>
    adfc:	e3a01001 	mov	r1, #1
    ae00:	e1a00004 	mov	r0, r4
    ae04:	ebfffbfc 	bl	9dfc <nrf_pipe_is_enabled>
    ae08:	e3500000 	cmp	r0, #0
    ae0c:	0a000061 	beq	af98 <nrf_tx_send_ack+0x1d8>
    ae10:	e3a01000 	mov	r1, #0
    ae14:	e1a00004 	mov	r0, r4
    ae18:	ebfffc01 	bl	9e24 <nrf_pipe_is_acked>
    ae1c:	e3500000 	cmp	r0, #0
    ae20:	0a000067 	beq	afc4 <nrf_tx_send_ack+0x204>
    ae24:	e3a01001 	mov	r1, #1
    ae28:	e1a00004 	mov	r0, r4
    ae2c:	ebfffbfc 	bl	9e24 <nrf_pipe_is_acked>
    ae30:	e3500000 	cmp	r0, #0
    ae34:	0a00006d 	beq	aff0 <nrf_tx_send_ack+0x230>
    ae38:	e3a02004 	mov	r2, #4
    ae3c:	e3a01017 	mov	r1, #23
    ae40:	e1a00004 	mov	r0, r4
    ae44:	ebfff77d 	bl	8c40 <nrf_bit_isset>
    ae48:	e3500000 	cmp	r0, #0
    ae4c:	0a000072 	beq	b01c <nrf_tx_send_ack+0x25c>
    ae50:	e1a00004 	mov	r0, r4
    ae54:	ebffff68 	bl	abfc <nrf_get_pkts>
    ae58:	e3500000 	cmp	r0, #0
    ae5c:	1afffffb 	bne	ae50 <nrf_tx_send_ack+0x90>
    ae60:	e3a03003 	mov	r3, #3
    ae64:	e1a02006 	mov	r2, r6
    ae68:	e3a0100a 	mov	r1, #10
    ae6c:	e1a00004 	mov	r0, r4
    ae70:	ebfff9ca 	bl	95a0 <nrf_set_addr>
    ae74:	e3a03003 	mov	r3, #3
    ae78:	e1a02006 	mov	r2, r6
    ae7c:	e3a01010 	mov	r1, #16
    ae80:	e1a00004 	mov	r0, r4
    ae84:	ebfff9c5 	bl	95a0 <nrf_set_addr>
    ae88:	e1a03005 	mov	r3, r5
    ae8c:	e1a02007 	mov	r2, r7
    ae90:	e3a010a0 	mov	r1, #160	@ 0xa0
    ae94:	e1a00004 	mov	r0, r4
    ae98:	ebfff6e1 	bl	8a24 <nrf_putn>
    ae9c:	e5d40001 	ldrb	r0, [r4, #1]
    aea0:	eb000487 	bl	c0c4 <gpio_set_off>
    aea4:	e59f3380 	ldr	r3, [pc, #896]	@ b22c <nrf_tx_send_ack+0x46c>
    aea8:	e58d3008 	str	r3, [sp, #8]
    aeac:	e59f337c 	ldr	r3, [pc, #892]	@ b230 <nrf_tx_send_ack+0x470>
    aeb0:	e58d300c 	str	r3, [sp, #12]
    aeb4:	e59f3378 	ldr	r3, [pc, #888]	@ b234 <nrf_tx_send_ack+0x474>
    aeb8:	e58d3010 	str	r3, [sp, #16]
    aebc:	e3a0307e 	mov	r3, #126	@ 0x7e
    aec0:	e58d3004 	str	r3, [sp, #4]
    aec4:	e3a03000 	mov	r3, #0
    aec8:	e58d3000 	str	r3, [sp]
    aecc:	e1a03004 	mov	r3, r4
    aed0:	e28d2008 	add	r2, sp, #8
    aed4:	e8920007 	ldm	r2, {r0, r1, r2}
    aed8:	ebfff679 	bl	88c4 <nrf_put8_chk_helper>
    aedc:	e3a02004 	mov	r2, #4
    aee0:	e3a01017 	mov	r1, #23
    aee4:	e1a00004 	mov	r0, r4
    aee8:	ebfff754 	bl	8c40 <nrf_bit_isset>
    aeec:	e3500000 	cmp	r0, #0
    aef0:	1a000054 	bne	b048 <nrf_tx_send_ack+0x288>
    aef4:	e5d40001 	ldrb	r0, [r4, #1]
    aef8:	eb00045e 	bl	c078 <gpio_set_on>
    aefc:	e3a01007 	mov	r1, #7
    af00:	e1a00004 	mov	r0, r4
    af04:	ebfff644 	bl	881c <nrf_get8>
    af08:	e3100020 	tst	r0, #32
    af0c:	1a000055 	bne	b068 <nrf_tx_send_ack+0x2a8>
    af10:	e3a02004 	mov	r2, #4
    af14:	e3a01007 	mov	r1, #7
    af18:	e1a00004 	mov	r0, r4
    af1c:	ebfff747 	bl	8c40 <nrf_bit_isset>
    af20:	e3500000 	cmp	r0, #0
    af24:	0afffff4 	beq	aefc <nrf_tx_send_ack+0x13c>
    af28:	e3a03e16 	mov	r3, #352	@ 0x160
    af2c:	e59f22fc 	ldr	r2, [pc, #764]	@ b230 <nrf_tx_send_ack+0x470>
    af30:	e59f12f4 	ldr	r1, [pc, #756]	@ b22c <nrf_tx_send_ack+0x46c>
    af34:	e59f02fc 	ldr	r0, [pc, #764]	@ b238 <nrf_tx_send_ack+0x478>
    af38:	eb0004fe 	bl	c338 <printk>
    af3c:	eb0005f3 	bl	c710 <clean_reboot>
    af40:	e1a01004 	mov	r1, r4
    af44:	e59f02f0 	ldr	r0, [pc, #752]	@ b23c <nrf_tx_send_ack+0x47c>
    af48:	ebfff804 	bl	8f60 <nrf_dump>
    af4c:	e59f32ec 	ldr	r3, [pc, #748]	@ b240 <nrf_tx_send_ack+0x480>
    af50:	e58d3000 	str	r3, [sp]
    af54:	e3a03f4d 	mov	r3, #308	@ 0x134
    af58:	e59f22d0 	ldr	r2, [pc, #720]	@ b230 <nrf_tx_send_ack+0x470>
    af5c:	e59f12c8 	ldr	r1, [pc, #712]	@ b22c <nrf_tx_send_ack+0x46c>
    af60:	e59f02dc 	ldr	r0, [pc, #732]	@ b244 <nrf_tx_send_ack+0x484>
    af64:	eb0004f3 	bl	c338 <printk>
    af68:	eb0005e8 	bl	c710 <clean_reboot>
    af6c:	e1a01004 	mov	r1, r4
    af70:	e59f02c4 	ldr	r0, [pc, #708]	@ b23c <nrf_tx_send_ack+0x47c>
    af74:	ebfff7f9 	bl	8f60 <nrf_dump>
    af78:	e59f32c8 	ldr	r3, [pc, #712]	@ b248 <nrf_tx_send_ack+0x488>
    af7c:	e58d3000 	str	r3, [sp]
    af80:	e59f32c4 	ldr	r3, [pc, #708]	@ b24c <nrf_tx_send_ack+0x48c>
    af84:	e59f22a4 	ldr	r2, [pc, #676]	@ b230 <nrf_tx_send_ack+0x470>
    af88:	e59f129c 	ldr	r1, [pc, #668]	@ b22c <nrf_tx_send_ack+0x46c>
    af8c:	e59f02b0 	ldr	r0, [pc, #688]	@ b244 <nrf_tx_send_ack+0x484>
    af90:	eb0004e8 	bl	c338 <printk>
    af94:	eb0005dd 	bl	c710 <clean_reboot>
    af98:	e1a01004 	mov	r1, r4
    af9c:	e59f0298 	ldr	r0, [pc, #664]	@ b23c <nrf_tx_send_ack+0x47c>
    afa0:	ebfff7ee 	bl	8f60 <nrf_dump>
    afa4:	e59f32a4 	ldr	r3, [pc, #676]	@ b250 <nrf_tx_send_ack+0x490>
    afa8:	e58d3000 	str	r3, [sp]
    afac:	e59f32a0 	ldr	r3, [pc, #672]	@ b254 <nrf_tx_send_ack+0x494>
    afb0:	e59f2278 	ldr	r2, [pc, #632]	@ b230 <nrf_tx_send_ack+0x470>
    afb4:	e59f1270 	ldr	r1, [pc, #624]	@ b22c <nrf_tx_send_ack+0x46c>
    afb8:	e59f0284 	ldr	r0, [pc, #644]	@ b244 <nrf_tx_send_ack+0x484>
    afbc:	eb0004dd 	bl	c338 <printk>
    afc0:	eb0005d2 	bl	c710 <clean_reboot>
    afc4:	e1a01004 	mov	r1, r4
    afc8:	e59f026c 	ldr	r0, [pc, #620]	@ b23c <nrf_tx_send_ack+0x47c>
    afcc:	ebfff7e3 	bl	8f60 <nrf_dump>
    afd0:	e59f3280 	ldr	r3, [pc, #640]	@ b258 <nrf_tx_send_ack+0x498>
    afd4:	e58d3000 	str	r3, [sp]
    afd8:	e59f327c 	ldr	r3, [pc, #636]	@ b25c <nrf_tx_send_ack+0x49c>
    afdc:	e59f224c 	ldr	r2, [pc, #588]	@ b230 <nrf_tx_send_ack+0x470>
    afe0:	e59f1244 	ldr	r1, [pc, #580]	@ b22c <nrf_tx_send_ack+0x46c>
    afe4:	e59f0258 	ldr	r0, [pc, #600]	@ b244 <nrf_tx_send_ack+0x484>
    afe8:	eb0004d2 	bl	c338 <printk>
    afec:	eb0005c7 	bl	c710 <clean_reboot>
    aff0:	e1a01004 	mov	r1, r4
    aff4:	e59f0240 	ldr	r0, [pc, #576]	@ b23c <nrf_tx_send_ack+0x47c>
    aff8:	ebfff7d8 	bl	8f60 <nrf_dump>
    affc:	e59f325c 	ldr	r3, [pc, #604]	@ b260 <nrf_tx_send_ack+0x4a0>
    b000:	e58d3000 	str	r3, [sp]
    b004:	e3a03f4e 	mov	r3, #312	@ 0x138
    b008:	e59f2220 	ldr	r2, [pc, #544]	@ b230 <nrf_tx_send_ack+0x470>
    b00c:	e59f1218 	ldr	r1, [pc, #536]	@ b22c <nrf_tx_send_ack+0x46c>
    b010:	e59f022c 	ldr	r0, [pc, #556]	@ b244 <nrf_tx_send_ack+0x484>
    b014:	eb0004c7 	bl	c338 <printk>
    b018:	eb0005bc 	bl	c710 <clean_reboot>
    b01c:	e1a01004 	mov	r1, r4
    b020:	e59f0214 	ldr	r0, [pc, #532]	@ b23c <nrf_tx_send_ack+0x47c>
    b024:	ebfff7cd 	bl	8f60 <nrf_dump>
    b028:	e59f3234 	ldr	r3, [pc, #564]	@ b264 <nrf_tx_send_ack+0x4a4>
    b02c:	e58d3000 	str	r3, [sp]
    b030:	e59f3230 	ldr	r3, [pc, #560]	@ b268 <nrf_tx_send_ack+0x4a8>
    b034:	e59f21f4 	ldr	r2, [pc, #500]	@ b230 <nrf_tx_send_ack+0x470>
    b038:	e59f11ec 	ldr	r1, [pc, #492]	@ b22c <nrf_tx_send_ack+0x46c>
    b03c:	e59f0200 	ldr	r0, [pc, #512]	@ b244 <nrf_tx_send_ack+0x484>
    b040:	eb0004bc 	bl	c338 <printk>
    b044:	eb0005b1 	bl	c710 <clean_reboot>
    b048:	e59f321c 	ldr	r3, [pc, #540]	@ b26c <nrf_tx_send_ack+0x4ac>
    b04c:	e58d3000 	str	r3, [sp]
    b050:	e59f3218 	ldr	r3, [pc, #536]	@ b270 <nrf_tx_send_ack+0x4b0>
    b054:	e59f21d4 	ldr	r2, [pc, #468]	@ b230 <nrf_tx_send_ack+0x470>
    b058:	e59f11cc 	ldr	r1, [pc, #460]	@ b22c <nrf_tx_send_ack+0x46c>
    b05c:	e59f0210 	ldr	r0, [pc, #528]	@ b274 <nrf_tx_send_ack+0x4b4>
    b060:	eb0004b4 	bl	c338 <printk>
    b064:	eb0005a9 	bl	c710 <clean_reboot>
    b068:	e3a01008 	mov	r1, #8
    b06c:	e1a00004 	mov	r0, r4
    b070:	ebfff5e9 	bl	881c <nrf_get8>
    b074:	e3a02003 	mov	r2, #3
    b078:	e3a01000 	mov	r1, #0
    b07c:	ebfffada 	bl	9bec <bits_get>
    b080:	e2842a02 	add	r2, r4, #8192	@ 0x2000
    b084:	e5923048 	ldr	r3, [r2, #72]	@ 0x48
    b088:	e0833000 	add	r3, r3, r0
    b08c:	e5823048 	str	r3, [r2, #72]	@ 0x48
    b090:	e3a01007 	mov	r1, #7
    b094:	e1a00004 	mov	r0, r4
    b098:	ebfff5df 	bl	881c <nrf_get8>
    b09c:	e1a02000 	mov	r2, r0
    b0a0:	e3a01007 	mov	r1, #7
    b0a4:	e1a00004 	mov	r0, r4
    b0a8:	ebfff5f0 	bl	8870 <nrf_put8>
    b0ac:	e5d40001 	ldrb	r0, [r4, #1]
    b0b0:	eb000403 	bl	c0c4 <gpio_set_off>
    b0b4:	e59f3170 	ldr	r3, [pc, #368]	@ b22c <nrf_tx_send_ack+0x46c>
    b0b8:	e58d3014 	str	r3, [sp, #20]
    b0bc:	e59f316c 	ldr	r3, [pc, #364]	@ b230 <nrf_tx_send_ack+0x470>
    b0c0:	e58d3018 	str	r3, [sp, #24]
    b0c4:	e59f31ac 	ldr	r3, [pc, #428]	@ b278 <nrf_tx_send_ack+0x4b8>
    b0c8:	e58d301c 	str	r3, [sp, #28]
    b0cc:	e3a0307f 	mov	r3, #127	@ 0x7f
    b0d0:	e58d3004 	str	r3, [sp, #4]
    b0d4:	e3a03000 	mov	r3, #0
    b0d8:	e58d3000 	str	r3, [sp]
    b0dc:	e1a03004 	mov	r3, r4
    b0e0:	e28d2020 	add	r2, sp, #32
    b0e4:	e9120007 	ldmdb	r2, {r0, r1, r2}
    b0e8:	ebfff5f5 	bl	88c4 <nrf_put8_chk_helper>
    b0ec:	e5d40001 	ldrb	r0, [r4, #1]
    b0f0:	eb0003e0 	bl	c078 <gpio_set_on>
    b0f4:	e3a00082 	mov	r0, #130	@ 0x82
    b0f8:	eb000606 	bl	c918 <delay_us>
    b0fc:	e3a02005 	mov	r2, #5
    b100:	e3a01007 	mov	r1, #7
    b104:	e1a00004 	mov	r0, r4
    b108:	ebfff6cc 	bl	8c40 <nrf_bit_isset>
    b10c:	e3500000 	cmp	r0, #0
    b110:	1a000019 	bne	b17c <nrf_tx_send_ack+0x3bc>
    b114:	e3a01000 	mov	r1, #0
    b118:	e1a00004 	mov	r0, r4
    b11c:	ebfff5be 	bl	881c <nrf_get8>
    b120:	e350007f 	cmp	r0, #127	@ 0x7f
    b124:	1a00001f 	bne	b1a8 <nrf_tx_send_ack+0x3e8>
    b128:	e2843a02 	add	r3, r4, #8192	@ 0x2000
    b12c:	e5932040 	ldr	r2, [r3, #64]	@ 0x40
    b130:	e2822001 	add	r2, r2, #1
    b134:	e5832040 	str	r2, [r3, #64]	@ 0x40
    b138:	e5932044 	ldr	r2, [r3, #68]	@ 0x44
    b13c:	e0822005 	add	r2, r2, r5
    b140:	e5832044 	str	r2, [r3, #68]	@ 0x44
    b144:	e3a02005 	mov	r2, #5
    b148:	e3a01007 	mov	r1, #7
    b14c:	e1a00004 	mov	r0, r4
    b150:	ebfff6ba 	bl	8c40 <nrf_bit_isset>
    b154:	e3500000 	cmp	r0, #0
    b158:	1a00001d 	bne	b1d4 <nrf_tx_send_ack+0x414>
    b15c:	e3a01000 	mov	r1, #0
    b160:	e1a00004 	mov	r0, r4
    b164:	ebfff5ac 	bl	881c <nrf_get8>
    b168:	e350007f 	cmp	r0, #127	@ 0x7f
    b16c:	1a000023 	bne	b200 <nrf_tx_send_ack+0x440>
    b170:	e1a00005 	mov	r0, r5
    b174:	e28dd024 	add	sp, sp, #36	@ 0x24
    b178:	e8bd80f0 	pop	{r4, r5, r6, r7, pc}
    b17c:	e1a01004 	mov	r1, r4
    b180:	e59f00b4 	ldr	r0, [pc, #180]	@ b23c <nrf_tx_send_ack+0x47c>
    b184:	ebfff775 	bl	8f60 <nrf_dump>
    b188:	e59f30ec 	ldr	r3, [pc, #236]	@ b27c <nrf_tx_send_ack+0x4bc>
    b18c:	e58d3000 	str	r3, [sp]
    b190:	e59f30e8 	ldr	r3, [pc, #232]	@ b280 <nrf_tx_send_ack+0x4c0>
    b194:	e59f2094 	ldr	r2, [pc, #148]	@ b230 <nrf_tx_send_ack+0x470>
    b198:	e59f108c 	ldr	r1, [pc, #140]	@ b22c <nrf_tx_send_ack+0x46c>
    b19c:	e59f00a0 	ldr	r0, [pc, #160]	@ b244 <nrf_tx_send_ack+0x484>
    b1a0:	eb000464 	bl	c338 <printk>
    b1a4:	eb000559 	bl	c710 <clean_reboot>
    b1a8:	e1a01004 	mov	r1, r4
    b1ac:	e59f0088 	ldr	r0, [pc, #136]	@ b23c <nrf_tx_send_ack+0x47c>
    b1b0:	ebfff76a 	bl	8f60 <nrf_dump>
    b1b4:	e59f3084 	ldr	r3, [pc, #132]	@ b240 <nrf_tx_send_ack+0x480>
    b1b8:	e58d3000 	str	r3, [sp]
    b1bc:	e3a03f5d 	mov	r3, #372	@ 0x174
    b1c0:	e59f2068 	ldr	r2, [pc, #104]	@ b230 <nrf_tx_send_ack+0x470>
    b1c4:	e59f1060 	ldr	r1, [pc, #96]	@ b22c <nrf_tx_send_ack+0x46c>
    b1c8:	e59f0074 	ldr	r0, [pc, #116]	@ b244 <nrf_tx_send_ack+0x484>
    b1cc:	eb000459 	bl	c338 <printk>
    b1d0:	eb00054e 	bl	c710 <clean_reboot>
    b1d4:	e1a01004 	mov	r1, r4
    b1d8:	e59f005c 	ldr	r0, [pc, #92]	@ b23c <nrf_tx_send_ack+0x47c>
    b1dc:	ebfff75f 	bl	8f60 <nrf_dump>
    b1e0:	e59f3094 	ldr	r3, [pc, #148]	@ b27c <nrf_tx_send_ack+0x4bc>
    b1e4:	e58d3000 	str	r3, [sp]
    b1e8:	e59f3094 	ldr	r3, [pc, #148]	@ b284 <nrf_tx_send_ack+0x4c4>
    b1ec:	e59f203c 	ldr	r2, [pc, #60]	@ b230 <nrf_tx_send_ack+0x470>
    b1f0:	e59f1034 	ldr	r1, [pc, #52]	@ b22c <nrf_tx_send_ack+0x46c>
    b1f4:	e59f0048 	ldr	r0, [pc, #72]	@ b244 <nrf_tx_send_ack+0x484>
    b1f8:	eb00044e 	bl	c338 <printk>
    b1fc:	eb000543 	bl	c710 <clean_reboot>
    b200:	e1a01004 	mov	r1, r4
    b204:	e59f0030 	ldr	r0, [pc, #48]	@ b23c <nrf_tx_send_ack+0x47c>
    b208:	ebfff754 	bl	8f60 <nrf_dump>
    b20c:	e59f302c 	ldr	r3, [pc, #44]	@ b240 <nrf_tx_send_ack+0x480>
    b210:	e58d3000 	str	r3, [sp]
    b214:	e3a03d06 	mov	r3, #384	@ 0x180
    b218:	e59f2010 	ldr	r2, [pc, #16]	@ b230 <nrf_tx_send_ack+0x470>
    b21c:	e59f1008 	ldr	r1, [pc, #8]	@ b22c <nrf_tx_send_ack+0x46c>
    b220:	e59f001c 	ldr	r0, [pc, #28]	@ b244 <nrf_tx_send_ack+0x484>
    b224:	eb000443 	bl	c338 <printk>
    b228:	eb000538 	bl	c710 <clean_reboot>
    b22c:	0000d84c 	.word	0x0000d84c
    b230:	0000e260 	.word	0x0000e260
    b234:	00000156 	.word	0x00000156
    b238:	0000da94 	.word	0x0000da94
    b23c:	0000d59c 	.word	0x0000d59c
    b240:	0000d9f0 	.word	0x0000d9f0
    b244:	0000d5b0 	.word	0x0000d5b0
    b248:	0000d8c4 	.word	0x0000d8c4
    b24c:	00000135 	.word	0x00000135
    b250:	0000d870 	.word	0x0000d870
    b254:	00000136 	.word	0x00000136
    b258:	0000d8f8 	.word	0x0000d8f8
    b25c:	00000137 	.word	0x00000137
    b260:	0000d8e0 	.word	0x0000d8e0
    b264:	0000d944 	.word	0x0000d944
    b268:	00000139 	.word	0x00000139
    b26c:	0000da7c 	.word	0x0000da7c
    b270:	00000157 	.word	0x00000157
    b274:	0000cd08 	.word	0x0000cd08
    b278:	0000016d 	.word	0x0000016d
    b27c:	0000d9a0 	.word	0x0000d9a0
    b280:	00000172 	.word	0x00000172
    b284:	0000017e 	.word	0x0000017e

0000b288 <nrf_tx_send_noack>:
    b288:	e92d40f0 	push	{r4, r5, r6, r7, lr}
    b28c:	e24dd024 	sub	sp, sp, #36	@ 0x24
    b290:	e1a04000 	mov	r4, r0
    b294:	e1a07001 	mov	r7, r1
    b298:	e1a06002 	mov	r6, r2
    b29c:	e1a05003 	mov	r5, r3
    b2a0:	e3a01000 	mov	r1, #0
    b2a4:	ebfff55c 	bl	881c <nrf_get8>
    b2a8:	e350007f 	cmp	r0, #127	@ 0x7f
    b2ac:	1a00006f 	bne	b470 <nrf_tx_send_noack+0x1e8>
    b2b0:	e3a01000 	mov	r1, #0
    b2b4:	e1a00004 	mov	r0, r4
    b2b8:	ebfffacf 	bl	9dfc <nrf_pipe_is_enabled>
    b2bc:	e3500000 	cmp	r0, #0
    b2c0:	1a000075 	bne	b49c <nrf_tx_send_noack+0x214>
    b2c4:	e3a01001 	mov	r1, #1
    b2c8:	e1a00004 	mov	r0, r4
    b2cc:	ebfffaca 	bl	9dfc <nrf_pipe_is_enabled>
    b2d0:	e3500000 	cmp	r0, #0
    b2d4:	0a00007b 	beq	b4c8 <nrf_tx_send_noack+0x240>
    b2d8:	e3a01001 	mov	r1, #1
    b2dc:	e1a00004 	mov	r0, r4
    b2e0:	ebfffacf 	bl	9e24 <nrf_pipe_is_acked>
    b2e4:	e3500000 	cmp	r0, #0
    b2e8:	1a000081 	bne	b4f4 <nrf_tx_send_noack+0x26c>
    b2ec:	e3a02004 	mov	r2, #4
    b2f0:	e3a01017 	mov	r1, #23
    b2f4:	e1a00004 	mov	r0, r4
    b2f8:	ebfff650 	bl	8c40 <nrf_bit_isset>
    b2fc:	e3500000 	cmp	r0, #0
    b300:	0a000086 	beq	b520 <nrf_tx_send_noack+0x298>
    b304:	e1a00004 	mov	r0, r4
    b308:	ebfffe3b 	bl	abfc <nrf_get_pkts>
    b30c:	e3500000 	cmp	r0, #0
    b310:	1afffffb 	bne	b304 <nrf_tx_send_noack+0x7c>
    b314:	e3a03003 	mov	r3, #3
    b318:	e1a02007 	mov	r2, r7
    b31c:	e3a01010 	mov	r1, #16
    b320:	e1a00004 	mov	r0, r4
    b324:	ebfff89d 	bl	95a0 <nrf_set_addr>
    b328:	e1a03005 	mov	r3, r5
    b32c:	e1a02006 	mov	r2, r6
    b330:	e3a010a0 	mov	r1, #160	@ 0xa0
    b334:	e1a00004 	mov	r0, r4
    b338:	ebfff5b9 	bl	8a24 <nrf_putn>
    b33c:	e5d40001 	ldrb	r0, [r4, #1]
    b340:	eb00035f 	bl	c0c4 <gpio_set_off>
    b344:	e59f3278 	ldr	r3, [pc, #632]	@ b5c4 <nrf_tx_send_noack+0x33c>
    b348:	e58d3008 	str	r3, [sp, #8]
    b34c:	e59f3274 	ldr	r3, [pc, #628]	@ b5c8 <nrf_tx_send_noack+0x340>
    b350:	e58d300c 	str	r3, [sp, #12]
    b354:	e59f3270 	ldr	r3, [pc, #624]	@ b5cc <nrf_tx_send_noack+0x344>
    b358:	e58d3010 	str	r3, [sp, #16]
    b35c:	e3a0307e 	mov	r3, #126	@ 0x7e
    b360:	e58d3004 	str	r3, [sp, #4]
    b364:	e3a03000 	mov	r3, #0
    b368:	e58d3000 	str	r3, [sp]
    b36c:	e1a03004 	mov	r3, r4
    b370:	e28d2008 	add	r2, sp, #8
    b374:	e8920007 	ldm	r2, {r0, r1, r2}
    b378:	ebfff551 	bl	88c4 <nrf_put8_chk_helper>
    b37c:	e3a02004 	mov	r2, #4
    b380:	e3a01017 	mov	r1, #23
    b384:	e1a00004 	mov	r0, r4
    b388:	ebfff62c 	bl	8c40 <nrf_bit_isset>
    b38c:	e3500000 	cmp	r0, #0
    b390:	1a00006d 	bne	b54c <nrf_tx_send_noack+0x2c4>
    b394:	e5d40001 	ldrb	r0, [r4, #1]
    b398:	eb000336 	bl	c078 <gpio_set_on>
    b39c:	e3a01007 	mov	r1, #7
    b3a0:	e1a00004 	mov	r0, r4
    b3a4:	ebfff51c 	bl	881c <nrf_get8>
    b3a8:	e3100020 	tst	r0, #32
    b3ac:	0afffffa 	beq	b39c <nrf_tx_send_noack+0x114>
    b3b0:	e3a01007 	mov	r1, #7
    b3b4:	e1a00004 	mov	r0, r4
    b3b8:	ebfff517 	bl	881c <nrf_get8>
    b3bc:	e1a02000 	mov	r2, r0
    b3c0:	e3a01007 	mov	r1, #7
    b3c4:	e1a00004 	mov	r0, r4
    b3c8:	ebfff528 	bl	8870 <nrf_put8>
    b3cc:	e5d40001 	ldrb	r0, [r4, #1]
    b3d0:	eb00033b 	bl	c0c4 <gpio_set_off>
    b3d4:	e59f31e8 	ldr	r3, [pc, #488]	@ b5c4 <nrf_tx_send_noack+0x33c>
    b3d8:	e58d3014 	str	r3, [sp, #20]
    b3dc:	e59f31e4 	ldr	r3, [pc, #484]	@ b5c8 <nrf_tx_send_noack+0x340>
    b3e0:	e58d3018 	str	r3, [sp, #24]
    b3e4:	e3a03f6d 	mov	r3, #436	@ 0x1b4
    b3e8:	e58d301c 	str	r3, [sp, #28]
    b3ec:	e3a0307f 	mov	r3, #127	@ 0x7f
    b3f0:	e58d3004 	str	r3, [sp, #4]
    b3f4:	e3a03000 	mov	r3, #0
    b3f8:	e58d3000 	str	r3, [sp]
    b3fc:	e1a03004 	mov	r3, r4
    b400:	e28d2020 	add	r2, sp, #32
    b404:	e9120007 	ldmdb	r2, {r0, r1, r2}
    b408:	ebfff52d 	bl	88c4 <nrf_put8_chk_helper>
    b40c:	e5d40001 	ldrb	r0, [r4, #1]
    b410:	eb000318 	bl	c078 <gpio_set_on>
    b414:	e3a00082 	mov	r0, #130	@ 0x82
    b418:	eb00053e 	bl	c918 <delay_us>
    b41c:	e3a02005 	mov	r2, #5
    b420:	e3a01007 	mov	r1, #7
    b424:	e1a00004 	mov	r0, r4
    b428:	ebfff604 	bl	8c40 <nrf_bit_isset>
    b42c:	e3500000 	cmp	r0, #0
    b430:	1a00004d 	bne	b56c <nrf_tx_send_noack+0x2e4>
    b434:	e3a01000 	mov	r1, #0
    b438:	e1a00004 	mov	r0, r4
    b43c:	ebfff4f6 	bl	881c <nrf_get8>
    b440:	e350007f 	cmp	r0, #127	@ 0x7f
    b444:	1a000053 	bne	b598 <nrf_tx_send_noack+0x310>
    b448:	e2844a02 	add	r4, r4, #8192	@ 0x2000
    b44c:	e5943040 	ldr	r3, [r4, #64]	@ 0x40
    b450:	e2833001 	add	r3, r3, #1
    b454:	e5843040 	str	r3, [r4, #64]	@ 0x40
    b458:	e5943044 	ldr	r3, [r4, #68]	@ 0x44
    b45c:	e0833005 	add	r3, r3, r5
    b460:	e5843044 	str	r3, [r4, #68]	@ 0x44
    b464:	e1a00005 	mov	r0, r5
    b468:	e28dd024 	add	sp, sp, #36	@ 0x24
    b46c:	e8bd80f0 	pop	{r4, r5, r6, r7, pc}
    b470:	e1a01004 	mov	r1, r4
    b474:	e59f0154 	ldr	r0, [pc, #340]	@ b5d0 <nrf_tx_send_noack+0x348>
    b478:	ebfff6b8 	bl	8f60 <nrf_dump>
    b47c:	e59f3150 	ldr	r3, [pc, #336]	@ b5d4 <nrf_tx_send_noack+0x34c>
    b480:	e58d3000 	str	r3, [sp]
    b484:	e59f314c 	ldr	r3, [pc, #332]	@ b5d8 <nrf_tx_send_noack+0x350>
    b488:	e59f2138 	ldr	r2, [pc, #312]	@ b5c8 <nrf_tx_send_noack+0x340>
    b48c:	e59f1130 	ldr	r1, [pc, #304]	@ b5c4 <nrf_tx_send_noack+0x33c>
    b490:	e59f0144 	ldr	r0, [pc, #324]	@ b5dc <nrf_tx_send_noack+0x354>
    b494:	eb0003a7 	bl	c338 <printk>
    b498:	eb00049c 	bl	c710 <clean_reboot>
    b49c:	e1a01004 	mov	r1, r4
    b4a0:	e59f0128 	ldr	r0, [pc, #296]	@ b5d0 <nrf_tx_send_noack+0x348>
    b4a4:	ebfff6ad 	bl	8f60 <nrf_dump>
    b4a8:	e59f3130 	ldr	r3, [pc, #304]	@ b5e0 <nrf_tx_send_noack+0x358>
    b4ac:	e58d3000 	str	r3, [sp]
    b4b0:	e59f312c 	ldr	r3, [pc, #300]	@ b5e4 <nrf_tx_send_noack+0x35c>
    b4b4:	e59f210c 	ldr	r2, [pc, #268]	@ b5c8 <nrf_tx_send_noack+0x340>
    b4b8:	e59f1104 	ldr	r1, [pc, #260]	@ b5c4 <nrf_tx_send_noack+0x33c>
    b4bc:	e59f0118 	ldr	r0, [pc, #280]	@ b5dc <nrf_tx_send_noack+0x354>
    b4c0:	eb00039c 	bl	c338 <printk>
    b4c4:	eb000491 	bl	c710 <clean_reboot>
    b4c8:	e1a01004 	mov	r1, r4
    b4cc:	e59f00fc 	ldr	r0, [pc, #252]	@ b5d0 <nrf_tx_send_noack+0x348>
    b4d0:	ebfff6a2 	bl	8f60 <nrf_dump>
    b4d4:	e59f310c 	ldr	r3, [pc, #268]	@ b5e8 <nrf_tx_send_noack+0x360>
    b4d8:	e58d3000 	str	r3, [sp]
    b4dc:	e59f3108 	ldr	r3, [pc, #264]	@ b5ec <nrf_tx_send_noack+0x364>
    b4e0:	e59f20e0 	ldr	r2, [pc, #224]	@ b5c8 <nrf_tx_send_noack+0x340>
    b4e4:	e59f10d8 	ldr	r1, [pc, #216]	@ b5c4 <nrf_tx_send_noack+0x33c>
    b4e8:	e59f00ec 	ldr	r0, [pc, #236]	@ b5dc <nrf_tx_send_noack+0x354>
    b4ec:	eb000391 	bl	c338 <printk>
    b4f0:	eb000486 	bl	c710 <clean_reboot>
    b4f4:	e1a01004 	mov	r1, r4
    b4f8:	e59f00d0 	ldr	r0, [pc, #208]	@ b5d0 <nrf_tx_send_noack+0x348>
    b4fc:	ebfff697 	bl	8f60 <nrf_dump>
    b500:	e59f30e8 	ldr	r3, [pc, #232]	@ b5f0 <nrf_tx_send_noack+0x368>
    b504:	e58d3000 	str	r3, [sp]
    b508:	e3a03f63 	mov	r3, #396	@ 0x18c
    b50c:	e59f20b4 	ldr	r2, [pc, #180]	@ b5c8 <nrf_tx_send_noack+0x340>
    b510:	e59f10ac 	ldr	r1, [pc, #172]	@ b5c4 <nrf_tx_send_noack+0x33c>
    b514:	e59f00c0 	ldr	r0, [pc, #192]	@ b5dc <nrf_tx_send_noack+0x354>
    b518:	eb000386 	bl	c338 <printk>
    b51c:	eb00047b 	bl	c710 <clean_reboot>
    b520:	e1a01004 	mov	r1, r4
    b524:	e59f00a4 	ldr	r0, [pc, #164]	@ b5d0 <nrf_tx_send_noack+0x348>
    b528:	ebfff68c 	bl	8f60 <nrf_dump>
    b52c:	e59f30c0 	ldr	r3, [pc, #192]	@ b5f4 <nrf_tx_send_noack+0x36c>
    b530:	e58d3000 	str	r3, [sp]
    b534:	e59f30bc 	ldr	r3, [pc, #188]	@ b5f8 <nrf_tx_send_noack+0x370>
    b538:	e59f2088 	ldr	r2, [pc, #136]	@ b5c8 <nrf_tx_send_noack+0x340>
    b53c:	e59f1080 	ldr	r1, [pc, #128]	@ b5c4 <nrf_tx_send_noack+0x33c>
    b540:	e59f0094 	ldr	r0, [pc, #148]	@ b5dc <nrf_tx_send_noack+0x354>
    b544:	eb00037b 	bl	c338 <printk>
    b548:	eb000470 	bl	c710 <clean_reboot>
    b54c:	e59f30a8 	ldr	r3, [pc, #168]	@ b5fc <nrf_tx_send_noack+0x374>
    b550:	e58d3000 	str	r3, [sp]
    b554:	e3a03f69 	mov	r3, #420	@ 0x1a4
    b558:	e59f2068 	ldr	r2, [pc, #104]	@ b5c8 <nrf_tx_send_noack+0x340>
    b55c:	e59f1060 	ldr	r1, [pc, #96]	@ b5c4 <nrf_tx_send_noack+0x33c>
    b560:	e59f0098 	ldr	r0, [pc, #152]	@ b600 <nrf_tx_send_noack+0x378>
    b564:	eb000373 	bl	c338 <printk>
    b568:	eb000468 	bl	c710 <clean_reboot>
    b56c:	e1a01004 	mov	r1, r4
    b570:	e59f0058 	ldr	r0, [pc, #88]	@ b5d0 <nrf_tx_send_noack+0x348>
    b574:	ebfff679 	bl	8f60 <nrf_dump>
    b578:	e59f3084 	ldr	r3, [pc, #132]	@ b604 <nrf_tx_send_noack+0x37c>
    b57c:	e58d3000 	str	r3, [sp]
    b580:	e59f3080 	ldr	r3, [pc, #128]	@ b608 <nrf_tx_send_noack+0x380>
    b584:	e59f203c 	ldr	r2, [pc, #60]	@ b5c8 <nrf_tx_send_noack+0x340>
    b588:	e59f1034 	ldr	r1, [pc, #52]	@ b5c4 <nrf_tx_send_noack+0x33c>
    b58c:	e59f0048 	ldr	r0, [pc, #72]	@ b5dc <nrf_tx_send_noack+0x354>
    b590:	eb000368 	bl	c338 <printk>
    b594:	eb00045d 	bl	c710 <clean_reboot>
    b598:	e1a01004 	mov	r1, r4
    b59c:	e59f002c 	ldr	r0, [pc, #44]	@ b5d0 <nrf_tx_send_noack+0x348>
    b5a0:	ebfff66e 	bl	8f60 <nrf_dump>
    b5a4:	e59f3028 	ldr	r3, [pc, #40]	@ b5d4 <nrf_tx_send_noack+0x34c>
    b5a8:	e58d3000 	str	r3, [sp]
    b5ac:	e59f3058 	ldr	r3, [pc, #88]	@ b60c <nrf_tx_send_noack+0x384>
    b5b0:	e59f2010 	ldr	r2, [pc, #16]	@ b5c8 <nrf_tx_send_noack+0x340>
    b5b4:	e59f1008 	ldr	r1, [pc, #8]	@ b5c4 <nrf_tx_send_noack+0x33c>
    b5b8:	e59f001c 	ldr	r0, [pc, #28]	@ b5dc <nrf_tx_send_noack+0x354>
    b5bc:	eb00035d 	bl	c338 <printk>
    b5c0:	eb000452 	bl	c710 <clean_reboot>
    b5c4:	0000d84c 	.word	0x0000d84c
    b5c8:	0000e270 	.word	0x0000e270
    b5cc:	000001a3 	.word	0x000001a3
    b5d0:	0000d59c 	.word	0x0000d59c
    b5d4:	0000d9f0 	.word	0x0000d9f0
    b5d8:	00000189 	.word	0x00000189
    b5dc:	0000d5b0 	.word	0x0000d5b0
    b5e0:	0000d8a8 	.word	0x0000d8a8
    b5e4:	0000018a 	.word	0x0000018a
    b5e8:	0000d870 	.word	0x0000d870
    b5ec:	0000018b 	.word	0x0000018b
    b5f0:	0000d88c 	.word	0x0000d88c
    b5f4:	0000d944 	.word	0x0000d944
    b5f8:	0000018d 	.word	0x0000018d
    b5fc:	0000da7c 	.word	0x0000da7c
    b600:	0000cd08 	.word	0x0000cd08
    b604:	0000d9a0 	.word	0x0000d9a0
    b608:	000001b9 	.word	0x000001b9
    b60c:	000001bb 	.word	0x000001bb

0000b610 <kmalloc_heap_end>:
    b610:	e59f3004 	ldr	r3, [pc, #4]	@ b61c <kmalloc_heap_end+0xc>
    b614:	e5930000 	ldr	r0, [r3]
    b618:	e12fff1e 	bx	lr
    b61c:	0000e384 	.word	0x0000e384

0000b620 <kmalloc_heap_start>:
    b620:	e59f3004 	ldr	r3, [pc, #4]	@ b62c <kmalloc_heap_start+0xc>
    b624:	e5930004 	ldr	r0, [r3, #4]
    b628:	e12fff1e 	bx	lr
    b62c:	0000e384 	.word	0x0000e384

0000b630 <kmalloc_heap_ptr>:
    b630:	e59f3004 	ldr	r3, [pc, #4]	@ b63c <kmalloc_heap_ptr+0xc>
    b634:	e5930008 	ldr	r0, [r3, #8]
    b638:	e12fff1e 	bx	lr
    b63c:	0000e384 	.word	0x0000e384

0000b640 <kmalloc_init_set_start>:
    b640:	e92d4030 	push	{r4, r5, lr}
    b644:	e24dd00c 	sub	sp, sp, #12
    b648:	e1a04000 	mov	r4, r0
    b64c:	e1a05001 	mov	r5, r1
    b650:	eb000475 	bl	c82c <program_end>
    b654:	e1540000 	cmp	r4, r0
    b658:	3a000010 	bcc	b6a0 <kmalloc_init_set_start+0x60>
    b65c:	e3550000 	cmp	r5, #0
    b660:	0a000014 	beq	b6b8 <kmalloc_init_set_start+0x78>
    b664:	e59f30ac 	ldr	r3, [pc, #172]	@ b718 <kmalloc_init_set_start+0xd8>
    b668:	e5933004 	ldr	r3, [r3, #4]
    b66c:	e1530004 	cmp	r3, r4
    b670:	8a000018 	bhi	b6d8 <kmalloc_init_set_start+0x98>
    b674:	e59f309c 	ldr	r3, [pc, #156]	@ b718 <kmalloc_init_set_start+0xd8>
    b678:	e5933008 	ldr	r3, [r3, #8]
    b67c:	e1530004 	cmp	r3, r4
    b680:	8a00001a 	bhi	b6f0 <kmalloc_init_set_start+0xb0>
    b684:	e59f308c 	ldr	r3, [pc, #140]	@ b718 <kmalloc_init_set_start+0xd8>
    b688:	e5834008 	str	r4, [r3, #8]
    b68c:	e5834004 	str	r4, [r3, #4]
    b690:	e0844005 	add	r4, r4, r5
    b694:	e5834000 	str	r4, [r3]
    b698:	e28dd00c 	add	sp, sp, #12
    b69c:	e8bd8030 	pop	{r4, r5, pc}
    b6a0:	e3a03030 	mov	r3, #48	@ 0x30
    b6a4:	e59f2070 	ldr	r2, [pc, #112]	@ b71c <kmalloc_init_set_start+0xdc>
    b6a8:	e59f1070 	ldr	r1, [pc, #112]	@ b720 <kmalloc_init_set_start+0xe0>
    b6ac:	e59f0070 	ldr	r0, [pc, #112]	@ b724 <kmalloc_init_set_start+0xe4>
    b6b0:	eb000320 	bl	c338 <printk>
    b6b4:	eb000415 	bl	c710 <clean_reboot>
    b6b8:	e59f3068 	ldr	r3, [pc, #104]	@ b728 <kmalloc_init_set_start+0xe8>
    b6bc:	e58d3000 	str	r3, [sp]
    b6c0:	e3a03032 	mov	r3, #50	@ 0x32
    b6c4:	e59f2050 	ldr	r2, [pc, #80]	@ b71c <kmalloc_init_set_start+0xdc>
    b6c8:	e59f1050 	ldr	r1, [pc, #80]	@ b720 <kmalloc_init_set_start+0xe0>
    b6cc:	e59f0058 	ldr	r0, [pc, #88]	@ b72c <kmalloc_init_set_start+0xec>
    b6d0:	eb000318 	bl	c338 <printk>
    b6d4:	eb00040d 	bl	c710 <clean_reboot>
    b6d8:	e3a03034 	mov	r3, #52	@ 0x34
    b6dc:	e59f2038 	ldr	r2, [pc, #56]	@ b71c <kmalloc_init_set_start+0xdc>
    b6e0:	e59f1038 	ldr	r1, [pc, #56]	@ b720 <kmalloc_init_set_start+0xe0>
    b6e4:	e59f0044 	ldr	r0, [pc, #68]	@ b730 <kmalloc_init_set_start+0xf0>
    b6e8:	eb000312 	bl	c338 <printk>
    b6ec:	eb000407 	bl	c710 <clean_reboot>
    b6f0:	e59f3020 	ldr	r3, [pc, #32]	@ b718 <kmalloc_init_set_start+0xd8>
    b6f4:	e5933000 	ldr	r3, [r3]
    b6f8:	e58d3004 	str	r3, [sp, #4]
    b6fc:	e58d4000 	str	r4, [sp]
    b700:	e3a03038 	mov	r3, #56	@ 0x38
    b704:	e59f2010 	ldr	r2, [pc, #16]	@ b71c <kmalloc_init_set_start+0xdc>
    b708:	e59f1010 	ldr	r1, [pc, #16]	@ b720 <kmalloc_init_set_start+0xe0>
    b70c:	e59f0020 	ldr	r0, [pc, #32]	@ b734 <kmalloc_init_set_start+0xf4>
    b710:	eb000308 	bl	c338 <printk>
    b714:	eb0003fd 	bl	c710 <clean_reboot>
    b718:	0000e384 	.word	0x0000e384
    b71c:	0000e284 	.word	0x0000e284
    b720:	0000dab8 	.word	0x0000dab8
    b724:	0000dac4 	.word	0x0000dac4
    b728:	0000daec 	.word	0x0000daec
    b72c:	0000cd08 	.word	0x0000cd08
    b730:	0000daf8 	.word	0x0000daf8
    b734:	0000db44 	.word	0x0000db44

0000b738 <kmalloc_notzero>:
    b738:	e52de004 	push	{lr}		@ (str lr, [sp, #-4]!)
    b73c:	e24dd00c 	sub	sp, sp, #12
    b740:	e3500000 	cmp	r0, #0
    b744:	0a00000f 	beq	b788 <kmalloc_notzero+0x50>
    b748:	e2800007 	add	r0, r0, #7
    b74c:	e3c03007 	bic	r3, r0, #7
    b750:	e59f20b4 	ldr	r2, [pc, #180]	@ b80c <kmalloc_notzero+0xd4>
    b754:	e5920008 	ldr	r0, [r2, #8]
    b758:	e3100007 	tst	r0, #7
    b75c:	1a000011 	bne	b7a8 <kmalloc_notzero+0x70>
    b760:	e3500000 	cmp	r0, #0
    b764:	0a000017 	beq	b7c8 <kmalloc_notzero+0x90>
    b768:	e0802003 	add	r2, r0, r3
    b76c:	e59f1098 	ldr	r1, [pc, #152]	@ b80c <kmalloc_notzero+0xd4>
    b770:	e5812008 	str	r2, [r1, #8]
    b774:	e5911000 	ldr	r1, [r1]
    b778:	e1520001 	cmp	r2, r1
    b77c:	8a000019 	bhi	b7e8 <kmalloc_notzero+0xb0>
    b780:	e28dd00c 	add	sp, sp, #12
    b784:	e49df004 	pop	{pc}		@ (ldr pc, [sp], #4)
    b788:	e59f3080 	ldr	r3, [pc, #128]	@ b810 <kmalloc_notzero+0xd8>
    b78c:	e58d3000 	str	r3, [sp]
    b790:	e3a03041 	mov	r3, #65	@ 0x41
    b794:	e59f2078 	ldr	r2, [pc, #120]	@ b814 <kmalloc_notzero+0xdc>
    b798:	e59f1078 	ldr	r1, [pc, #120]	@ b818 <kmalloc_notzero+0xe0>
    b79c:	e59f0078 	ldr	r0, [pc, #120]	@ b81c <kmalloc_notzero+0xe4>
    b7a0:	eb0002e4 	bl	c338 <printk>
    b7a4:	eb0003d9 	bl	c710 <clean_reboot>
    b7a8:	e59f3070 	ldr	r3, [pc, #112]	@ b820 <kmalloc_notzero+0xe8>
    b7ac:	e58d3000 	str	r3, [sp]
    b7b0:	e3a03044 	mov	r3, #68	@ 0x44
    b7b4:	e59f2058 	ldr	r2, [pc, #88]	@ b814 <kmalloc_notzero+0xdc>
    b7b8:	e59f1058 	ldr	r1, [pc, #88]	@ b818 <kmalloc_notzero+0xe0>
    b7bc:	e59f0058 	ldr	r0, [pc, #88]	@ b81c <kmalloc_notzero+0xe4>
    b7c0:	eb0002dc 	bl	c338 <printk>
    b7c4:	eb0003d1 	bl	c710 <clean_reboot>
    b7c8:	e59f3054 	ldr	r3, [pc, #84]	@ b824 <kmalloc_notzero+0xec>
    b7cc:	e58d3000 	str	r3, [sp]
    b7d0:	e3a03047 	mov	r3, #71	@ 0x47
    b7d4:	e59f2038 	ldr	r2, [pc, #56]	@ b814 <kmalloc_notzero+0xdc>
    b7d8:	e59f1038 	ldr	r1, [pc, #56]	@ b818 <kmalloc_notzero+0xe0>
    b7dc:	e59f0038 	ldr	r0, [pc, #56]	@ b81c <kmalloc_notzero+0xe4>
    b7e0:	eb0002d4 	bl	c338 <printk>
    b7e4:	eb0003c9 	bl	c710 <clean_reboot>
    b7e8:	e0422001 	sub	r2, r2, r1
    b7ec:	e58d2004 	str	r2, [sp, #4]
    b7f0:	e58d3000 	str	r3, [sp]
    b7f4:	e3a0304b 	mov	r3, #75	@ 0x4b
    b7f8:	e59f2014 	ldr	r2, [pc, #20]	@ b814 <kmalloc_notzero+0xdc>
    b7fc:	e59f1014 	ldr	r1, [pc, #20]	@ b818 <kmalloc_notzero+0xe0>
    b800:	e59f0020 	ldr	r0, [pc, #32]	@ b828 <kmalloc_notzero+0xf0>
    b804:	eb0002cb 	bl	c338 <printk>
    b808:	eb0003c0 	bl	c710 <clean_reboot>
    b80c:	0000e384 	.word	0x0000e384
    b810:	0000dd98 	.word	0x0000dd98
    b814:	0000e29c 	.word	0x0000e29c
    b818:	0000dab8 	.word	0x0000dab8
    b81c:	0000cd08 	.word	0x0000cd08
    b820:	0000db88 	.word	0x0000db88
    b824:	0000dba0 	.word	0x0000dba0
    b828:	0000dba8 	.word	0x0000dba8

0000b82c <kmalloc>:
    b82c:	e92d4030 	push	{r4, r5, lr}
    b830:	e24dd00c 	sub	sp, sp, #12
    b834:	e2504000 	subs	r4, r0, #0
    b838:	0a000008 	beq	b860 <kmalloc+0x34>
    b83c:	e1a00004 	mov	r0, r4
    b840:	ebffffbc 	bl	b738 <kmalloc_notzero>
    b844:	e1a05000 	mov	r5, r0
    b848:	e1a02004 	mov	r2, r4
    b84c:	e3a01000 	mov	r1, #0
    b850:	eb000292 	bl	c2a0 <memset>
    b854:	e1a00005 	mov	r0, r5
    b858:	e28dd00c 	add	sp, sp, #12
    b85c:	e8bd8030 	pop	{r4, r5, pc}
    b860:	e59f3018 	ldr	r3, [pc, #24]	@ b880 <kmalloc+0x54>
    b864:	e58d3000 	str	r3, [sp]
    b868:	e3a03053 	mov	r3, #83	@ 0x53
    b86c:	e59f2010 	ldr	r2, [pc, #16]	@ b884 <kmalloc+0x58>
    b870:	e59f1010 	ldr	r1, [pc, #16]	@ b888 <kmalloc+0x5c>
    b874:	e59f0010 	ldr	r0, [pc, #16]	@ b88c <kmalloc+0x60>
    b878:	eb0002ae 	bl	c338 <printk>
    b87c:	eb0003a3 	bl	c710 <clean_reboot>
    b880:	0000dd98 	.word	0x0000dd98
    b884:	0000e2ac 	.word	0x0000e2ac
    b888:	0000dab8 	.word	0x0000dab8
    b88c:	0000cd08 	.word	0x0000cd08

0000b890 <kmalloc_aligned>:
    b890:	e52de004 	push	{lr}		@ (str lr, [sp, #-4]!)
    b894:	e24dd00c 	sub	sp, sp, #12
    b898:	e3500000 	cmp	r0, #0
    b89c:	0a000014 	beq	b8f4 <kmalloc_aligned+0x64>
    b8a0:	e2613000 	rsb	r3, r1, #0
    b8a4:	e1d13003 	bics	r3, r1, r3
    b8a8:	1a000019 	bne	b914 <kmalloc_aligned+0x84>
    b8ac:	e3510008 	cmp	r1, #8
    b8b0:	33a01008 	movcc	r1, #8
    b8b4:	e59f30b8 	ldr	r3, [pc, #184]	@ b974 <kmalloc_aligned+0xe4>
    b8b8:	e5932008 	ldr	r2, [r3, #8]
    b8bc:	e2613000 	rsb	r3, r1, #0
    b8c0:	e1d1c003 	bics	ip, r1, r3
    b8c4:	1a00001a 	bne	b934 <kmalloc_aligned+0xa4>
    b8c8:	e0822001 	add	r2, r2, r1
    b8cc:	e2422001 	sub	r2, r2, #1
    b8d0:	e0033002 	and	r3, r3, r2
    b8d4:	e2411001 	sub	r1, r1, #1
    b8d8:	e1110003 	tst	r1, r3
    b8dc:	1a00001c 	bne	b954 <kmalloc_aligned+0xc4>
    b8e0:	e59f208c 	ldr	r2, [pc, #140]	@ b974 <kmalloc_aligned+0xe4>
    b8e4:	e5823008 	str	r3, [r2, #8]
    b8e8:	ebffffcf 	bl	b82c <kmalloc>
    b8ec:	e28dd00c 	add	sp, sp, #12
    b8f0:	e49df004 	pop	{pc}		@ (ldr pc, [sp], #4)
    b8f4:	e59f307c 	ldr	r3, [pc, #124]	@ b978 <kmalloc_aligned+0xe8>
    b8f8:	e58d3000 	str	r3, [sp]
    b8fc:	e3a0305d 	mov	r3, #93	@ 0x5d
    b900:	e59f2074 	ldr	r2, [pc, #116]	@ b97c <kmalloc_aligned+0xec>
    b904:	e59f1074 	ldr	r1, [pc, #116]	@ b980 <kmalloc_aligned+0xf0>
    b908:	e59f0074 	ldr	r0, [pc, #116]	@ b984 <kmalloc_aligned+0xf4>
    b90c:	eb000289 	bl	c338 <printk>
    b910:	eb00037e 	bl	c710 <clean_reboot>
    b914:	e59f306c 	ldr	r3, [pc, #108]	@ b988 <kmalloc_aligned+0xf8>
    b918:	e58d3000 	str	r3, [sp]
    b91c:	e3a0305e 	mov	r3, #94	@ 0x5e
    b920:	e59f2054 	ldr	r2, [pc, #84]	@ b97c <kmalloc_aligned+0xec>
    b924:	e59f1054 	ldr	r1, [pc, #84]	@ b980 <kmalloc_aligned+0xf0>
    b928:	e59f005c 	ldr	r0, [pc, #92]	@ b98c <kmalloc_aligned+0xfc>
    b92c:	eb000281 	bl	c338 <printk>
    b930:	eb000376 	bl	c710 <clean_reboot>
    b934:	e59f3054 	ldr	r3, [pc, #84]	@ b990 <kmalloc_aligned+0x100>
    b938:	e58d3000 	str	r3, [sp]
    b93c:	e3a03011 	mov	r3, #17
    b940:	e59f204c 	ldr	r2, [pc, #76]	@ b994 <kmalloc_aligned+0x104>
    b944:	e59f1034 	ldr	r1, [pc, #52]	@ b980 <kmalloc_aligned+0xf0>
    b948:	e59f0034 	ldr	r0, [pc, #52]	@ b984 <kmalloc_aligned+0xf4>
    b94c:	eb000279 	bl	c338 <printk>
    b950:	eb00036e 	bl	c710 <clean_reboot>
    b954:	e59f303c 	ldr	r3, [pc, #60]	@ b998 <kmalloc_aligned+0x108>
    b958:	e58d3000 	str	r3, [sp]
    b95c:	e3a03065 	mov	r3, #101	@ 0x65
    b960:	e59f2014 	ldr	r2, [pc, #20]	@ b97c <kmalloc_aligned+0xec>
    b964:	e59f1014 	ldr	r1, [pc, #20]	@ b980 <kmalloc_aligned+0xf0>
    b968:	e59f002c 	ldr	r0, [pc, #44]	@ b99c <kmalloc_aligned+0x10c>
    b96c:	eb000271 	bl	c338 <printk>
    b970:	eb000366 	bl	c710 <clean_reboot>
    b974:	0000e384 	.word	0x0000e384
    b978:	0000dd98 	.word	0x0000dd98
    b97c:	0000e2b4 	.word	0x0000e2b4
    b980:	0000dab8 	.word	0x0000dab8
    b984:	0000cd08 	.word	0x0000cd08
    b988:	0000dc30 	.word	0x0000dc30
    b98c:	0000dbf0 	.word	0x0000dbf0
    b990:	0000dc44 	.word	0x0000dc44
    b994:	0000e2c4 	.word	0x0000e2c4
    b998:	0000dc88 	.word	0x0000dc88
    b99c:	0000dc50 	.word	0x0000dc50

0000b9a0 <kfree_all>:
    b9a0:	e59f3008 	ldr	r3, [pc, #8]	@ b9b0 <kfree_all+0x10>
    b9a4:	e5932004 	ldr	r2, [r3, #4]
    b9a8:	e5832008 	str	r2, [r3, #8]
    b9ac:	e12fff1e 	bx	lr
    b9b0:	0000e384 	.word	0x0000e384

0000b9b4 <new_cs>:
    b9b4:	e3a00000 	mov	r0, #0
    b9b8:	e12fff1e 	bx	lr

0000b9bc <read_cs>:
    b9bc:	e92d4010 	push	{r4, lr}
    b9c0:	ebfff199 	bl	802c <GET32>
    b9c4:	e8bd8010 	pop	{r4, pc}

0000b9c8 <start_transfer>:
    b9c8:	e24dd010 	sub	sp, sp, #16
    b9cc:	e92d4010 	push	{r4, lr}
    b9d0:	e24dd008 	sub	sp, sp, #8
    b9d4:	e28dc00c 	add	ip, sp, #12
    b9d8:	e98c000f 	stmib	ip, {r0, r1, r2, r3}
    b9dc:	eb0003ac 	bl	c894 <dev_barrier>
    b9e0:	e59f306c 	ldr	r3, [pc, #108]	@ ba54 <start_transfer+0x8c>
    b9e4:	e5933000 	ldr	r3, [r3]
    b9e8:	e3530000 	cmp	r3, #0
    b9ec:	1a000010 	bne	ba34 <start_transfer+0x6c>
    b9f0:	e59f4060 	ldr	r4, [pc, #96]	@ ba58 <start_transfer+0x90>
    b9f4:	e1a00004 	mov	r0, r4
    b9f8:	ebffffef 	bl	b9bc <read_cs>
    b9fc:	e38000b0 	orr	r0, r0, #176	@ 0xb0
    ba00:	e59d1010 	ldr	r1, [sp, #16]
    ba04:	e2011003 	and	r1, r1, #3
    ba08:	e3c00003 	bic	r0, r0, #3
    ba0c:	e1811000 	orr	r1, r1, r0
    ba10:	e1a00004 	mov	r0, r4
    ba14:	ebfff182 	bl	8024 <PUT32>
    ba18:	eb00039d 	bl	c894 <dev_barrier>
    ba1c:	e3a00003 	mov	r0, #3
    ba20:	eb000394 	bl	c878 <delay_cycles>
    ba24:	e28dd008 	add	sp, sp, #8
    ba28:	e8bd4010 	pop	{r4, lr}
    ba2c:	e28dd010 	add	sp, sp, #16
    ba30:	e12fff1e 	bx	lr
    ba34:	e59d3010 	ldr	r3, [sp, #16]
    ba38:	e58d3000 	str	r3, [sp]
    ba3c:	e3a030f5 	mov	r3, #245	@ 0xf5
    ba40:	e59f2014 	ldr	r2, [pc, #20]	@ ba5c <start_transfer+0x94>
    ba44:	e59f1014 	ldr	r1, [pc, #20]	@ ba60 <start_transfer+0x98>
    ba48:	e59f0014 	ldr	r0, [pc, #20]	@ ba64 <start_transfer+0x9c>
    ba4c:	eb000239 	bl	c338 <printk>
    ba50:	eaffffe6 	b	b9f0 <start_transfer+0x28>
    ba54:	0000e390 	.word	0x0000e390
    ba58:	20204000 	.word	0x20204000
    ba5c:	0000e2cc 	.word	0x0000e2cc
    ba60:	0000dca4 	.word	0x0000dca4
    ba64:	0000dcb4 	.word	0x0000dcb4

0000ba68 <end_transfer>:
    ba68:	e24dd010 	sub	sp, sp, #16
    ba6c:	e52de004 	push	{lr}		@ (str lr, [sp, #-4]!)
    ba70:	e24dd00c 	sub	sp, sp, #12
    ba74:	e28dc00c 	add	ip, sp, #12
    ba78:	e98c000f 	stmib	ip, {r0, r1, r2, r3}
    ba7c:	e59f30c4 	ldr	r3, [pc, #196]	@ bb48 <end_transfer+0xe0>
    ba80:	e5933000 	ldr	r3, [r3]
    ba84:	e3530000 	cmp	r3, #0
    ba88:	1a000017 	bne	baec <end_transfer+0x84>
    ba8c:	e59f30b8 	ldr	r3, [pc, #184]	@ bb4c <end_transfer+0xe4>
    ba90:	e5933000 	ldr	r3, [r3]
    ba94:	e3130801 	tst	r3, #65536	@ 0x10000
    ba98:	0afffffb 	beq	ba8c <end_transfer+0x24>
    ba9c:	e59f30a4 	ldr	r3, [pc, #164]	@ bb48 <end_transfer+0xe0>
    baa0:	e5933000 	ldr	r3, [r3]
    baa4:	e3530000 	cmp	r3, #0
    baa8:	1a000016 	bne	bb08 <end_transfer+0xa0>
    baac:	e59f0098 	ldr	r0, [pc, #152]	@ bb4c <end_transfer+0xe4>
    bab0:	ebffffc1 	bl	b9bc <read_cs>
    bab4:	e3c01080 	bic	r1, r0, #128	@ 0x80
    bab8:	e2000003 	and	r0, r0, #3
    babc:	e59d3010 	ldr	r3, [sp, #16]
    bac0:	e1500003 	cmp	r0, r3
    bac4:	1a000017 	bne	bb28 <end_transfer+0xc0>
    bac8:	e59f007c 	ldr	r0, [pc, #124]	@ bb4c <end_transfer+0xe4>
    bacc:	ebfff154 	bl	8024 <PUT32>
    bad0:	eb00036f 	bl	c894 <dev_barrier>
    bad4:	e3a00003 	mov	r0, #3
    bad8:	eb000366 	bl	c878 <delay_cycles>
    badc:	e28dd00c 	add	sp, sp, #12
    bae0:	e49de004 	pop	{lr}		@ (ldr lr, [sp], #4)
    bae4:	e28dd010 	add	sp, sp, #16
    bae8:	e12fff1e 	bx	lr
    baec:	e58d0000 	str	r0, [sp]
    baf0:	e59f3058 	ldr	r3, [pc, #88]	@ bb50 <end_transfer+0xe8>
    baf4:	e59f2058 	ldr	r2, [pc, #88]	@ bb54 <end_transfer+0xec>
    baf8:	e59f1058 	ldr	r1, [pc, #88]	@ bb58 <end_transfer+0xf0>
    bafc:	e59f0058 	ldr	r0, [pc, #88]	@ bb5c <end_transfer+0xf4>
    bb00:	eb00020c 	bl	c338 <printk>
    bb04:	eaffffe0 	b	ba8c <end_transfer+0x24>
    bb08:	e59d3010 	ldr	r3, [sp, #16]
    bb0c:	e58d3000 	str	r3, [sp]
    bb10:	e3a03f47 	mov	r3, #284	@ 0x11c
    bb14:	e59f2038 	ldr	r2, [pc, #56]	@ bb54 <end_transfer+0xec>
    bb18:	e59f1038 	ldr	r1, [pc, #56]	@ bb58 <end_transfer+0xf0>
    bb1c:	e59f003c 	ldr	r0, [pc, #60]	@ bb60 <end_transfer+0xf8>
    bb20:	eb000204 	bl	c338 <printk>
    bb24:	eaffffe0 	b	baac <end_transfer+0x44>
    bb28:	e58d3004 	str	r3, [sp, #4]
    bb2c:	e58d0000 	str	r0, [sp]
    bb30:	e59f302c 	ldr	r3, [pc, #44]	@ bb64 <end_transfer+0xfc>
    bb34:	e59f2018 	ldr	r2, [pc, #24]	@ bb54 <end_transfer+0xec>
    bb38:	e59f1018 	ldr	r1, [pc, #24]	@ bb58 <end_transfer+0xf0>
    bb3c:	e59f0024 	ldr	r0, [pc, #36]	@ bb68 <end_transfer+0x100>
    bb40:	eb0001fc 	bl	c338 <printk>
    bb44:	eb0002f1 	bl	c710 <clean_reboot>
    bb48:	0000e390 	.word	0x0000e390
    bb4c:	20204000 	.word	0x20204000
    bb50:	00000119 	.word	0x00000119
    bb54:	0000e2dc 	.word	0x0000e2dc
    bb58:	0000dca4 	.word	0x0000dca4
    bb5c:	0000dcd8 	.word	0x0000dcd8
    bb60:	0000dd08 	.word	0x0000dd08
    bb64:	00000122 	.word	0x00000122
    bb68:	0000dd28 	.word	0x0000dd28

0000bb6c <move_data>:
    bb6c:	e92d41f0 	push	{r4, r5, r6, r7, r8, lr}
    bb70:	e24dd010 	sub	sp, sp, #16
    bb74:	e1a08000 	mov	r8, r0
    bb78:	e1a06001 	mov	r6, r1
    bb7c:	e1a05002 	mov	r5, r2
    bb80:	e3520010 	cmp	r2, #16
    bb84:	31a07002 	movcc	r7, r2
    bb88:	23a07010 	movcs	r7, #16
    bb8c:	e3a04000 	mov	r4, #0
    bb90:	ea000003 	b	bba4 <move_data+0x38>
    bb94:	e7d61004 	ldrb	r1, [r6, r4]
    bb98:	e59f00c4 	ldr	r0, [pc, #196]	@ bc64 <move_data+0xf8>
    bb9c:	ebfff120 	bl	8024 <PUT32>
    bba0:	e2844001 	add	r4, r4, #1
    bba4:	e1540007 	cmp	r4, r7
    bba8:	3afffff9 	bcc	bb94 <move_data+0x28>
    bbac:	e3a07000 	mov	r7, #0
    bbb0:	ea00000d 	b	bbec <move_data+0x80>
    bbb4:	e7d61004 	ldrb	r1, [r6, r4]
    bbb8:	e59f00a4 	ldr	r0, [pc, #164]	@ bc64 <move_data+0xf8>
    bbbc:	ebfff118 	bl	8024 <PUT32>
    bbc0:	e2844001 	add	r4, r4, #1
    bbc4:	e1540005 	cmp	r4, r5
    bbc8:	2a000003 	bcs	bbdc <move_data+0x70>
    bbcc:	e59f3094 	ldr	r3, [pc, #148]	@ bc68 <move_data+0xfc>
    bbd0:	e5933000 	ldr	r3, [r3]
    bbd4:	e3130701 	tst	r3, #262144	@ 0x40000
    bbd8:	1afffff5 	bne	bbb4 <move_data+0x48>
    bbdc:	e59f3084 	ldr	r3, [pc, #132]	@ bc68 <move_data+0xfc>
    bbe0:	e5933000 	ldr	r3, [r3]
    bbe4:	e3130802 	tst	r3, #131072	@ 0x20000
    bbe8:	1a000007 	bne	bc0c <move_data+0xa0>
    bbec:	e1570005 	cmp	r7, r5
    bbf0:	3afffff3 	bcc	bbc4 <move_data+0x58>
    bbf4:	e1540005 	cmp	r4, r5
    bbf8:	1a000008 	bne	bc20 <move_data+0xb4>
    bbfc:	e1570005 	cmp	r7, r5
    bc00:	1a00000f 	bne	bc44 <move_data+0xd8>
    bc04:	e28dd010 	add	sp, sp, #16
    bc08:	e8bd81f0 	pop	{r4, r5, r6, r7, r8, pc}
    bc0c:	e59f0050 	ldr	r0, [pc, #80]	@ bc64 <move_data+0xf8>
    bc10:	ebfff105 	bl	802c <GET32>
    bc14:	e7c80007 	strb	r0, [r8, r7]
    bc18:	e2877001 	add	r7, r7, #1
    bc1c:	eafffff2 	b	bbec <move_data+0x80>
    bc20:	e58d5008 	str	r5, [sp, #8]
    bc24:	e58d7004 	str	r7, [sp, #4]
    bc28:	e58d4000 	str	r4, [sp]
    bc2c:	e59f3038 	ldr	r3, [pc, #56]	@ bc6c <move_data+0x100>
    bc30:	e59f2038 	ldr	r2, [pc, #56]	@ bc70 <move_data+0x104>
    bc34:	e59f1038 	ldr	r1, [pc, #56]	@ bc74 <move_data+0x108>
    bc38:	e59f0038 	ldr	r0, [pc, #56]	@ bc78 <move_data+0x10c>
    bc3c:	eb0001bd 	bl	c338 <printk>
    bc40:	eb0002b2 	bl	c710 <clean_reboot>
    bc44:	e59f3030 	ldr	r3, [pc, #48]	@ bc7c <move_data+0x110>
    bc48:	e58d3000 	str	r3, [sp]
    bc4c:	e3a03e1a 	mov	r3, #416	@ 0x1a0
    bc50:	e59f2018 	ldr	r2, [pc, #24]	@ bc70 <move_data+0x104>
    bc54:	e59f1018 	ldr	r1, [pc, #24]	@ bc74 <move_data+0x108>
    bc58:	e59f0020 	ldr	r0, [pc, #32]	@ bc80 <move_data+0x114>
    bc5c:	eb0001b5 	bl	c338 <printk>
    bc60:	eb0002aa 	bl	c710 <clean_reboot>
    bc64:	20204004 	.word	0x20204004
    bc68:	20204000 	.word	0x20204000
    bc6c:	0000019e 	.word	0x0000019e
    bc70:	0000e2ec 	.word	0x0000e2ec
    bc74:	0000dca4 	.word	0x0000dca4
    bc78:	0000dd60 	.word	0x0000dd60
    bc7c:	0000dd90 	.word	0x0000dd90
    bc80:	0000cd08 	.word	0x0000cd08

0000bc84 <spi_set_verbose>:
    bc84:	e59f3004 	ldr	r3, [pc, #4]	@ bc90 <spi_set_verbose+0xc>
    bc88:	e5830000 	str	r0, [r3]
    bc8c:	e12fff1e 	bx	lr
    bc90:	0000e390 	.word	0x0000e390

0000bc94 <spi_n_transfer>:
    bc94:	e24dd010 	sub	sp, sp, #16
    bc98:	e92d4070 	push	{r4, r5, r6, lr}
    bc9c:	e24dd010 	sub	sp, sp, #16
    bca0:	e28dc01c 	add	ip, sp, #28
    bca4:	e98c000f 	stmib	ip, {r0, r1, r2, r3}
    bca8:	e59d6040 	ldr	r6, [sp, #64]	@ 0x40
    bcac:	e3560000 	cmp	r6, #0
    bcb0:	0a000013 	beq	bd04 <spi_n_transfer+0x70>
    bcb4:	e58d6008 	str	r6, [sp, #8]
    bcb8:	e28d5030 	add	r5, sp, #48	@ 0x30
    bcbc:	e8950003 	ldm	r5, {r0, r1}
    bcc0:	e88d0003 	stm	sp, {r0, r1}
    bcc4:	e28d4020 	add	r4, sp, #32
    bcc8:	e894000f 	ldm	r4, {r0, r1, r2, r3}
    bccc:	ebffff3d 	bl	b9c8 <start_transfer>
    bcd0:	e1a02006 	mov	r2, r6
    bcd4:	e59d103c 	ldr	r1, [sp, #60]	@ 0x3c
    bcd8:	e59d0038 	ldr	r0, [sp, #56]	@ 0x38
    bcdc:	ebffffa2 	bl	bb6c <move_data>
    bce0:	e8950003 	ldm	r5, {r0, r1}
    bce4:	e88d0003 	stm	sp, {r0, r1}
    bce8:	e894000f 	ldm	r4, {r0, r1, r2, r3}
    bcec:	ebffff5d 	bl	ba68 <end_transfer>
    bcf0:	e3a00001 	mov	r0, #1
    bcf4:	e28dd010 	add	sp, sp, #16
    bcf8:	e8bd4070 	pop	{r4, r5, r6, lr}
    bcfc:	e28dd010 	add	sp, sp, #16
    bd00:	e12fff1e 	bx	lr
    bd04:	e59f3018 	ldr	r3, [pc, #24]	@ bd24 <spi_n_transfer+0x90>
    bd08:	e58d3000 	str	r3, [sp]
    bd0c:	e59f3014 	ldr	r3, [pc, #20]	@ bd28 <spi_n_transfer+0x94>
    bd10:	e59f2014 	ldr	r2, [pc, #20]	@ bd2c <spi_n_transfer+0x98>
    bd14:	e59f1014 	ldr	r1, [pc, #20]	@ bd30 <spi_n_transfer+0x9c>
    bd18:	e59f0014 	ldr	r0, [pc, #20]	@ bd34 <spi_n_transfer+0xa0>
    bd1c:	eb000185 	bl	c338 <printk>
    bd20:	eb00027a 	bl	c710 <clean_reboot>
    bd24:	0000dd98 	.word	0x0000dd98
    bd28:	000001c3 	.word	0x000001c3
    bd2c:	0000e2f8 	.word	0x0000e2f8
    bd30:	0000dca4 	.word	0x0000dca4
    bd34:	0000cd08 	.word	0x0000cd08

0000bd38 <spi_n_init>:
    bd38:	e92d40f0 	push	{r4, r5, r6, r7, lr}
    bd3c:	e24dd014 	sub	sp, sp, #20
    bd40:	e1a04000 	mov	r4, r0
    bd44:	e1a05001 	mov	r5, r1
    bd48:	e1a06002 	mov	r6, r2
    bd4c:	e59f3168 	ldr	r3, [pc, #360]	@ bebc <spi_n_init+0x184>
    bd50:	e5933004 	ldr	r3, [r3, #4]
    bd54:	e3530000 	cmp	r3, #0
    bd58:	1a00002b 	bne	be0c <spi_n_init+0xd4>
    bd5c:	e59f3158 	ldr	r3, [pc, #344]	@ bebc <spi_n_init+0x184>
    bd60:	e5832004 	str	r2, [r3, #4]
    bd64:	eb0002ca 	bl	c894 <dev_barrier>
    bd68:	e3550000 	cmp	r5, #0
    bd6c:	0a000030 	beq	be34 <spi_n_init+0xfc>
    bd70:	e3550001 	cmp	r5, #1
    bd74:	1a000032 	bne	be44 <spi_n_init+0x10c>
    bd78:	e3a01004 	mov	r1, #4
    bd7c:	e3a00007 	mov	r0, #7
    bd80:	eb00009e 	bl	c000 <gpio_set_function>
    bd84:	e59f3130 	ldr	r3, [pc, #304]	@ bebc <spi_n_init+0x184>
    bd88:	e5933008 	ldr	r3, [r3, #8]
    bd8c:	e3530000 	cmp	r3, #0
    bd90:	0a000032 	beq	be60 <spi_n_init+0x128>
    bd94:	eb0002be 	bl	c894 <dev_barrier>
    bd98:	ebffff05 	bl	b9b4 <new_cs>
    bd9c:	e2051003 	and	r1, r5, #3
    bda0:	e3c00003 	bic	r0, r0, #3
    bda4:	e1811000 	orr	r1, r1, r0
    bda8:	e59f7110 	ldr	r7, [pc, #272]	@ bec0 <spi_n_init+0x188>
    bdac:	e3811030 	orr	r1, r1, #48	@ 0x30
    bdb0:	e1a00007 	mov	r0, r7
    bdb4:	ebfff09a 	bl	8024 <PUT32>
    bdb8:	eb0002b5 	bl	c894 <dev_barrier>
    bdbc:	e1a00007 	mov	r0, r7
    bdc0:	ebfffefd 	bl	b9bc <read_cs>
    bdc4:	e2000003 	and	r0, r0, #3
    bdc8:	e1500005 	cmp	r0, r5
    bdcc:	1a000030 	bne	be94 <spi_n_init+0x15c>
    bdd0:	e1a01006 	mov	r1, r6
    bdd4:	e59f00e8 	ldr	r0, [pc, #232]	@ bec4 <spi_n_init+0x18c>
    bdd8:	ebfff091 	bl	8024 <PUT32>
    bddc:	eb0002ac 	bl	c894 <dev_barrier>
    bde0:	e3a03000 	mov	r3, #0
    bde4:	e5843000 	str	r3, [r4]
    bde8:	e5843004 	str	r3, [r4, #4]
    bdec:	e5843008 	str	r3, [r4, #8]
    bdf0:	e584300c 	str	r3, [r4, #12]
    bdf4:	e5843010 	str	r3, [r4, #16]
    bdf8:	e5843014 	str	r3, [r4, #20]
    bdfc:	e5845000 	str	r5, [r4]
    be00:	e1a00004 	mov	r0, r4
    be04:	e28dd014 	add	sp, sp, #20
    be08:	e8bd80f0 	pop	{r4, r5, r6, r7, pc}
    be0c:	e1530002 	cmp	r3, r2
    be10:	0affffd3 	beq	bd64 <spi_n_init+0x2c>
    be14:	e58d2004 	str	r2, [sp, #4]
    be18:	e58d3000 	str	r3, [sp]
    be1c:	e59f30a4 	ldr	r3, [pc, #164]	@ bec8 <spi_n_init+0x190>
    be20:	e59f20a4 	ldr	r2, [pc, #164]	@ becc <spi_n_init+0x194>
    be24:	e59f10a4 	ldr	r1, [pc, #164]	@ bed0 <spi_n_init+0x198>
    be28:	e59f00a4 	ldr	r0, [pc, #164]	@ bed4 <spi_n_init+0x19c>
    be2c:	eb000141 	bl	c338 <printk>
    be30:	eb000236 	bl	c710 <clean_reboot>
    be34:	e3a01004 	mov	r1, #4
    be38:	e3a00008 	mov	r0, #8
    be3c:	eb00006f 	bl	c000 <gpio_set_function>
    be40:	eaffffcf 	b	bd84 <spi_n_init+0x4c>
    be44:	e58d5000 	str	r5, [sp]
    be48:	e59f3088 	ldr	r3, [pc, #136]	@ bed8 <spi_n_init+0x1a0>
    be4c:	e59f2078 	ldr	r2, [pc, #120]	@ becc <spi_n_init+0x194>
    be50:	e59f1078 	ldr	r1, [pc, #120]	@ bed0 <spi_n_init+0x198>
    be54:	e59f0080 	ldr	r0, [pc, #128]	@ bedc <spi_n_init+0x1a4>
    be58:	eb000136 	bl	c338 <printk>
    be5c:	eb00022b 	bl	c710 <clean_reboot>
    be60:	e59f3054 	ldr	r3, [pc, #84]	@ bebc <spi_n_init+0x184>
    be64:	e3a02001 	mov	r2, #1
    be68:	e5832008 	str	r2, [r3, #8]
    be6c:	e3a01004 	mov	r1, #4
    be70:	e3a00009 	mov	r0, #9
    be74:	eb000061 	bl	c000 <gpio_set_function>
    be78:	e3a01004 	mov	r1, #4
    be7c:	e3a0000a 	mov	r0, #10
    be80:	eb00005e 	bl	c000 <gpio_set_function>
    be84:	e3a01004 	mov	r1, #4
    be88:	e3a0000b 	mov	r0, #11
    be8c:	eb00005b 	bl	c000 <gpio_set_function>
    be90:	eaffffbf 	b	bd94 <spi_n_init+0x5c>
    be94:	e58d0008 	str	r0, [sp, #8]
    be98:	e58d5004 	str	r5, [sp, #4]
    be9c:	e59f303c 	ldr	r3, [pc, #60]	@ bee0 <spi_n_init+0x1a8>
    bea0:	e58d3000 	str	r3, [sp]
    bea4:	e3a03f8e 	mov	r3, #568	@ 0x238
    bea8:	e59f201c 	ldr	r2, [pc, #28]	@ becc <spi_n_init+0x194>
    beac:	e59f101c 	ldr	r1, [pc, #28]	@ bed0 <spi_n_init+0x198>
    beb0:	e59f002c 	ldr	r0, [pc, #44]	@ bee4 <spi_n_init+0x1ac>
    beb4:	eb00011f 	bl	c338 <printk>
    beb8:	eb000214 	bl	c710 <clean_reboot>
    bebc:	0000e390 	.word	0x0000e390
    bec0:	20204000 	.word	0x20204000
    bec4:	20204008 	.word	0x20204008
    bec8:	00000213 	.word	0x00000213
    becc:	0000e308 	.word	0x0000e308
    bed0:	0000dca4 	.word	0x0000dca4
    bed4:	0000dda0 	.word	0x0000dda0
    bed8:	00000222 	.word	0x00000222
    bedc:	0000ddf0 	.word	0x0000ddf0
    bee0:	0000de58 	.word	0x0000de58
    bee4:	0000de18 	.word	0x0000de18

0000bee8 <__udivsi3>:
    bee8:	e2512001 	subs	r2, r1, #1
    beec:	012fff1e 	bxeq	lr
    bef0:	3a000036 	bcc	bfd0 <__udivsi3+0xe8>
    bef4:	e1500001 	cmp	r0, r1
    bef8:	9a000022 	bls	bf88 <__udivsi3+0xa0>
    befc:	e1110002 	tst	r1, r2
    bf00:	0a000023 	beq	bf94 <__udivsi3+0xac>
    bf04:	e311020e 	tst	r1, #-536870912	@ 0xe0000000
    bf08:	01a01181 	lsleq	r1, r1, #3
    bf0c:	03a03008 	moveq	r3, #8
    bf10:	13a03001 	movne	r3, #1
    bf14:	e3510201 	cmp	r1, #268435456	@ 0x10000000
    bf18:	31510000 	cmpcc	r1, r0
    bf1c:	31a01201 	lslcc	r1, r1, #4
    bf20:	31a03203 	lslcc	r3, r3, #4
    bf24:	3afffffa 	bcc	bf14 <__udivsi3+0x2c>
    bf28:	e3510102 	cmp	r1, #-2147483648	@ 0x80000000
    bf2c:	31510000 	cmpcc	r1, r0
    bf30:	31a01081 	lslcc	r1, r1, #1
    bf34:	31a03083 	lslcc	r3, r3, #1
    bf38:	3afffffa 	bcc	bf28 <__udivsi3+0x40>
    bf3c:	e3a02000 	mov	r2, #0
    bf40:	e1500001 	cmp	r0, r1
    bf44:	20400001 	subcs	r0, r0, r1
    bf48:	21822003 	orrcs	r2, r2, r3
    bf4c:	e15000a1 	cmp	r0, r1, lsr #1
    bf50:	204000a1 	subcs	r0, r0, r1, lsr #1
    bf54:	218220a3 	orrcs	r2, r2, r3, lsr #1
    bf58:	e1500121 	cmp	r0, r1, lsr #2
    bf5c:	20400121 	subcs	r0, r0, r1, lsr #2
    bf60:	21822123 	orrcs	r2, r2, r3, lsr #2
    bf64:	e15001a1 	cmp	r0, r1, lsr #3
    bf68:	204001a1 	subcs	r0, r0, r1, lsr #3
    bf6c:	218221a3 	orrcs	r2, r2, r3, lsr #3
    bf70:	e3500000 	cmp	r0, #0
    bf74:	11b03223 	lsrsne	r3, r3, #4
    bf78:	11a01221 	lsrne	r1, r1, #4
    bf7c:	1affffef 	bne	bf40 <__udivsi3+0x58>
    bf80:	e1a00002 	mov	r0, r2
    bf84:	e12fff1e 	bx	lr
    bf88:	03a00001 	moveq	r0, #1
    bf8c:	13a00000 	movne	r0, #0
    bf90:	e12fff1e 	bx	lr
    bf94:	e3510801 	cmp	r1, #65536	@ 0x10000
    bf98:	21a01821 	lsrcs	r1, r1, #16
    bf9c:	23a02010 	movcs	r2, #16
    bfa0:	33a02000 	movcc	r2, #0
    bfa4:	e3510c01 	cmp	r1, #256	@ 0x100
    bfa8:	21a01421 	lsrcs	r1, r1, #8
    bfac:	22822008 	addcs	r2, r2, #8
    bfb0:	e3510010 	cmp	r1, #16
    bfb4:	21a01221 	lsrcs	r1, r1, #4
    bfb8:	22822004 	addcs	r2, r2, #4
    bfbc:	e3510004 	cmp	r1, #4
    bfc0:	82822003 	addhi	r2, r2, #3
    bfc4:	908220a1 	addls	r2, r2, r1, lsr #1
    bfc8:	e1a00230 	lsr	r0, r0, r2
    bfcc:	e12fff1e 	bx	lr
    bfd0:	e3500000 	cmp	r0, #0
    bfd4:	13e00000 	mvnne	r0, #0
    bfd8:	ea000007 	b	bffc <__aeabi_idiv0>

0000bfdc <__aeabi_uidivmod>:
    bfdc:	e3510000 	cmp	r1, #0
    bfe0:	0afffffa 	beq	bfd0 <__udivsi3+0xe8>
    bfe4:	e92d4003 	push	{r0, r1, lr}
    bfe8:	ebffffbe 	bl	bee8 <__udivsi3>
    bfec:	e8bd4006 	pop	{r1, r2, lr}
    bff0:	e0030092 	mul	r3, r2, r0
    bff4:	e0411003 	sub	r1, r1, r3
    bff8:	e12fff1e 	bx	lr

0000bffc <__aeabi_idiv0>:
    bffc:	e12fff1e 	bx	lr

0000c000 <gpio_set_function>:
    c000:	e350002f 	cmp	r0, #47	@ 0x2f
    c004:	1350001f 	cmpne	r0, #31
    c008:	812fff1e 	bxhi	lr
    c00c:	e3510007 	cmp	r1, #7
    c010:	812fff1e 	bxhi	lr
    c014:	e92d4070 	push	{r4, r5, r6, lr}
    c018:	e59f3044 	ldr	r3, [pc, #68]	@ c064 <gpio_set_function+0x64>
    c01c:	e0832093 	umull	r2, r3, r3, r0
    c020:	e1a031a3 	lsr	r3, r3, #3
    c024:	e1a02103 	lsl	r2, r3, #2
    c028:	e2825202 	add	r5, r2, #536870912	@ 0x20000000
    c02c:	e2855602 	add	r5, r5, #2097152	@ 0x200000
    c030:	e0822003 	add	r2, r2, r3
    c034:	e0400082 	sub	r0, r0, r2, lsl #1
    c038:	e0800080 	add	r0, r0, r0, lsl #1
    c03c:	e1a04011 	lsl	r4, r1, r0
    c040:	e3a06007 	mov	r6, #7
    c044:	e1a06016 	lsl	r6, r6, r0
    c048:	e1a00005 	mov	r0, r5
    c04c:	ebffeff6 	bl	802c <GET32>
    c050:	e1c01006 	bic	r1, r0, r6
    c054:	e1841001 	orr	r1, r4, r1
    c058:	e1a00005 	mov	r0, r5
    c05c:	ebffeff0 	bl	8024 <PUT32>
    c060:	e8bd8070 	pop	{r4, r5, r6, pc}
    c064:	cccccccd 	.word	0xcccccccd

0000c068 <gpio_set_output>:
    c068:	e92d4010 	push	{r4, lr}
    c06c:	e3a01001 	mov	r1, #1
    c070:	ebffffe2 	bl	c000 <gpio_set_function>
    c074:	e8bd8010 	pop	{r4, pc}

0000c078 <gpio_set_on>:
    c078:	e350002f 	cmp	r0, #47	@ 0x2f
    c07c:	1350001f 	cmpne	r0, #31
    c080:	812fff1e 	bxhi	lr
    c084:	e92d4010 	push	{r4, lr}
    c088:	e350001f 	cmp	r0, #31
    c08c:	8a000004 	bhi	c0a4 <gpio_set_on+0x2c>
    c090:	e3a01001 	mov	r1, #1
    c094:	e1a01011 	lsl	r1, r1, r0
    c098:	e59f001c 	ldr	r0, [pc, #28]	@ c0bc <gpio_set_on+0x44>
    c09c:	ebffefe0 	bl	8024 <PUT32>
    c0a0:	e8bd8010 	pop	{r4, pc}
    c0a4:	e2400020 	sub	r0, r0, #32
    c0a8:	e3a01001 	mov	r1, #1
    c0ac:	e1a01011 	lsl	r1, r1, r0
    c0b0:	e59f0008 	ldr	r0, [pc, #8]	@ c0c0 <gpio_set_on+0x48>
    c0b4:	ebffefda 	bl	8024 <PUT32>
    c0b8:	e8bd8010 	pop	{r4, pc}
    c0bc:	2020001c 	.word	0x2020001c
    c0c0:	20200020 	.word	0x20200020

0000c0c4 <gpio_set_off>:
    c0c4:	e350002f 	cmp	r0, #47	@ 0x2f
    c0c8:	1350001f 	cmpne	r0, #31
    c0cc:	812fff1e 	bxhi	lr
    c0d0:	e92d4010 	push	{r4, lr}
    c0d4:	e350001f 	cmp	r0, #31
    c0d8:	8a000004 	bhi	c0f0 <gpio_set_off+0x2c>
    c0dc:	e3a01001 	mov	r1, #1
    c0e0:	e1a01011 	lsl	r1, r1, r0
    c0e4:	e59f001c 	ldr	r0, [pc, #28]	@ c108 <gpio_set_off+0x44>
    c0e8:	ebffefcd 	bl	8024 <PUT32>
    c0ec:	e8bd8010 	pop	{r4, pc}
    c0f0:	e2400020 	sub	r0, r0, #32
    c0f4:	e3a01001 	mov	r1, #1
    c0f8:	e1a01011 	lsl	r1, r1, r0
    c0fc:	e59f0008 	ldr	r0, [pc, #8]	@ c10c <gpio_set_off+0x48>
    c100:	ebffefc7 	bl	8024 <PUT32>
    c104:	e8bd8010 	pop	{r4, pc}
    c108:	20200028 	.word	0x20200028
    c10c:	2020002c 	.word	0x2020002c

0000c110 <gpio_write>:
    c110:	e92d4010 	push	{r4, lr}
    c114:	e3510000 	cmp	r1, #0
    c118:	0a000001 	beq	c124 <gpio_write+0x14>
    c11c:	ebffffd5 	bl	c078 <gpio_set_on>
    c120:	e8bd8010 	pop	{r4, pc}
    c124:	ebffffe6 	bl	c0c4 <gpio_set_off>
    c128:	e8bd8010 	pop	{r4, pc}

0000c12c <gpio_set_input>:
    c12c:	e92d4010 	push	{r4, lr}
    c130:	e3a01000 	mov	r1, #0
    c134:	ebffffb1 	bl	c000 <gpio_set_function>
    c138:	e8bd8010 	pop	{r4, pc}

0000c13c <gpio_read>:
    c13c:	e92d4010 	push	{r4, lr}
    c140:	e1a04000 	mov	r4, r0
    c144:	e350001f 	cmp	r0, #31
    c148:	8a000005 	bhi	c164 <gpio_read+0x28>
    c14c:	e59f0020 	ldr	r0, [pc, #32]	@ c174 <gpio_read+0x38>
    c150:	ebffefb5 	bl	802c <GET32>
    c154:	e3a03001 	mov	r3, #1
    c158:	e0000413 	and	r0, r0, r3, lsl r4
    c15c:	e1a00430 	lsr	r0, r0, r4
    c160:	e8bd8010 	pop	{r4, pc}
    c164:	e2404020 	sub	r4, r0, #32
    c168:	e59f0008 	ldr	r0, [pc, #8]	@ c178 <gpio_read+0x3c>
    c16c:	ebffefae 	bl	802c <GET32>
    c170:	eafffff7 	b	c154 <gpio_read+0x18>
    c174:	20200034 	.word	0x20200034
    c178:	20200038 	.word	0x20200038

0000c17c <memcpy256>:
    c17c:	e92d40f0 	push	{r4, r5, r6, r7, lr}
    c180:	e24dd00c 	sub	sp, sp, #12
    c184:	e212401f 	ands	r4, r2, #31
    c188:	01a06000 	moveq	r6, r0
    c18c:	01a07001 	moveq	r7, r1
    c190:	01a052a2 	lsreq	r5, r2, #5
    c194:	0a00000f 	beq	c1d8 <memcpy256+0x5c>
    c198:	e3a03020 	mov	r3, #32
    c19c:	e58d3004 	str	r3, [sp, #4]
    c1a0:	e58d2000 	str	r2, [sp]
    c1a4:	e3a0300f 	mov	r3, #15
    c1a8:	e59f2038 	ldr	r2, [pc, #56]	@ c1e8 <memcpy256+0x6c>
    c1ac:	e59f1038 	ldr	r1, [pc, #56]	@ c1ec <memcpy256+0x70>
    c1b0:	e59f0038 	ldr	r0, [pc, #56]	@ c1f0 <memcpy256+0x74>
    c1b4:	eb00005f 	bl	c338 <printk>
    c1b8:	eb000154 	bl	c710 <clean_reboot>
    c1bc:	e086c284 	add	ip, r6, r4, lsl #5
    c1c0:	e087e284 	add	lr, r7, r4, lsl #5
    c1c4:	e8be000f 	ldm	lr!, {r0, r1, r2, r3}
    c1c8:	e8ac000f 	stmia	ip!, {r0, r1, r2, r3}
    c1cc:	e89e000f 	ldm	lr, {r0, r1, r2, r3}
    c1d0:	e88c000f 	stm	ip, {r0, r1, r2, r3}
    c1d4:	e2844001 	add	r4, r4, #1
    c1d8:	e1540005 	cmp	r4, r5
    c1dc:	3afffff6 	bcc	c1bc <memcpy256+0x40>
    c1e0:	e28dd00c 	add	sp, sp, #12
    c1e4:	e8bd80f0 	pop	{r4, r5, r6, r7, pc}
    c1e8:	0000e314 	.word	0x0000e314
    c1ec:	0000de68 	.word	0x0000de68
    c1f0:	0000de78 	.word	0x0000de78

0000c1f4 <memcpy>:
    c1f4:	e3100007 	tst	r0, #7
    c1f8:	1a00000f 	bne	c23c <memcpy+0x48>
    c1fc:	e3110007 	tst	r1, #7
    c200:	1a00000d 	bne	c23c <memcpy+0x48>
    c204:	e2123007 	ands	r3, r2, #7
    c208:	1a00000b 	bne	c23c <memcpy+0x48>
    c20c:	e1a021a2 	lsr	r2, r2, #3
    c210:	e1530002 	cmp	r3, r2
    c214:	212fff1e 	bxcs	lr
    c218:	e92d0030 	push	{r4, r5}
    c21c:	e1a0c183 	lsl	ip, r3, #3
    c220:	e18140dc 	ldrd	r4, [r1, ip]
    c224:	e18040fc 	strd	r4, [r0, ip]
    c228:	e2833001 	add	r3, r3, #1
    c22c:	e1530002 	cmp	r3, r2
    c230:	3afffff9 	bcc	c21c <memcpy+0x28>
    c234:	e8bd0030 	pop	{r4, r5}
    c238:	e12fff1e 	bx	lr
    c23c:	e2103003 	ands	r3, r0, #3
    c240:	1a000011 	bne	c28c <memcpy+0x98>
    c244:	e211c003 	ands	ip, r1, #3
    c248:	1a00000c 	bne	c280 <memcpy+0x8c>
    c24c:	e2123003 	ands	r3, r2, #3
    c250:	1a00000f 	bne	c294 <memcpy+0xa0>
    c254:	e1a02122 	lsr	r2, r2, #2
    c258:	ea000002 	b	c268 <memcpy+0x74>
    c25c:	e791c103 	ldr	ip, [r1, r3, lsl #2]
    c260:	e780c103 	str	ip, [r0, r3, lsl #2]
    c264:	e2833001 	add	r3, r3, #1
    c268:	e1530002 	cmp	r3, r2
    c26c:	3afffffa 	bcc	c25c <memcpy+0x68>
    c270:	e12fff1e 	bx	lr
    c274:	e7d1c003 	ldrb	ip, [r1, r3]
    c278:	e7c0c003 	strb	ip, [r0, r3]
    c27c:	e2833001 	add	r3, r3, #1
    c280:	e1530002 	cmp	r3, r2
    c284:	3afffffa 	bcc	c274 <memcpy+0x80>
    c288:	e12fff1e 	bx	lr
    c28c:	e3a03000 	mov	r3, #0
    c290:	eafffffa 	b	c280 <memcpy+0x8c>
    c294:	e1a0300c 	mov	r3, ip
    c298:	eafffff8 	b	c280 <memcpy+0x8c>

0000c29c <memcpy_end>:
    c29c:	e12fff1e 	bx	lr

0000c2a0 <memset>:
    c2a0:	e3520000 	cmp	r2, #0
    c2a4:	012fff1e 	bxeq	lr
    c2a8:	e3510000 	cmp	r1, #0
    c2ac:	1a000007 	bne	c2d0 <memset+0x30>
    c2b0:	e3100007 	tst	r0, #7
    c2b4:	1a000001 	bne	c2c0 <memset+0x20>
    c2b8:	e3120007 	tst	r2, #7
    c2bc:	0a000005 	beq	c2d8 <memset+0x38>
    c2c0:	e3100003 	tst	r0, #3
    c2c4:	1a000001 	bne	c2d0 <memset+0x30>
    c2c8:	e3120003 	tst	r2, #3
    c2cc:	0a00000d 	beq	c308 <memset+0x68>
    c2d0:	e0802002 	add	r2, r0, r2
    c2d4:	ea000014 	b	c32c <memset+0x8c>
    c2d8:	e1a021a2 	lsr	r2, r2, #3
    c2dc:	ea000005 	b	c2f8 <memset+0x58>
    c2e0:	e1a03000 	mov	r3, r0
    c2e4:	e1a02fc1 	asr	r2, r1, #31
    c2e8:	e4831008 	str	r1, [r3], #8
    c2ec:	e5802004 	str	r2, [r0, #4]
    c2f0:	e1a00003 	mov	r0, r3
    c2f4:	e1a0200c 	mov	r2, ip
    c2f8:	e242c001 	sub	ip, r2, #1
    c2fc:	e3520000 	cmp	r2, #0
    c300:	1afffff6 	bne	c2e0 <memset+0x40>
    c304:	e12fff1e 	bx	lr
    c308:	e1a02122 	lsr	r2, r2, #2
    c30c:	ea000001 	b	c318 <memset+0x78>
    c310:	e4801004 	str	r1, [r0], #4
    c314:	e1a02003 	mov	r2, r3
    c318:	e2423001 	sub	r3, r2, #1
    c31c:	e3520000 	cmp	r2, #0
    c320:	1afffffa 	bne	c310 <memset+0x70>
    c324:	e12fff1e 	bx	lr
    c328:	e4c01001 	strb	r1, [r0], #1
    c32c:	e1500002 	cmp	r0, r2
    c330:	3afffffc 	bcc	c328 <memset+0x88>
    c334:	e12fff1e 	bx	lr

0000c338 <printk>:
    c338:	e92d000f 	push	{r0, r1, r2, r3}
    c33c:	e52de004 	push	{lr}		@ (str lr, [sp, #-4]!)
    c340:	e24dd00c 	sub	sp, sp, #12
    c344:	e28d1014 	add	r1, sp, #20
    c348:	e58d1004 	str	r1, [sp, #4]
    c34c:	e59d0010 	ldr	r0, [sp, #16]
    c350:	eb000047 	bl	c474 <vprintk>
    c354:	e28dd00c 	add	sp, sp, #12
    c358:	e49de004 	pop	{lr}		@ (ldr lr, [sp], #4)
    c35c:	e28dd010 	add	sp, sp, #16
    c360:	e12fff1e 	bx	lr

0000c364 <emit_val>:
    c364:	e92d4010 	push	{r4, lr}
    c368:	e24dd030 	sub	sp, sp, #48	@ 0x30
    c36c:	e350000a 	cmp	r0, #10
    c370:	0a00000d 	beq	c3ac <emit_val+0x48>
    c374:	e3500010 	cmp	r0, #16
    c378:	0a00001b 	beq	c3ec <emit_val+0x88>
    c37c:	e3500002 	cmp	r0, #2
    c380:	1a000023 	bne	c414 <emit_val+0xb0>
    c384:	e28d400c 	add	r4, sp, #12
    c388:	e2012001 	and	r2, r1, #1
    c38c:	e59f00c0 	ldr	r0, [pc, #192]	@ c454 <emit_val+0xf0>
    c390:	e7d02002 	ldrb	r2, [r0, r2]
    c394:	e5c42000 	strb	r2, [r4]
    c398:	e2844001 	add	r4, r4, #1
    c39c:	e3510001 	cmp	r1, #1
    c3a0:	e1a010a1 	lsr	r1, r1, #1
    c3a4:	8afffff7 	bhi	c388 <emit_val+0x24>
    c3a8:	ea000024 	b	c440 <emit_val+0xdc>
    c3ac:	e28d400c 	add	r4, sp, #12
    c3b0:	e59f30a0 	ldr	r3, [pc, #160]	@ c458 <emit_val+0xf4>
    c3b4:	e0832193 	umull	r2, r3, r3, r1
    c3b8:	e1a031a3 	lsr	r3, r3, #3
    c3bc:	e1a00003 	mov	r0, r3
    c3c0:	e0833103 	add	r3, r3, r3, lsl #2
    c3c4:	e0413083 	sub	r3, r1, r3, lsl #1
    c3c8:	e59fc08c 	ldr	ip, [pc, #140]	@ c45c <emit_val+0xf8>
    c3cc:	e7dcc003 	ldrb	ip, [ip, r3]
    c3d0:	e5c4c000 	strb	ip, [r4]
    c3d4:	e2844001 	add	r4, r4, #1
    c3d8:	e1a03001 	mov	r3, r1
    c3dc:	e1a01000 	mov	r1, r0
    c3e0:	e3530009 	cmp	r3, #9
    c3e4:	8afffff1 	bhi	c3b0 <emit_val+0x4c>
    c3e8:	ea000014 	b	c440 <emit_val+0xdc>
    c3ec:	e28d400c 	add	r4, sp, #12
    c3f0:	e201200f 	and	r2, r1, #15
    c3f4:	e59f0064 	ldr	r0, [pc, #100]	@ c460 <emit_val+0xfc>
    c3f8:	e7d02002 	ldrb	r2, [r0, r2]
    c3fc:	e5c42000 	strb	r2, [r4]
    c400:	e2844001 	add	r4, r4, #1
    c404:	e351000f 	cmp	r1, #15
    c408:	e1a01221 	lsr	r1, r1, #4
    c40c:	8afffff7 	bhi	c3f0 <emit_val+0x8c>
    c410:	ea00000a 	b	c440 <emit_val+0xdc>
    c414:	e58d0000 	str	r0, [sp]
    c418:	e3a0301b 	mov	r3, #27
    c41c:	e59f2040 	ldr	r2, [pc, #64]	@ c464 <emit_val+0x100>
    c420:	e59f1040 	ldr	r1, [pc, #64]	@ c468 <emit_val+0x104>
    c424:	e59f0040 	ldr	r0, [pc, #64]	@ c46c <emit_val+0x108>
    c428:	ebffffc2 	bl	c338 <printk>
    c42c:	eb0000b7 	bl	c710 <clean_reboot>
    c430:	e59f3038 	ldr	r3, [pc, #56]	@ c470 <emit_val+0x10c>
    c434:	e5933000 	ldr	r3, [r3]
    c438:	e5740001 	ldrb	r0, [r4, #-1]!
    c43c:	e12fff33 	blx	r3
    c440:	e28d300c 	add	r3, sp, #12
    c444:	e1540003 	cmp	r4, r3
    c448:	8afffff8 	bhi	c430 <emit_val+0xcc>
    c44c:	e28dd030 	add	sp, sp, #48	@ 0x30
    c450:	e8bd8010 	pop	{r4, pc}
    c454:	0000dee8 	.word	0x0000dee8
    c458:	cccccccd 	.word	0xcccccccd
    c45c:	0000deec 	.word	0x0000deec
    c460:	0000def8 	.word	0x0000def8
    c464:	0000e338 	.word	0x0000e338
    c468:	0000deb4 	.word	0x0000deb4
    c46c:	0000dec4 	.word	0x0000dec4
    c470:	0000e37c 	.word	0x0000e37c

0000c474 <vprintk>:
    c474:	e92d4030 	push	{r4, r5, lr}
    c478:	e24dd014 	sub	sp, sp, #20
    c47c:	e1a04000 	mov	r4, r0
    c480:	e58d100c 	str	r1, [sp, #12]
    c484:	ea000003 	b	c498 <vprintk+0x24>
    c488:	e59f3238 	ldr	r3, [pc, #568]	@ c6c8 <vprintk+0x254>
    c48c:	e5933000 	ldr	r3, [r3]
    c490:	e12fff33 	blx	r3
    c494:	e2844001 	add	r4, r4, #1
    c498:	e5d40000 	ldrb	r0, [r4]
    c49c:	e3500000 	cmp	r0, #0
    c4a0:	0a000086 	beq	c6c0 <vprintk+0x24c>
    c4a4:	e3500025 	cmp	r0, #37	@ 0x25
    c4a8:	1afffff6 	bne	c488 <vprintk+0x14>
    c4ac:	e2845001 	add	r5, r4, #1
    c4b0:	e5d42001 	ldrb	r2, [r4, #1]
    c4b4:	e2423062 	sub	r3, r2, #98	@ 0x62
    c4b8:	e59f120c 	ldr	r1, [pc, #524]	@ c6cc <vprintk+0x258>
    c4bc:	e3530016 	cmp	r3, #22
    c4c0:	8a000077 	bhi	c6a4 <vprintk+0x230>
    c4c4:	e7d13003 	ldrb	r3, [r1, r3]
    c4c8:	e08ff103 	add	pc, pc, r3, lsl #2
    c4cc:	e320f000 	nop	{0}
    c4d0:	e59d300c 	ldr	r3, [sp, #12]
    c4d4:	e2832004 	add	r2, r3, #4
    c4d8:	e58d200c 	str	r2, [sp, #12]
    c4dc:	e5931000 	ldr	r1, [r3]
    c4e0:	e3a00002 	mov	r0, #2
    c4e4:	ebffff9e 	bl	c364 <emit_val>
    c4e8:	e1a04005 	mov	r4, r5
    c4ec:	eaffffe8 	b	c494 <vprintk+0x20>
    c4f0:	e59d300c 	ldr	r3, [sp, #12]
    c4f4:	e2832004 	add	r2, r3, #4
    c4f8:	e58d200c 	str	r2, [sp, #12]
    c4fc:	e5931000 	ldr	r1, [r3]
    c500:	e3a0000a 	mov	r0, #10
    c504:	ebffff96 	bl	c364 <emit_val>
    c508:	e1a04005 	mov	r4, r5
    c50c:	eaffffe0 	b	c494 <vprintk+0x20>
    c510:	e59f31b0 	ldr	r3, [pc, #432]	@ c6c8 <vprintk+0x254>
    c514:	e5932000 	ldr	r2, [r3]
    c518:	e59d300c 	ldr	r3, [sp, #12]
    c51c:	e2831004 	add	r1, r3, #4
    c520:	e58d100c 	str	r1, [sp, #12]
    c524:	e5930000 	ldr	r0, [r3]
    c528:	e12fff32 	blx	r2
    c52c:	e1a04005 	mov	r4, r5
    c530:	eaffffd7 	b	c494 <vprintk+0x20>
    c534:	e2842002 	add	r2, r4, #2
    c538:	e5d43002 	ldrb	r3, [r4, #2]
    c53c:	e353006c 	cmp	r3, #108	@ 0x6c
    c540:	1a000018 	bne	c5a8 <vprintk+0x134>
    c544:	e2845003 	add	r5, r4, #3
    c548:	e5d43003 	ldrb	r3, [r4, #3]
    c54c:	e3530078 	cmp	r3, #120	@ 0x78
    c550:	1a00001b 	bne	c5c4 <vprintk+0x150>
    c554:	e59f416c 	ldr	r4, [pc, #364]	@ c6c8 <vprintk+0x254>
    c558:	e5943000 	ldr	r3, [r4]
    c55c:	e3a00030 	mov	r0, #48	@ 0x30
    c560:	e12fff33 	blx	r3
    c564:	e5943000 	ldr	r3, [r4]
    c568:	e3a00078 	mov	r0, #120	@ 0x78
    c56c:	e12fff33 	blx	r3
    c570:	e59d300c 	ldr	r3, [sp, #12]
    c574:	e2833007 	add	r3, r3, #7
    c578:	e3c33007 	bic	r3, r3, #7
    c57c:	e2832008 	add	r2, r3, #8
    c580:	e58d200c 	str	r2, [sp, #12]
    c584:	e5934000 	ldr	r4, [r3]
    c588:	e5931004 	ldr	r1, [r3, #4]
    c58c:	e3510000 	cmp	r1, #0
    c590:	1a000012 	bne	c5e0 <vprintk+0x16c>
    c594:	e1a01004 	mov	r1, r4
    c598:	e3a00010 	mov	r0, #16
    c59c:	ebffff70 	bl	c364 <emit_val>
    c5a0:	e1a04005 	mov	r4, r5
    c5a4:	eaffffba 	b	c494 <vprintk+0x20>
    c5a8:	e58d2000 	str	r2, [sp]
    c5ac:	e3a0303b 	mov	r3, #59	@ 0x3b
    c5b0:	e59f2118 	ldr	r2, [pc, #280]	@ c6d0 <vprintk+0x25c>
    c5b4:	e59f1118 	ldr	r1, [pc, #280]	@ c6d4 <vprintk+0x260>
    c5b8:	e59f0118 	ldr	r0, [pc, #280]	@ c6d8 <vprintk+0x264>
    c5bc:	ebffff5d 	bl	c338 <printk>
    c5c0:	eb000052 	bl	c710 <clean_reboot>
    c5c4:	e58d5000 	str	r5, [sp]
    c5c8:	e3a0303e 	mov	r3, #62	@ 0x3e
    c5cc:	e59f20fc 	ldr	r2, [pc, #252]	@ c6d0 <vprintk+0x25c>
    c5d0:	e59f10fc 	ldr	r1, [pc, #252]	@ c6d4 <vprintk+0x260>
    c5d4:	e59f00fc 	ldr	r0, [pc, #252]	@ c6d8 <vprintk+0x264>
    c5d8:	ebffff56 	bl	c338 <printk>
    c5dc:	eb00004b 	bl	c710 <clean_reboot>
    c5e0:	e3a00010 	mov	r0, #16
    c5e4:	ebffff5e 	bl	c364 <emit_val>
    c5e8:	eaffffe9 	b	c594 <vprintk+0x120>
    c5ec:	e59f40d4 	ldr	r4, [pc, #212]	@ c6c8 <vprintk+0x254>
    c5f0:	e5943000 	ldr	r3, [r4]
    c5f4:	e3a00030 	mov	r0, #48	@ 0x30
    c5f8:	e12fff33 	blx	r3
    c5fc:	e5943000 	ldr	r3, [r4]
    c600:	e3a00078 	mov	r0, #120	@ 0x78
    c604:	e12fff33 	blx	r3
    c608:	e59d300c 	ldr	r3, [sp, #12]
    c60c:	e2832004 	add	r2, r3, #4
    c610:	e58d200c 	str	r2, [sp, #12]
    c614:	e5931000 	ldr	r1, [r3]
    c618:	e3a00010 	mov	r0, #16
    c61c:	ebffff50 	bl	c364 <emit_val>
    c620:	e1a04005 	mov	r4, r5
    c624:	eaffff9a 	b	c494 <vprintk+0x20>
    c628:	e59d300c 	ldr	r3, [sp, #12]
    c62c:	e2832004 	add	r2, r3, #4
    c630:	e58d200c 	str	r2, [sp, #12]
    c634:	e5934000 	ldr	r4, [r3]
    c638:	e3540000 	cmp	r4, #0
    c63c:	ba000004 	blt	c654 <vprintk+0x1e0>
    c640:	e1a01004 	mov	r1, r4
    c644:	e3a0000a 	mov	r0, #10
    c648:	ebffff45 	bl	c364 <emit_val>
    c64c:	e1a04005 	mov	r4, r5
    c650:	eaffff8f 	b	c494 <vprintk+0x20>
    c654:	e59f306c 	ldr	r3, [pc, #108]	@ c6c8 <vprintk+0x254>
    c658:	e5933000 	ldr	r3, [r3]
    c65c:	e3a0002d 	mov	r0, #45	@ 0x2d
    c660:	e12fff33 	blx	r3
    c664:	e2644000 	rsb	r4, r4, #0
    c668:	eafffff4 	b	c640 <vprintk+0x1cc>
    c66c:	e59d300c 	ldr	r3, [sp, #12]
    c670:	e2832004 	add	r2, r3, #4
    c674:	e58d200c 	str	r2, [sp, #12]
    c678:	e5934000 	ldr	r4, [r3]
    c67c:	ea000003 	b	c690 <vprintk+0x21c>
    c680:	e59f3040 	ldr	r3, [pc, #64]	@ c6c8 <vprintk+0x254>
    c684:	e5933000 	ldr	r3, [r3]
    c688:	e12fff33 	blx	r3
    c68c:	e2844001 	add	r4, r4, #1
    c690:	e5d40000 	ldrb	r0, [r4]
    c694:	e3500000 	cmp	r0, #0
    c698:	1afffff8 	bne	c680 <vprintk+0x20c>
    c69c:	e1a04005 	mov	r4, r5
    c6a0:	eaffff7b 	b	c494 <vprintk+0x20>
    c6a4:	e58d2000 	str	r2, [sp]
    c6a8:	e3a03062 	mov	r3, #98	@ 0x62
    c6ac:	e59f201c 	ldr	r2, [pc, #28]	@ c6d0 <vprintk+0x25c>
    c6b0:	e59f101c 	ldr	r1, [pc, #28]	@ c6d4 <vprintk+0x260>
    c6b4:	e59f0020 	ldr	r0, [pc, #32]	@ c6dc <vprintk+0x268>
    c6b8:	ebffff1e 	bl	c338 <printk>
    c6bc:	eb000013 	bl	c710 <clean_reboot>
    c6c0:	e28dd014 	add	sp, sp, #20
    c6c4:	e8bd8030 	pop	{r4, r5, pc}
    c6c8:	0000e37c 	.word	0x0000e37c
    c6cc:	0000e320 	.word	0x0000e320
    c6d0:	0000e344 	.word	0x0000e344
    c6d4:	0000deb4 	.word	0x0000deb4
    c6d8:	0000df0c 	.word	0x0000df0c
    c6dc:	0000df44 	.word	0x0000df44

0000c6e0 <default_putchar>:
    c6e0:	e92d4010 	push	{r4, lr}
    c6e4:	e1a04000 	mov	r4, r0
    c6e8:	e6ef0070 	uxtb	r0, r0
    c6ec:	eb00014f 	bl	cc30 <uart_put8>
    c6f0:	e1a00004 	mov	r0, r4
    c6f4:	e8bd8010 	pop	{r4, pc}

0000c6f8 <rpi_putchar_set>:
    c6f8:	e59f300c 	ldr	r3, [pc, #12]	@ c70c <rpi_putchar_set+0x14>
    c6fc:	e5932000 	ldr	r2, [r3]
    c700:	e5830000 	str	r0, [r3]
    c704:	e1a00002 	mov	r0, r2
    c708:	e12fff1e 	bx	lr
    c70c:	0000e37c 	.word	0x0000e37c

0000c710 <clean_reboot>:
    c710:	e92d4010 	push	{r4, lr}
    c714:	e59f0010 	ldr	r0, [pc, #16]	@ c72c <clean_reboot+0x1c>
    c718:	eb00016a 	bl	ccc8 <putk>
    c71c:	eb000156 	bl	cc7c <uart_flush_tx>
    c720:	e3a0000a 	mov	r0, #10
    c724:	eb000084 	bl	c93c <delay_ms>
    c728:	eb00005f 	bl	c8ac <rpi_reboot>
    c72c:	0000df6c 	.word	0x0000df6c

0000c730 <redzone_check>:
    c730:	e92d4030 	push	{r4, r5, lr}
    c734:	e24dd00c 	sub	sp, sp, #12
    c738:	e2501000 	subs	r1, r0, #0
    c73c:	0a000001 	beq	c748 <redzone_check+0x18>
    c740:	e59f0070 	ldr	r0, [pc, #112]	@ c7b8 <redzone_check+0x88>
    c744:	ebfffefb 	bl	c338 <printk>
    c748:	e3a04000 	mov	r4, #0
    c74c:	e1a05004 	mov	r5, r4
    c750:	ea000000 	b	c758 <redzone_check+0x28>
    c754:	e2844001 	add	r4, r4, #1
    c758:	e3540b01 	cmp	r4, #1024	@ 0x400
    c75c:	2a000009 	bcs	c788 <redzone_check+0x58>
    c760:	e1a01104 	lsl	r1, r4, #2
    c764:	e5913000 	ldr	r3, [r1]
    c768:	e3530000 	cmp	r3, #0
    c76c:	0afffff8 	beq	c754 <redzone_check+0x24>
    c770:	e2855001 	add	r5, r5, #1
    c774:	e5912000 	ldr	r2, [r1]
    c778:	e1a03005 	mov	r3, r5
    c77c:	e59f0038 	ldr	r0, [pc, #56]	@ c7bc <redzone_check+0x8c>
    c780:	ebfffeec 	bl	c338 <printk>
    c784:	eafffff2 	b	c754 <redzone_check+0x24>
    c788:	e3550000 	cmp	r5, #0
    c78c:	1a000002 	bne	c79c <redzone_check+0x6c>
    c790:	e3a00001 	mov	r0, #1
    c794:	e28dd00c 	add	sp, sp, #12
    c798:	e8bd8030 	pop	{r4, r5, pc}
    c79c:	e58d5000 	str	r5, [sp]
    c7a0:	e3a0301b 	mov	r3, #27
    c7a4:	e59f2014 	ldr	r2, [pc, #20]	@ c7c0 <redzone_check+0x90>
    c7a8:	e59f1014 	ldr	r1, [pc, #20]	@ c7c4 <redzone_check+0x94>
    c7ac:	e59f0014 	ldr	r0, [pc, #20]	@ c7c8 <redzone_check+0x98>
    c7b0:	ebfffee0 	bl	c338 <printk>
    c7b4:	ebffffd5 	bl	c710 <clean_reboot>
    c7b8:	0000df78 	.word	0x0000df78
    c7bc:	0000df90 	.word	0x0000df90
    c7c0:	0000e34c 	.word	0x0000e34c
    c7c4:	0000dfbc 	.word	0x0000dfbc
    c7c8:	0000e004 	.word	0x0000e004

0000c7cc <redzone_init>:
    c7cc:	e52de004 	push	{lr}		@ (str lr, [sp, #-4]!)
    c7d0:	e24dd00c 	sub	sp, sp, #12
    c7d4:	e3a02a01 	mov	r2, #4096	@ 0x1000
    c7d8:	e3a01000 	mov	r1, #0
    c7dc:	e1a00001 	mov	r0, r1
    c7e0:	ebfffeae 	bl	c2a0 <memset>
    c7e4:	e3a00000 	mov	r0, #0
    c7e8:	ebffffd0 	bl	c730 <redzone_check>
    c7ec:	e3500000 	cmp	r0, #0
    c7f0:	0a000001 	beq	c7fc <redzone_init+0x30>
    c7f4:	e28dd00c 	add	sp, sp, #12
    c7f8:	e49df004 	pop	{pc}		@ (ldr pc, [sp], #4)
    c7fc:	e59f3018 	ldr	r3, [pc, #24]	@ c81c <redzone_init+0x50>
    c800:	e58d3000 	str	r3, [sp]
    c804:	e3a03022 	mov	r3, #34	@ 0x22
    c808:	e59f2010 	ldr	r2, [pc, #16]	@ c820 <redzone_init+0x54>
    c80c:	e59f1010 	ldr	r1, [pc, #16]	@ c824 <redzone_init+0x58>
    c810:	e59f0010 	ldr	r0, [pc, #16]	@ c828 <redzone_init+0x5c>
    c814:	ebfffec7 	bl	c338 <printk>
    c818:	ebffffbc 	bl	c710 <clean_reboot>
    c81c:	0000e034 	.word	0x0000e034
    c820:	0000e35c 	.word	0x0000e35c
    c824:	0000dfbc 	.word	0x0000dfbc
    c828:	0000cd08 	.word	0x0000cd08

0000c82c <program_end>:
    c82c:	e59f0000 	ldr	r0, [pc]	@ c834 <program_end+0x8>
    c830:	e12fff1e 	bx	lr
    c834:	0000e3a0 	.word	0x0000e3a0

0000c838 <_cstart>:
    c838:	e92d4010 	push	{r4, lr}
    c83c:	e59f302c 	ldr	r3, [pc, #44]	@ c870 <_cstart+0x38>
    c840:	ea000001 	b	c84c <_cstart+0x14>
    c844:	e3a02000 	mov	r2, #0
    c848:	e4c32001 	strb	r2, [r3], #1
    c84c:	e59f2020 	ldr	r2, [pc, #32]	@ c874 <_cstart+0x3c>
    c850:	e1530002 	cmp	r3, r2
    c854:	3afffffa 	bcc	c844 <_cstart+0xc>
    c858:	eb0000af 	bl	cb1c <uart_init>
    c85c:	e3a03001 	mov	r3, #1
    c860:	ee0f3f1c 	mcr	15, 0, r3, cr15, cr12, {0}
    c864:	ebffffd8 	bl	c7cc <redzone_init>
    c868:	ebffeebd 	bl	8364 <notmain>
    c86c:	ebffffa7 	bl	c710 <clean_reboot>
    c870:	0000e380 	.word	0x0000e380
    c874:	0000e3a0 	.word	0x0000e3a0

0000c878 <delay_cycles>:
    c878:	ea000001 	b	c884 <delay_cycles+0xc>
    c87c:	e2811000 	add	r1, r1, #0
    c880:	e1a00003 	mov	r0, r3
    c884:	e2403001 	sub	r3, r0, #1
    c888:	e3500000 	cmp	r0, #0
    c88c:	1afffffa 	bne	c87c <delay_cycles+0x4>
    c890:	e12fff1e 	bx	lr

0000c894 <dev_barrier>:
    c894:	ea000002 	b	c8a4 <dsb>

0000c898 <dmb>:
    c898:	e3a00000 	mov	r0, #0
    c89c:	ee070fba 	mcr	15, 0, r0, cr7, cr10, {5}
    c8a0:	e12fff1e 	bx	lr

0000c8a4 <dsb>:
    c8a4:	ee070f9a 	mcr	15, 0, r0, cr7, cr10, {4}
    c8a8:	e12fff1e 	bx	lr

0000c8ac <rpi_reboot>:
    c8ac:	e92d4010 	push	{r4, lr}
    c8b0:	e3a0000a 	mov	r0, #10
    c8b4:	eb000020 	bl	c93c <delay_ms>
    c8b8:	e59f1014 	ldr	r1, [pc, #20]	@ c8d4 <rpi_reboot+0x28>
    c8bc:	e59f0014 	ldr	r0, [pc, #20]	@ c8d8 <rpi_reboot+0x2c>
    c8c0:	ebffedd7 	bl	8024 <PUT32>
    c8c4:	e59f1010 	ldr	r1, [pc, #16]	@ c8dc <rpi_reboot+0x30>
    c8c8:	e59f0010 	ldr	r0, [pc, #16]	@ c8e0 <rpi_reboot+0x34>
    c8cc:	ebffedd4 	bl	8024 <PUT32>
    c8d0:	eafffffe 	b	c8d0 <rpi_reboot+0x24>
    c8d4:	5a000001 	.word	0x5a000001
    c8d8:	20100024 	.word	0x20100024
    c8dc:	5a000020 	.word	0x5a000020
    c8e0:	2010001c 	.word	0x2010001c

0000c8e4 <rpi_wait>:
    c8e4:	e12fff1e 	bx	lr

0000c8e8 <timer_get_usec_raw>:
    c8e8:	e92d4010 	push	{r4, lr}
    c8ec:	e59f0004 	ldr	r0, [pc, #4]	@ c8f8 <timer_get_usec_raw+0x10>
    c8f0:	ebffedcd 	bl	802c <GET32>
    c8f4:	e8bd8010 	pop	{r4, pc}
    c8f8:	20003004 	.word	0x20003004

0000c8fc <timer_get_usec>:
    c8fc:	e92d4010 	push	{r4, lr}
    c900:	ebffffe3 	bl	c894 <dev_barrier>
    c904:	ebfffff7 	bl	c8e8 <timer_get_usec_raw>
    c908:	e1a04000 	mov	r4, r0
    c90c:	ebffffe0 	bl	c894 <dev_barrier>
    c910:	e1a00004 	mov	r0, r4
    c914:	e8bd8010 	pop	{r4, pc}

0000c918 <delay_us>:
    c918:	e92d4070 	push	{r4, r5, r6, lr}
    c91c:	e1a05000 	mov	r5, r0
    c920:	ebfffff5 	bl	c8fc <timer_get_usec>
    c924:	e1a04000 	mov	r4, r0
    c928:	ebfffff3 	bl	c8fc <timer_get_usec>
    c92c:	e0400004 	sub	r0, r0, r4
    c930:	e1500005 	cmp	r0, r5
    c934:	3afffffb 	bcc	c928 <delay_us+0x10>
    c938:	e8bd8070 	pop	{r4, r5, r6, pc}

0000c93c <delay_ms>:
    c93c:	e92d4010 	push	{r4, lr}
    c940:	e0603280 	rsb	r3, r0, r0, lsl #5
    c944:	e0800103 	add	r0, r0, r3, lsl #2
    c948:	e1a00180 	lsl	r0, r0, #3
    c94c:	ebfffff1 	bl	c918 <delay_us>
    c950:	e8bd8010 	pop	{r4, pc}

0000c954 <delay_sec>:
    c954:	e92d4010 	push	{r4, lr}
    c958:	e0603280 	rsb	r3, r0, r0, lsl #5
    c95c:	e0800103 	add	r0, r0, r3, lsl #2
    c960:	e1a00180 	lsl	r0, r0, #3
    c964:	ebfffff4 	bl	c93c <delay_ms>
    c968:	e8bd8010 	pop	{r4, pc}

0000c96c <gpio_set_pud>:
    c96c:	e92d4070 	push	{r4, r5, r6, lr}
    c970:	e24dd008 	sub	sp, sp, #8
    c974:	e350001f 	cmp	r0, #31
    c978:	8a000020 	bhi	ca00 <gpio_set_pud+0x94>
    c97c:	e1a05000 	mov	r5, r0
    c980:	e1a04001 	mov	r4, r1
    c984:	e3510003 	cmp	r1, #3
    c988:	8a000024 	bhi	ca20 <gpio_set_pud+0xb4>
    c98c:	e3510002 	cmp	r1, #2
    c990:	8a00002a 	bhi	ca40 <gpio_set_pud+0xd4>
    c994:	ebffffbe 	bl	c894 <dev_barrier>
    c998:	e59f60b8 	ldr	r6, [pc, #184]	@ ca58 <gpio_set_pud+0xec>
    c99c:	e1a01004 	mov	r1, r4
    c9a0:	e1a00006 	mov	r0, r6
    c9a4:	ebffed9e 	bl	8024 <PUT32>
    c9a8:	e3a00096 	mov	r0, #150	@ 0x96
    c9ac:	ebffffd9 	bl	c918 <delay_us>
    c9b0:	e59f40a4 	ldr	r4, [pc, #164]	@ ca5c <gpio_set_pud+0xf0>
    c9b4:	e3a01001 	mov	r1, #1
    c9b8:	e1a01511 	lsl	r1, r1, r5
    c9bc:	e1a00004 	mov	r0, r4
    c9c0:	ebffed97 	bl	8024 <PUT32>
    c9c4:	e3a00096 	mov	r0, #150	@ 0x96
    c9c8:	ebffffd2 	bl	c918 <delay_us>
    c9cc:	e3a01000 	mov	r1, #0
    c9d0:	e1a00006 	mov	r0, r6
    c9d4:	ebffed92 	bl	8024 <PUT32>
    c9d8:	e3a00096 	mov	r0, #150	@ 0x96
    c9dc:	ebffffcd 	bl	c918 <delay_us>
    c9e0:	e3a01000 	mov	r1, #0
    c9e4:	e1a00004 	mov	r0, r4
    c9e8:	ebffed8d 	bl	8024 <PUT32>
    c9ec:	e3a00096 	mov	r0, #150	@ 0x96
    c9f0:	ebffffc8 	bl	c918 <delay_us>
    c9f4:	ebffffa6 	bl	c894 <dev_barrier>
    c9f8:	e28dd008 	add	sp, sp, #8
    c9fc:	e8bd8070 	pop	{r4, r5, r6, pc}
    ca00:	e59f3058 	ldr	r3, [pc, #88]	@ ca60 <gpio_set_pud+0xf4>
    ca04:	e58d3000 	str	r3, [sp]
    ca08:	e3a03012 	mov	r3, #18
    ca0c:	e59f2050 	ldr	r2, [pc, #80]	@ ca64 <gpio_set_pud+0xf8>
    ca10:	e59f1050 	ldr	r1, [pc, #80]	@ ca68 <gpio_set_pud+0xfc>
    ca14:	e59f0050 	ldr	r0, [pc, #80]	@ ca6c <gpio_set_pud+0x100>
    ca18:	ebfffe46 	bl	c338 <printk>
    ca1c:	ebffff3b 	bl	c710 <clean_reboot>
    ca20:	e59f3048 	ldr	r3, [pc, #72]	@ ca70 <gpio_set_pud+0x104>
    ca24:	e58d3000 	str	r3, [sp]
    ca28:	e3a03013 	mov	r3, #19
    ca2c:	e59f2030 	ldr	r2, [pc, #48]	@ ca64 <gpio_set_pud+0xf8>
    ca30:	e59f1030 	ldr	r1, [pc, #48]	@ ca68 <gpio_set_pud+0xfc>
    ca34:	e59f0038 	ldr	r0, [pc, #56]	@ ca74 <gpio_set_pud+0x108>
    ca38:	ebfffe3e 	bl	c338 <printk>
    ca3c:	ebffff33 	bl	c710 <clean_reboot>
    ca40:	e3a03018 	mov	r3, #24
    ca44:	e59f2018 	ldr	r2, [pc, #24]	@ ca64 <gpio_set_pud+0xf8>
    ca48:	e59f1018 	ldr	r1, [pc, #24]	@ ca68 <gpio_set_pud+0xfc>
    ca4c:	e59f0024 	ldr	r0, [pc, #36]	@ ca78 <gpio_set_pud+0x10c>
    ca50:	ebfffe38 	bl	c338 <printk>
    ca54:	ebffff2d 	bl	c710 <clean_reboot>
    ca58:	20200094 	.word	0x20200094
    ca5c:	20200098 	.word	0x20200098
    ca60:	0000e08c 	.word	0x0000e08c
    ca64:	0000e36c 	.word	0x0000e36c
    ca68:	0000e048 	.word	0x0000e048
    ca6c:	0000e054 	.word	0x0000e054
    ca70:	0000e0d0 	.word	0x0000e0d0
    ca74:	0000e098 	.word	0x0000e098
    ca78:	0000e0d8 	.word	0x0000e0d8

0000ca7c <gpio_set_pullup>:
    ca7c:	e92d4010 	push	{r4, lr}
    ca80:	e3a01002 	mov	r1, #2
    ca84:	ebffffb8 	bl	c96c <gpio_set_pud>
    ca88:	e8bd8010 	pop	{r4, pc}

0000ca8c <gpio_set_pulldown>:
    ca8c:	e92d4010 	push	{r4, lr}
    ca90:	e3a01001 	mov	r1, #1
    ca94:	ebffffb4 	bl	c96c <gpio_set_pud>
    ca98:	e8bd8010 	pop	{r4, pc}

0000ca9c <gpio_pud_off>:
    ca9c:	e92d4010 	push	{r4, lr}
    caa0:	e3a01000 	mov	r1, #0
    caa4:	ebffffb0 	bl	c96c <gpio_set_pud>
    caa8:	e8bd8010 	pop	{r4, pc}

0000caac <gpio_get_pud>:
    caac:	e92d4010 	push	{r4, lr}
    cab0:	e59f0008 	ldr	r0, [pc, #8]	@ cac0 <gpio_get_pud+0x14>
    cab4:	ebffed5c 	bl	802c <GET32>
    cab8:	e2000003 	and	r0, r0, #3
    cabc:	e8bd8010 	pop	{r4, pc}
    cac0:	20200094 	.word	0x20200094

0000cac4 <gpio_is_pullup>:
    cac4:	e92d4010 	push	{r4, lr}
    cac8:	ebfffff7 	bl	caac <gpio_get_pud>
    cacc:	e3500002 	cmp	r0, #2
    cad0:	13a00000 	movne	r0, #0
    cad4:	03a00001 	moveq	r0, #1
    cad8:	e8bd8010 	pop	{r4, pc}

0000cadc <gpio_is_pulldown>:
    cadc:	e92d4010 	push	{r4, lr}
    cae0:	ebfffff1 	bl	caac <gpio_get_pud>
    cae4:	e3500001 	cmp	r0, #1
    cae8:	13a00000 	movne	r0, #0
    caec:	03a00001 	moveq	r0, #1
    caf0:	e8bd8010 	pop	{r4, pc}

0000caf4 <OR32>:
    caf4:	e92d4070 	push	{r4, r5, r6, lr}
    caf8:	e1a05000 	mov	r5, r0
    cafc:	e1a04001 	mov	r4, r1
    cb00:	ebffed49 	bl	802c <GET32>
    cb04:	e1804004 	orr	r4, r0, r4
    cb08:	e1a01004 	mov	r1, r4
    cb0c:	e1a00005 	mov	r0, r5
    cb10:	ebffed43 	bl	8024 <PUT32>
    cb14:	e1a00004 	mov	r0, r4
    cb18:	e8bd8070 	pop	{r4, r5, r6, pc}

0000cb1c <uart_init>:
    cb1c:	e92d4010 	push	{r4, lr}
    cb20:	ebffff5b 	bl	c894 <dev_barrier>
    cb24:	e3a01002 	mov	r1, #2
    cb28:	e3a0000e 	mov	r0, #14
    cb2c:	ebfffd33 	bl	c000 <gpio_set_function>
    cb30:	e3a01002 	mov	r1, #2
    cb34:	e3a0000f 	mov	r0, #15
    cb38:	ebfffd30 	bl	c000 <gpio_set_function>
    cb3c:	ebffff54 	bl	c894 <dev_barrier>
    cb40:	e3a01001 	mov	r1, #1
    cb44:	e59f0058 	ldr	r0, [pc, #88]	@ cba4 <uart_init+0x88>
    cb48:	ebffffe9 	bl	caf4 <OR32>
    cb4c:	ebffff50 	bl	c894 <dev_barrier>
    cb50:	e59f4050 	ldr	r4, [pc, #80]	@ cba8 <uart_init+0x8c>
    cb54:	e3a01000 	mov	r1, #0
    cb58:	e1a00004 	mov	r0, r4
    cb5c:	ebffed30 	bl	8024 <PUT32>
    cb60:	e3a01006 	mov	r1, #6
    cb64:	e59f0040 	ldr	r0, [pc, #64]	@ cbac <uart_init+0x90>
    cb68:	ebffed2d 	bl	8024 <PUT32>
    cb6c:	e3a01003 	mov	r1, #3
    cb70:	e59f0038 	ldr	r0, [pc, #56]	@ cbb0 <uart_init+0x94>
    cb74:	ebffed2a 	bl	8024 <PUT32>
    cb78:	e59f1034 	ldr	r1, [pc, #52]	@ cbb4 <uart_init+0x98>
    cb7c:	e59f0034 	ldr	r0, [pc, #52]	@ cbb8 <uart_init+0x9c>
    cb80:	ebffed27 	bl	8024 <PUT32>
    cb84:	e3a01000 	mov	r1, #0
    cb88:	e59f002c 	ldr	r0, [pc, #44]	@ cbbc <uart_init+0xa0>
    cb8c:	ebffed24 	bl	8024 <PUT32>
    cb90:	e3a01003 	mov	r1, #3
    cb94:	e1a00004 	mov	r0, r4
    cb98:	ebffed21 	bl	8024 <PUT32>
    cb9c:	ebffff3c 	bl	c894 <dev_barrier>
    cba0:	e8bd8010 	pop	{r4, pc}
    cba4:	20215004 	.word	0x20215004
    cba8:	20215060 	.word	0x20215060
    cbac:	20215048 	.word	0x20215048
    cbb0:	2021504c 	.word	0x2021504c
    cbb4:	0000010e 	.word	0x0000010e
    cbb8:	20215068 	.word	0x20215068
    cbbc:	20215044 	.word	0x20215044

0000cbc0 <uart_tx_is_empty>:
    cbc0:	e92d4010 	push	{r4, lr}
    cbc4:	e59f0008 	ldr	r0, [pc, #8]	@ cbd4 <uart_tx_is_empty+0x14>
    cbc8:	ebffed17 	bl	802c <GET32>
    cbcc:	e2000040 	and	r0, r0, #64	@ 0x40
    cbd0:	e8bd8010 	pop	{r4, pc}
    cbd4:	20215054 	.word	0x20215054

0000cbd8 <uart_has_data>:
    cbd8:	e92d4010 	push	{r4, lr}
    cbdc:	e59f0008 	ldr	r0, [pc, #8]	@ cbec <uart_has_data+0x14>
    cbe0:	ebffed11 	bl	802c <GET32>
    cbe4:	e2000001 	and	r0, r0, #1
    cbe8:	e8bd8010 	pop	{r4, pc}
    cbec:	20215064 	.word	0x20215064

0000cbf0 <uart_get8>:
    cbf0:	e92d4010 	push	{r4, lr}
    cbf4:	ebfffff7 	bl	cbd8 <uart_has_data>
    cbf8:	e3500000 	cmp	r0, #0
    cbfc:	0afffffc 	beq	cbf4 <uart_get8+0x4>
    cc00:	e59f000c 	ldr	r0, [pc, #12]	@ cc14 <uart_get8+0x24>
    cc04:	ebffed08 	bl	802c <GET32>
    cc08:	e1a00b80 	lsl	r0, r0, #23
    cc0c:	e1a00ba0 	lsr	r0, r0, #23
    cc10:	e8bd8010 	pop	{r4, pc}
    cc14:	20215040 	.word	0x20215040

0000cc18 <uart_can_put8>:
    cc18:	e92d4010 	push	{r4, lr}
    cc1c:	e59f0008 	ldr	r0, [pc, #8]	@ cc2c <uart_can_put8+0x14>
    cc20:	ebffed01 	bl	802c <GET32>
    cc24:	e2000002 	and	r0, r0, #2
    cc28:	e8bd8010 	pop	{r4, pc}
    cc2c:	20215064 	.word	0x20215064

0000cc30 <uart_put8>:
    cc30:	e92d4010 	push	{r4, lr}
    cc34:	e1a04000 	mov	r4, r0
    cc38:	ebfffff6 	bl	cc18 <uart_can_put8>
    cc3c:	e3500000 	cmp	r0, #0
    cc40:	0afffffc 	beq	cc38 <uart_put8+0x8>
    cc44:	e1a01004 	mov	r1, r4
    cc48:	e59f0008 	ldr	r0, [pc, #8]	@ cc58 <uart_put8+0x28>
    cc4c:	ebffecf4 	bl	8024 <PUT32>
    cc50:	e3a00001 	mov	r0, #1
    cc54:	e8bd8010 	pop	{r4, pc}
    cc58:	20215040 	.word	0x20215040

0000cc5c <uart_get8_async>:
    cc5c:	e92d4010 	push	{r4, lr}
    cc60:	ebffffdc 	bl	cbd8 <uart_has_data>
    cc64:	e3500000 	cmp	r0, #0
    cc68:	0a000001 	beq	cc74 <uart_get8_async+0x18>
    cc6c:	ebffffdf 	bl	cbf0 <uart_get8>
    cc70:	e8bd8010 	pop	{r4, pc}
    cc74:	e3e00000 	mvn	r0, #0
    cc78:	e8bd8010 	pop	{r4, pc}

0000cc7c <uart_flush_tx>:
    cc7c:	e92d4010 	push	{r4, lr}
    cc80:	ea000000 	b	cc88 <uart_flush_tx+0xc>
    cc84:	ebffff16 	bl	c8e4 <rpi_wait>
    cc88:	ebffffcc 	bl	cbc0 <uart_tx_is_empty>
    cc8c:	e3500000 	cmp	r0, #0
    cc90:	0afffffb 	beq	cc84 <uart_flush_tx+0x8>
    cc94:	e8bd8010 	pop	{r4, pc}

0000cc98 <uart_disable>:
    cc98:	e92d4010 	push	{r4, lr}
    cc9c:	ebfffff6 	bl	cc7c <uart_flush_tx>
    cca0:	ebfffefb 	bl	c894 <dev_barrier>
    cca4:	e59f4018 	ldr	r4, [pc, #24]	@ ccc4 <uart_disable+0x2c>
    cca8:	e1a00004 	mov	r0, r4
    ccac:	ebffecde 	bl	802c <GET32>
    ccb0:	e3c01001 	bic	r1, r0, #1
    ccb4:	e1a00004 	mov	r0, r4
    ccb8:	ebffecd9 	bl	8024 <PUT32>
    ccbc:	ebfffef4 	bl	c894 <dev_barrier>
    ccc0:	e8bd8010 	pop	{r4, pc}
    ccc4:	20215004 	.word	0x20215004

0000ccc8 <putk>:
    ccc8:	e92d4010 	push	{r4, lr}
    cccc:	e1a04000 	mov	r4, r0
    ccd0:	ea000003 	b	cce4 <putk+0x1c>
    ccd4:	e59f301c 	ldr	r3, [pc, #28]	@ ccf8 <putk+0x30>
    ccd8:	e5933000 	ldr	r3, [r3]
    ccdc:	e12fff33 	blx	r3
    cce0:	e2844001 	add	r4, r4, #1
    cce4:	e5d40000 	ldrb	r0, [r4]
    cce8:	e3500000 	cmp	r0, #0
    ccec:	1afffff8 	bne	ccd4 <putk+0xc>
    ccf0:	e3a00001 	mov	r0, #1
    ccf4:	e8bd8010 	pop	{r4, pc}
    ccf8:	0000e37c 	.word	0x0000e37c

0000ccfc <__code_end__>:
    ccfc:	00000000 	.word	0x00000000
