
objs/tests/2-no-stack-test.elf:     file format elf32-littlearm


Disassembly of section .text:

00008000 <__code_start__>:
    8000:	e3a00013 	mov	r0, #19
    8004:	e3800080 	orr	r0, r0, #128	@ 0x80
    8008:	e129f000 	msr	CPSR_fc, r0
    800c:	e3a01000 	mov	r1, #0
    8010:	ee071f95 	mcr	15, 0, r1, cr7, cr5, {4}
    8014:	e3a0d302 	mov	sp, #134217728	@ 0x8000000
    8018:	e3a0b000 	mov	fp, #0
    801c:	eb000b3b 	bl	ad10 <_cstart>
    8020:	eb000b80 	bl	ae28 <rpi_reboot>

00008024 <PUT32>:
    8024:	e5801000 	str	r1, [r0]
    8028:	e12fff1e 	bx	lr

0000802c <GET32>:
    802c:	e5900000 	ldr	r0, [r0]
    8030:	e12fff1e 	bx	lr

00008034 <BRANCHTO>:
    8034:	e12fff10 	bx	r0

00008038 <nop_1>:
    8038:	e320f000 	nop	{0}
    803c:	e3a00000 	mov	r0, #0
    8040:	ef000001 	svc	0x00000001

00008044 <nop_10>:
    8044:	e320f000 	nop	{0}
    8048:	e320f000 	nop	{0}
    804c:	e320f000 	nop	{0}
    8050:	e320f000 	nop	{0}
    8054:	e320f000 	nop	{0}
    8058:	e320f000 	nop	{0}
    805c:	e320f000 	nop	{0}
    8060:	e320f000 	nop	{0}
    8064:	e320f000 	nop	{0}
    8068:	e320f000 	nop	{0}
    806c:	e12fff1e 	bx	lr
    8070:	e3a0d409 	mov	sp, #150994944	@ 0x9000000
    8074:	e24f0004 	sub	r0, pc, #4
    8078:	e28f1000 	add	r1, pc, #0
    807c:	ea000ab2 	b	ab4c <asm_not_reached_helper>
    8080:	66617473 	.word	0x66617473
    8084:	74732d66 	.word	0x74732d66
    8088:	2e747261 	.word	0x2e747261
    808c:	31313a53 	.word	0x31313a53
    8090:	4e3c3a30 	.word	0x4e3c3a30
    8094:	5220544f 	.word	0x5220544f
    8098:	48434145 	.word	0x48434145
    809c:	003e4445 	.word	0x003e4445

000080a0 <mov_ident>:
    80a0:	e3a00000 	mov	r0, #0
    80a4:	e3a01001 	mov	r1, #1
    80a8:	e3a02002 	mov	r2, #2
    80ac:	e3a03003 	mov	r3, #3
    80b0:	e3a04004 	mov	r4, #4
    80b4:	e3a05005 	mov	r5, #5
    80b8:	e3a06006 	mov	r6, #6
    80bc:	e3a07007 	mov	r7, #7
    80c0:	e3a08008 	mov	r8, #8
    80c4:	e3a09009 	mov	r9, #9
    80c8:	e3a0a00a 	mov	sl, #10
    80cc:	e3a0b00b 	mov	fp, #11
    80d0:	e3a0c00c 	mov	ip, #12
    80d4:	e12fff1e 	bx	lr
    80d8:	e3a0d409 	mov	sp, #150994944	@ 0x9000000
    80dc:	e24f0004 	sub	r0, pc, #4
    80e0:	e28f1000 	add	r1, pc, #0
    80e4:	ea000a98 	b	ab4c <asm_not_reached_helper>
    80e8:	66617473 	.word	0x66617473
    80ec:	74732d66 	.word	0x74732d66
    80f0:	2e747261 	.word	0x2e747261
    80f4:	33313a53 	.word	0x33313a53
    80f8:	4e3c3a35 	.word	0x4e3c3a35
    80fc:	5220544f 	.word	0x5220544f
    8100:	48434145 	.word	0x48434145
    8104:	003e4445 	.word	0x003e4445

00008108 <small1>:
    8108:	e3a01001 	mov	r1, #1
    810c:	e3a00000 	mov	r0, #0
    8110:	ef000001 	svc	0x00000001

00008114 <small2>:
    8114:	e3a01002 	mov	r1, #2
    8118:	e3a00000 	mov	r0, #0
    811c:	ef000001 	svc	0x00000001

00008120 <sys_equiv_exit>:
    8120:	e3a00000 	mov	r0, #0
    8124:	ef000001 	svc	0x00000001

00008128 <sys_equiv_putc>:
    8128:	e52de004 	push	{lr}		@ (str lr, [sp, #-4]!)
    812c:	e1a01000 	mov	r1, r0
    8130:	e3a00001 	mov	r0, #1
    8134:	ef000001 	svc	0x00000001
    8138:	e49de004 	pop	{lr}		@ (ldr lr, [sp], #4)
    813c:	e12fff1e 	bx	lr

00008140 <syscall_invoke_asm>:
    8140:	e52de004 	push	{lr}		@ (str lr, [sp, #-4]!)
    8144:	ef000000 	svc	0x00000000
    8148:	e49de004 	pop	{lr}		@ (ldr lr, [sp], #4)
    814c:	e12fff1e 	bx	lr

00008150 <run_single>:
    8150:	e92d41f0 	push	{r4, r5, r6, r7, r8, lr}
    8154:	e1a06000 	mov	r6, r0
    8158:	e1a00001 	mov	r0, r1
    815c:	e1a01002 	mov	r1, r2
    8160:	e1a04003 	mov	r4, r3
    8164:	e1a02003 	mov	r2, r3
    8168:	eb000492 	bl	93b8 <eqx_fork_nostack>
    816c:	e1a05000 	mov	r5, r0
    8170:	e3a03001 	mov	r3, #1
    8174:	e580306c 	str	r3, [r0, #108]	@ 0x6c
    8178:	eb0004da 	bl	94e8 <eqx_run_threads>
    817c:	e3540000 	cmp	r4, #0
    8180:	0a000002 	beq	8190 <run_single+0x40>
    8184:	e595304c 	ldr	r3, [r5, #76]	@ 0x4c
    8188:	e1530004 	cmp	r3, r4
    818c:	1a000016 	bne	81ec <run_single+0x9c>
    8190:	e595704c 	ldr	r7, [r5, #76]	@ 0x4c
    8194:	e59f1088 	ldr	r1, [pc, #136]	@ 8224 <run_single+0xd4>
    8198:	e59f0088 	ldr	r0, [pc, #136]	@ 8228 <run_single+0xd8>
    819c:	eb000974 	bl	a774 <printk>
    81a0:	e59f0084 	ldr	r0, [pc, #132]	@ 822c <run_single+0xdc>
    81a4:	eb000972 	bl	a774 <printk>
    81a8:	e3a04000 	mov	r4, #0
    81ac:	e1540006 	cmp	r4, r6
    81b0:	aa000019 	bge	821c <run_single+0xcc>
    81b4:	e1a00005 	mov	r0, r5
    81b8:	eb000485 	bl	93d4 <eqx_refork>
    81bc:	eb0004c9 	bl	94e8 <eqx_run_threads>
    81c0:	e595304c 	ldr	r3, [r5, #76]	@ 0x4c
    81c4:	e1530007 	cmp	r3, r7
    81c8:	1a00000d 	bne	8204 <run_single+0xb4>
    81cc:	e59f1050 	ldr	r1, [pc, #80]	@ 8224 <run_single+0xd4>
    81d0:	e59f0050 	ldr	r0, [pc, #80]	@ 8228 <run_single+0xd8>
    81d4:	eb000966 	bl	a774 <printk>
    81d8:	e1a01004 	mov	r1, r4
    81dc:	e59f004c 	ldr	r0, [pc, #76]	@ 8230 <run_single+0xe0>
    81e0:	eb000963 	bl	a774 <printk>
    81e4:	e2844001 	add	r4, r4, #1
    81e8:	eaffffef 	b	81ac <run_single+0x5c>
    81ec:	e3a03020 	mov	r3, #32
    81f0:	e59f202c 	ldr	r2, [pc, #44]	@ 8224 <run_single+0xd4>
    81f4:	e59f1038 	ldr	r1, [pc, #56]	@ 8234 <run_single+0xe4>
    81f8:	e59f0038 	ldr	r0, [pc, #56]	@ 8238 <run_single+0xe8>
    81fc:	eb00095c 	bl	a774 <printk>
    8200:	eb000a78 	bl	abe8 <clean_reboot>
    8204:	e3a0302a 	mov	r3, #42	@ 0x2a
    8208:	e59f2014 	ldr	r2, [pc, #20]	@ 8224 <run_single+0xd4>
    820c:	e59f1020 	ldr	r1, [pc, #32]	@ 8234 <run_single+0xe4>
    8210:	e59f0020 	ldr	r0, [pc, #32]	@ 8238 <run_single+0xe8>
    8214:	eb000956 	bl	a774 <printk>
    8218:	eb000a72 	bl	abe8 <clean_reboot>
    821c:	e1a00005 	mov	r0, r5
    8220:	e8bd81f0 	pop	{r4, r5, r6, r7, r8, pc}
    8224:	0000c184 	.word	0x0000c184
    8228:	0000b0f0 	.word	0x0000b0f0
    822c:	0000b0fc 	.word	0x0000b0fc
    8230:	0000b12c 	.word	0x0000b12c
    8234:	0000b098 	.word	0x0000b098
    8238:	0000b0b0 	.word	0x0000b0b0

0000823c <notmain>:
    823c:	e92d47f0 	push	{r4, r5, r6, r7, r8, r9, sl, lr}
    8240:	eb000486 	bl	9460 <eqx_init>
    8244:	e59f3114 	ldr	r3, [pc, #276]	@ 8360 <notmain+0x124>
    8248:	e3a02000 	mov	r2, #0
    824c:	e59f1110 	ldr	r1, [pc, #272]	@ 8364 <notmain+0x128>
    8250:	e3a00003 	mov	r0, #3
    8254:	ebffffbd 	bl	8150 <run_single>
    8258:	e1a08000 	mov	r8, r0
    825c:	e59f3104 	ldr	r3, [pc, #260]	@ 8368 <notmain+0x12c>
    8260:	e3a02000 	mov	r2, #0
    8264:	e59f1100 	ldr	r1, [pc, #256]	@ 836c <notmain+0x130>
    8268:	e3a00003 	mov	r0, #3
    826c:	ebffffb7 	bl	8150 <run_single>
    8270:	e1a07000 	mov	r7, r0
    8274:	e1a00008 	mov	r0, r8
    8278:	eb000455 	bl	93d4 <eqx_refork>
    827c:	e1a00007 	mov	r0, r7
    8280:	eb000453 	bl	93d4 <eqx_refork>
    8284:	eb000497 	bl	94e8 <eqx_run_threads>
    8288:	e59fa0e0 	ldr	sl, [pc, #224]	@ 8370 <notmain+0x134>
    828c:	e59f90e0 	ldr	r9, [pc, #224]	@ 8374 <notmain+0x138>
    8290:	e1a0100a 	mov	r1, sl
    8294:	e1a00009 	mov	r0, r9
    8298:	eb000935 	bl	a774 <printk>
    829c:	e59f00d4 	ldr	r0, [pc, #212]	@ 8378 <notmain+0x13c>
    82a0:	eb000933 	bl	a774 <printk>
    82a4:	e59f30d0 	ldr	r3, [pc, #208]	@ 837c <notmain+0x140>
    82a8:	e3a02000 	mov	r2, #0
    82ac:	e59f10cc 	ldr	r1, [pc, #204]	@ 8380 <notmain+0x144>
    82b0:	e3a00003 	mov	r0, #3
    82b4:	ebffffa5 	bl	8150 <run_single>
    82b8:	e1a06000 	mov	r6, r0
    82bc:	e59f30c0 	ldr	r3, [pc, #192]	@ 8384 <notmain+0x148>
    82c0:	e3a02000 	mov	r2, #0
    82c4:	e59f10bc 	ldr	r1, [pc, #188]	@ 8388 <notmain+0x14c>
    82c8:	e3a00003 	mov	r0, #3
    82cc:	ebffff9f 	bl	8150 <run_single>
    82d0:	e1a04000 	mov	r4, r0
    82d4:	e59f30b0 	ldr	r3, [pc, #176]	@ 838c <notmain+0x150>
    82d8:	e3a02000 	mov	r2, #0
    82dc:	e59f10ac 	ldr	r1, [pc, #172]	@ 8390 <notmain+0x154>
    82e0:	e3a00003 	mov	r0, #3
    82e4:	ebffff99 	bl	8150 <run_single>
    82e8:	e1a05000 	mov	r5, r0
    82ec:	e1a00006 	mov	r0, r6
    82f0:	eb000437 	bl	93d4 <eqx_refork>
    82f4:	e1a00005 	mov	r0, r5
    82f8:	eb000435 	bl	93d4 <eqx_refork>
    82fc:	e1a00004 	mov	r0, r4
    8300:	eb000433 	bl	93d4 <eqx_refork>
    8304:	eb000477 	bl	94e8 <eqx_run_threads>
    8308:	e1a0100a 	mov	r1, sl
    830c:	e1a00009 	mov	r0, r9
    8310:	eb000917 	bl	a774 <printk>
    8314:	e59f0078 	ldr	r0, [pc, #120]	@ 8394 <notmain+0x158>
    8318:	eb000915 	bl	a774 <printk>
    831c:	e1a00008 	mov	r0, r8
    8320:	eb00042b 	bl	93d4 <eqx_refork>
    8324:	e1a00007 	mov	r0, r7
    8328:	eb000429 	bl	93d4 <eqx_refork>
    832c:	e1a00006 	mov	r0, r6
    8330:	eb000427 	bl	93d4 <eqx_refork>
    8334:	e1a00005 	mov	r0, r5
    8338:	eb000425 	bl	93d4 <eqx_refork>
    833c:	e1a00004 	mov	r0, r4
    8340:	eb000423 	bl	93d4 <eqx_refork>
    8344:	eb000467 	bl	94e8 <eqx_run_threads>
    8348:	e1a0100a 	mov	r1, sl
    834c:	e1a00009 	mov	r0, r9
    8350:	eb000907 	bl	a774 <printk>
    8354:	e59f003c 	ldr	r0, [pc, #60]	@ 8398 <notmain+0x15c>
    8358:	eb000905 	bl	a774 <printk>
    835c:	e8bd87f0 	pop	{r4, r5, r6, r7, r8, r9, sl, pc}
    8360:	70916294 	.word	0x70916294
    8364:	00008108 	.word	0x00008108
    8368:	18e43fb1 	.word	0x18e43fb1
    836c:	00008114 	.word	0x00008114
    8370:	0000c190 	.word	0x0000c190
    8374:	0000b0f0 	.word	0x0000b0f0
    8378:	0000b15c 	.word	0x0000b15c
    837c:	f7e37b42 	.word	0xf7e37b42
    8380:	00008038 	.word	0x00008038
    8384:	984d6fbf 	.word	0x984d6fbf
    8388:	000080a0 	.word	0x000080a0
    838c:	f5ae770b 	.word	0xf5ae770b
    8390:	00008044 	.word	0x00008044
    8394:	0000b174 	.word	0x0000b174
    8398:	0000b18c 	.word	0x0000b18c

0000839c <priv_get_sp_lr_asm>:
    839c:	e121f000 	msr	CPSR_c, r0
    83a0:	e3a03000 	mov	r3, #0
    83a4:	ee073f95 	mcr	15, 0, r3, cr7, cr5, {4}
    83a8:	e8812000 	stm	r1, {sp}
    83ac:	e8824000 	stm	r2, {lr}
    83b0:	f1020013 	cps	#19
    83b4:	e3a03000 	mov	r3, #0
    83b8:	ee073f95 	mcr	15, 0, r3, cr7, cr5, {4}
    83bc:	e12fff1e 	bx	lr
    83c0:	e3a0d409 	mov	sp, #150994944	@ 0x9000000
    83c4:	e24f0004 	sub	r0, pc, #4
    83c8:	e28f1000 	add	r1, pc, #0
    83cc:	ea0009de 	b	ab4c <asm_not_reached_helper>
    83d0:	74697773 	.word	0x74697773
    83d4:	6f746863 	.word	0x6f746863
    83d8:	6d73612d 	.word	0x6d73612d
    83dc:	323a532e 	.word	0x323a532e
    83e0:	4e3c3a35 	.word	0x4e3c3a35
    83e4:	5220544f 	.word	0x5220544f
    83e8:	48434145 	.word	0x48434145
    83ec:	003e4445 	.word	0x003e4445

000083f0 <switchto_user_asm>:
    83f0:	e1a0d000 	mov	sp, r0
    83f4:	e8d07fff 	ldm	r0, {r0, r1, r2, r3, r4, r5, r6, r7, r8, r9, sl, fp, ip, sp, lr}^
    83f8:	e28dd03c 	add	sp, sp, #60	@ 0x3c
    83fc:	f89d0a00 	rfeia	sp
    8400:	e3a0d409 	mov	sp, #150994944	@ 0x9000000
    8404:	e24f0004 	sub	r0, pc, #4
    8408:	e28f1000 	add	r1, pc, #0
    840c:	ea0009ce 	b	ab4c <asm_not_reached_helper>
    8410:	74697773 	.word	0x74697773
    8414:	6f746863 	.word	0x6f746863
    8418:	6d73612d 	.word	0x6d73612d
    841c:	343a532e 	.word	0x343a532e
    8420:	4e3c3a30 	.word	0x4e3c3a30
    8424:	5220544f 	.word	0x5220544f
    8428:	48434145 	.word	0x48434145
    842c:	003e4445 	.word	0x003e4445

00008430 <switchto_priv_asm>:
    8430:	e5901040 	ldr	r1, [r0, #64]	@ 0x40
    8434:	e129f001 	msr	CPSR_fc, r1
    8438:	e3a02000 	mov	r2, #0
    843c:	ee072f95 	mcr	15, 0, r2, cr7, cr5, {4}
    8440:	e890ffff 	ldm	r0, {r0, r1, r2, r3, r4, r5, r6, r7, r8, r9, sl, fp, ip, sp, lr, pc}
    8444:	e3a0d409 	mov	sp, #150994944	@ 0x9000000
    8448:	e24f0004 	sub	r0, pc, #4
    844c:	e28f1000 	add	r1, pc, #0
    8450:	ea0009bd 	b	ab4c <asm_not_reached_helper>
    8454:	74697773 	.word	0x74697773
    8458:	6f746863 	.word	0x6f746863
    845c:	6d73612d 	.word	0x6d73612d
    8460:	353a532e 	.word	0x353a532e
    8464:	4e3c3a30 	.word	0x4e3c3a30
    8468:	5220544f 	.word	0x5220544f
    846c:	48434145 	.word	0x48434145
    8470:	003e4445 	.word	0x003e4445

00008474 <cswitchto_priv_asm>:
    8474:	e5804010 	str	r4, [r0, #16]
    8478:	e5805014 	str	r5, [r0, #20]
    847c:	e5806018 	str	r6, [r0, #24]
    8480:	e580701c 	str	r7, [r0, #28]
    8484:	e5808020 	str	r8, [r0, #32]
    8488:	e5809024 	str	r9, [r0, #36]	@ 0x24
    848c:	e580a028 	str	sl, [r0, #40]	@ 0x28
    8490:	e580b02c 	str	fp, [r0, #44]	@ 0x2c
    8494:	e580d034 	str	sp, [r0, #52]	@ 0x34
    8498:	e580e038 	str	lr, [r0, #56]	@ 0x38
    849c:	e580e03c 	str	lr, [r0, #60]	@ 0x3c
    84a0:	e10f3000 	mrs	r3, CPSR
    84a4:	e5803040 	str	r3, [r0, #64]	@ 0x40
    84a8:	e1a00001 	mov	r0, r1
    84ac:	ebffffdf 	bl	8430 <switchto_priv_asm>
    84b0:	e3a0d409 	mov	sp, #150994944	@ 0x9000000
    84b4:	e24f0004 	sub	r0, pc, #4
    84b8:	e28f1000 	add	r1, pc, #0
    84bc:	ea0009a2 	b	ab4c <asm_not_reached_helper>
    84c0:	74697773 	.word	0x74697773
    84c4:	6f746863 	.word	0x6f746863
    84c8:	6d73612d 	.word	0x6d73612d
    84cc:	393a532e 	.word	0x393a532e
    84d0:	4e3c3a37 	.word	0x4e3c3a37
    84d4:	5220544f 	.word	0x5220544f
    84d8:	48434145 	.word	0x48434145
    84dc:	003e4445 	.word	0x003e4445

000084e0 <cswitchto_user_asm>:
    84e0:	e5804010 	str	r4, [r0, #16]
    84e4:	e5805014 	str	r5, [r0, #20]
    84e8:	e5806018 	str	r6, [r0, #24]
    84ec:	e580701c 	str	r7, [r0, #28]
    84f0:	e5808020 	str	r8, [r0, #32]
    84f4:	e5809024 	str	r9, [r0, #36]	@ 0x24
    84f8:	e580a028 	str	sl, [r0, #40]	@ 0x28
    84fc:	e580b02c 	str	fp, [r0, #44]	@ 0x2c
    8500:	e580d034 	str	sp, [r0, #52]	@ 0x34
    8504:	e580e038 	str	lr, [r0, #56]	@ 0x38
    8508:	e580e03c 	str	lr, [r0, #60]	@ 0x3c
    850c:	e10f3000 	mrs	r3, CPSR
    8510:	e5803040 	str	r3, [r0, #64]	@ 0x40
    8514:	e1a00001 	mov	r0, r1
    8518:	ebffffb4 	bl	83f0 <switchto_user_asm>
    851c:	e3a0d409 	mov	sp, #150994944	@ 0x9000000
    8520:	e24f0004 	sub	r0, pc, #4
    8524:	e28f1000 	add	r1, pc, #0
    8528:	ea000987 	b	ab4c <asm_not_reached_helper>
    852c:	74697773 	.word	0x74697773
    8530:	6f746863 	.word	0x6f746863
    8534:	6d73612d 	.word	0x6d73612d
    8538:	313a532e 	.word	0x313a532e
    853c:	3c3a3233 	.word	0x3c3a3233
    8540:	20544f4e 	.word	0x20544f4e
    8544:	43414552 	.word	0x43414552
    8548:	3e444548 	.word	0x3e444548
	...

00008560 <reset>:
    8560:	e24ee004 	sub	lr, lr, #4
    8564:	e3a0d409 	mov	sp, #150994944	@ 0x9000000
    8568:	e92d5fff 	push	{r0, r1, r2, r3, r4, r5, r6, r7, r8, r9, sl, fp, ip, lr}
    856c:	e1a0000e 	mov	r0, lr
    8570:	eb000a0e 	bl	adb0 <reset_vector>
    8574:	e8bd5fff 	pop	{r0, r1, r2, r3, r4, r5, r6, r7, r8, r9, sl, fp, ip, lr}
    8578:	e1b0f00e 	movs	pc, lr

0000857c <undef>:
    857c:	e24ee004 	sub	lr, lr, #4
    8580:	e3a0d409 	mov	sp, #150994944	@ 0x9000000
    8584:	e92d5fff 	push	{r0, r1, r2, r3, r4, r5, r6, r7, r8, r9, sl, fp, ip, lr}
    8588:	e1a0000e 	mov	r0, lr
    858c:	eb000a13 	bl	ade0 <undefined_instruction_vector>
    8590:	e8bd5fff 	pop	{r0, r1, r2, r3, r4, r5, r6, r7, r8, r9, sl, fp, ip, lr}
    8594:	e1b0f00e 	movs	pc, lr

00008598 <prefetch_abort>:
    8598:	e24ee004 	sub	lr, lr, #4
    859c:	e3a0d409 	mov	sp, #150994944	@ 0x9000000
    85a0:	e92d5fff 	push	{r0, r1, r2, r3, r4, r5, r6, r7, r8, r9, sl, fp, ip, lr}
    85a4:	e1a0000e 	mov	r0, lr
    85a8:	eb0009f4 	bl	ad80 <prefetch_abort_vector>
    85ac:	e8bd5fff 	pop	{r0, r1, r2, r3, r4, r5, r6, r7, r8, r9, sl, fp, ip, lr}
    85b0:	e1b0f00e 	movs	pc, lr

000085b4 <interrupt>:
    85b4:	e24ee004 	sub	lr, lr, #4
    85b8:	e3a0d409 	mov	sp, #150994944	@ 0x9000000
    85bc:	e92d5fff 	push	{r0, r1, r2, r3, r4, r5, r6, r7, r8, r9, sl, fp, ip, lr}
    85c0:	e1a0000e 	mov	r0, lr
    85c4:	eb0009e1 	bl	ad50 <int_vector>
    85c8:	e8bd5fff 	pop	{r0, r1, r2, r3, r4, r5, r6, r7, r8, r9, sl, fp, ip, lr}
    85cc:	e1b0f00e 	movs	pc, lr

000085d0 <prefetch_handler_full>:
    85d0:	e3a0d409 	mov	sp, #150994944	@ 0x9000000
    85d4:	e24ee004 	sub	lr, lr, #4
    85d8:	e24dd044 	sub	sp, sp, #68	@ 0x44
    85dc:	e8cd7fff 	stmia	sp, {r0, r1, r2, r3, r4, r5, r6, r7, r8, r9, sl, fp, ip, sp, lr}^
    85e0:	e58de03c 	str	lr, [sp, #60]	@ 0x3c
    85e4:	e1a0200e 	mov	r2, lr
    85e8:	e14f1000 	mrs	r1, SPSR
    85ec:	e58d1040 	str	r1, [sp, #64]	@ 0x40
    85f0:	e1a0000d 	mov	r0, sp
    85f4:	eb0004ce 	bl	9934 <prefetch_abort_full_except>
    85f8:	e3a0d409 	mov	sp, #150994944	@ 0x9000000
    85fc:	e24f0004 	sub	r0, pc, #4
    8600:	e28f1000 	add	r1, pc, #0
    8604:	ea000950 	b	ab4c <asm_not_reached_helper>
    8608:	6c6c7566 	.word	0x6c6c7566
    860c:	6378652d 	.word	0x6378652d
    8610:	2d747065 	.word	0x2d747065
    8614:	2e6d7361 	.word	0x2e6d7361
    8618:	38393a53 	.word	0x38393a53
    861c:	4f4e3c3a 	.word	0x4f4e3c3a
    8620:	45522054 	.word	0x45522054
    8624:	45484341 	.word	0x45484341
    8628:	3e44      	.short	0x3e44
	...

0000862c <data_abort_full>:
    862c:	e3a0d409 	mov	sp, #150994944	@ 0x9000000
    8630:	e24ee008 	sub	lr, lr, #8
    8634:	e24dd044 	sub	sp, sp, #68	@ 0x44
    8638:	e8cd7fff 	stmia	sp, {r0, r1, r2, r3, r4, r5, r6, r7, r8, r9, sl, fp, ip, sp, lr}^
    863c:	e58de03c 	str	lr, [sp, #60]	@ 0x3c
    8640:	e1a0200e 	mov	r2, lr
    8644:	e14f1000 	mrs	r1, SPSR
    8648:	e58d1040 	str	r1, [sp, #64]	@ 0x40
    864c:	e1a0000d 	mov	r0, sp
    8650:	eb0004e9 	bl	99fc <data_abort_full_except>
    8654:	e3a0d409 	mov	sp, #150994944	@ 0x9000000
    8658:	e24f0004 	sub	r0, pc, #4
    865c:	e28f1000 	add	r1, pc, #0
    8660:	ea000939 	b	ab4c <asm_not_reached_helper>
    8664:	6c6c7566 	.word	0x6c6c7566
    8668:	6378652d 	.word	0x6378652d
    866c:	2d747065 	.word	0x2d747065
    8670:	2e6d7361 	.word	0x2e6d7361
    8674:	31313a53 	.word	0x31313a53
    8678:	4e3c3a38 	.word	0x4e3c3a38
    867c:	5220544f 	.word	0x5220544f
    8680:	48434145 	.word	0x48434145
    8684:	003e4445 	.word	0x003e4445

00008688 <syscall_full>:
    8688:	e3a0d409 	mov	sp, #150994944	@ 0x9000000
    868c:	e24dd044 	sub	sp, sp, #68	@ 0x44
    8690:	e8cd7fff 	stmia	sp, {r0, r1, r2, r3, r4, r5, r6, r7, r8, r9, sl, fp, ip, sp, lr}^
    8694:	e58de03c 	str	lr, [sp, #60]	@ 0x3c
    8698:	e1a0200e 	mov	r2, lr
    869c:	e14f1000 	mrs	r1, SPSR
    86a0:	e58d1040 	str	r1, [sp, #64]	@ 0x40
    86a4:	e1a0000d 	mov	r0, sp
    86a8:	eb000505 	bl	9ac4 <syscall_full_except>
    86ac:	e3a0d409 	mov	sp, #150994944	@ 0x9000000
    86b0:	e24f0004 	sub	r0, pc, #4
    86b4:	e28f1000 	add	r1, pc, #0
    86b8:	ea000923 	b	ab4c <asm_not_reached_helper>
    86bc:	6c6c7566 	.word	0x6c6c7566
    86c0:	6378652d 	.word	0x6378652d
    86c4:	2d747065 	.word	0x2d747065
    86c8:	2e6d7361 	.word	0x2e6d7361
    86cc:	34313a53 	.word	0x34313a53
    86d0:	4e3c3a31 	.word	0x4e3c3a31
    86d4:	5220544f 	.word	0x5220544f
    86d8:	48434145 	.word	0x48434145
    86dc:	003e4445 	.word	0x003e4445

000086e0 <full_except_ints>:
    86e0:	eaffff9e 	b	8560 <reset>
    86e4:	eaffffa4 	b	857c <undef>
    86e8:	eaffffe6 	b	8688 <syscall_full>
    86ec:	eaffffb7 	b	85d0 <prefetch_handler_full>
    86f0:	eaffffcd 	b	862c <data_abort_full>
    86f4:	eaffff99 	b	8560 <reset>
    86f8:	eaffffad 	b	85b4 <interrupt>
    86fc:	eaffffff 	b	8700 <bad_exception>

00008700 <bad_exception>:
    8700:	e3a0d409 	mov	sp, #150994944	@ 0x9000000
    8704:	e24f0004 	sub	r0, pc, #4
    8708:	e28f1000 	add	r1, pc, #0
    870c:	ea00092f 	b	abd0 <asm_bad_exception_helper>
    8710:	6c6c7566 	.word	0x6c6c7566
    8714:	6378652d 	.word	0x6378652d
    8718:	2d747065 	.word	0x2d747065
    871c:	2e6d7361 	.word	0x2e6d7361
    8720:	36313a53 	.word	0x36313a53
    8724:	223c3a33 	.word	0x223c3a33
    8728:	756f6873 	.word	0x756f6873
    872c:	6e20646c 	.word	0x6e20646c
    8730:	7220746f 	.word	0x7220746f
    8734:	68636165 	.word	0x68636165
    8738:	72656820 	.word	0x72656820
    873c:	003e2265 	.word	0x003e2265

00008740 <syscall_trampoline>:
    8740:	e52de004 	push	{lr}		@ (str lr, [sp, #-4]!)
    8744:	ef000001 	svc	0x00000001
    8748:	e49de004 	pop	{lr}		@ (ldr lr, [sp], #4)
    874c:	e12fff1e 	bx	lr

00008750 <fast_hash_inc32>:
    8750:	e3500000 	cmp	r0, #0
    8754:	13510000 	cmpne	r1, #0
    8758:	0a000034 	beq	8830 <fast_hash_inc32+0xe0>
    875c:	e52de004 	push	{lr}		@ (str lr, [sp, #-4]!)
    8760:	e1a0c000 	mov	ip, r0
    8764:	e201e003 	and	lr, r1, #3
    8768:	e1a01121 	lsr	r1, r1, #2
    876c:	ea00000b 	b	87a0 <fast_hash_inc32+0x50>
    8770:	e5dc0001 	ldrb	r0, [ip, #1]
    8774:	e5dc3000 	ldrb	r3, [ip]
    8778:	e1833400 	orr	r3, r3, r0, lsl #8
    877c:	e0823003 	add	r3, r2, r3
    8780:	e5dc0003 	ldrb	r0, [ip, #3]
    8784:	e5dc2002 	ldrb	r2, [ip, #2]
    8788:	e1822400 	orr	r2, r2, r0, lsl #8
    878c:	e0232582 	eor	r2, r3, r2, lsl #11
    8790:	e0222803 	eor	r2, r2, r3, lsl #16
    8794:	e28cc004 	add	ip, ip, #4
    8798:	e08225a2 	add	r2, r2, r2, lsr #11
    879c:	e2411001 	sub	r1, r1, #1
    87a0:	e3510000 	cmp	r1, #0
    87a4:	1afffff1 	bne	8770 <fast_hash_inc32+0x20>
    87a8:	e35e0002 	cmp	lr, #2
    87ac:	0a000013 	beq	8800 <fast_hash_inc32+0xb0>
    87b0:	e35e0003 	cmp	lr, #3
    87b4:	0a000008 	beq	87dc <fast_hash_inc32+0x8c>
    87b8:	e35e0001 	cmp	lr, #1
    87bc:	0a000016 	beq	881c <fast_hash_inc32+0xcc>
    87c0:	e0220182 	eor	r0, r2, r2, lsl #3
    87c4:	e08002a0 	add	r0, r0, r0, lsr #5
    87c8:	e0200200 	eor	r0, r0, r0, lsl #4
    87cc:	e08008a0 	add	r0, r0, r0, lsr #17
    87d0:	e0200c80 	eor	r0, r0, r0, lsl #25
    87d4:	e0800320 	add	r0, r0, r0, lsr #6
    87d8:	e49df004 	pop	{pc}		@ (ldr pc, [sp], #4)
    87dc:	e5dc1001 	ldrb	r1, [ip, #1]
    87e0:	e5dc3000 	ldrb	r3, [ip]
    87e4:	e1833401 	orr	r3, r3, r1, lsl #8
    87e8:	e0823003 	add	r3, r2, r3
    87ec:	e0233803 	eor	r3, r3, r3, lsl #16
    87f0:	e1dc20d2 	ldrsb	r2, [ip, #2]
    87f4:	e0233902 	eor	r3, r3, r2, lsl #18
    87f8:	e08325a3 	add	r2, r3, r3, lsr #11
    87fc:	eaffffef 	b	87c0 <fast_hash_inc32+0x70>
    8800:	e5dc1001 	ldrb	r1, [ip, #1]
    8804:	e5dc3000 	ldrb	r3, [ip]
    8808:	e1833401 	orr	r3, r3, r1, lsl #8
    880c:	e0823003 	add	r3, r2, r3
    8810:	e0233583 	eor	r3, r3, r3, lsl #11
    8814:	e08328a3 	add	r2, r3, r3, lsr #17
    8818:	eaffffe8 	b	87c0 <fast_hash_inc32+0x70>
    881c:	e1dc30d0 	ldrsb	r3, [ip]
    8820:	e0833002 	add	r3, r3, r2
    8824:	e0233503 	eor	r3, r3, r3, lsl #10
    8828:	e08320a3 	add	r2, r3, r3, lsr #1
    882c:	eaffffe3 	b	87c0 <fast_hash_inc32+0x70>
    8830:	e3a00000 	mov	r0, #0
    8834:	e12fff1e 	bx	lr

00008838 <mode_legal>:
    8838:	e350001f 	cmp	r0, #31
    883c:	8a000005 	bhi	8858 <mode_legal+0x20>
    8840:	e59f3038 	ldr	r3, [pc, #56]	@ 8880 <mode_legal+0x48>
    8844:	e1a03033 	lsr	r3, r3, r0
    8848:	e3130001 	tst	r3, #1
    884c:	0a000001 	beq	8858 <mode_legal+0x20>
    8850:	e3a00001 	mov	r0, #1
    8854:	e12fff1e 	bx	lr
    8858:	e52de004 	push	{lr}		@ (str lr, [sp, #-4]!)
    885c:	e24dd00c 	sub	sp, sp, #12
    8860:	e58d0004 	str	r0, [sp, #4]
    8864:	e58d0000 	str	r0, [sp]
    8868:	e3a03013 	mov	r3, #19
    886c:	e59f2010 	ldr	r2, [pc, #16]	@ 8884 <mode_legal+0x4c>
    8870:	e59f1010 	ldr	r1, [pc, #16]	@ 8888 <mode_legal+0x50>
    8874:	e59f0010 	ldr	r0, [pc, #16]	@ 888c <mode_legal+0x54>
    8878:	eb0007bd 	bl	a774 <printk>
    887c:	eb0008d9 	bl	abe8 <clean_reboot>
    8880:	888d0000 	.word	0x888d0000
    8884:	0000c198 	.word	0x0000c198
    8888:	0000b1a4 	.word	0x0000b1a4
    888c:	0000b1f0 	.word	0x0000b1f0

00008890 <bits_mask>:
    8890:	e3500020 	cmp	r0, #32
    8894:	0a00000f 	beq	88d8 <bits_mask+0x48>
    8898:	e350001f 	cmp	r0, #31
    889c:	8a000003 	bhi	88b0 <bits_mask+0x20>
    88a0:	e3a03001 	mov	r3, #1
    88a4:	e1a00013 	lsl	r0, r3, r0
    88a8:	e2400001 	sub	r0, r0, #1
    88ac:	e12fff1e 	bx	lr
    88b0:	e52de004 	push	{lr}		@ (str lr, [sp, #-4]!)
    88b4:	e24dd00c 	sub	sp, sp, #12
    88b8:	e59f3020 	ldr	r3, [pc, #32]	@ 88e0 <bits_mask+0x50>
    88bc:	e58d3000 	str	r3, [sp]
    88c0:	e3a03033 	mov	r3, #51	@ 0x33
    88c4:	e59f2018 	ldr	r2, [pc, #24]	@ 88e4 <bits_mask+0x54>
    88c8:	e59f1018 	ldr	r1, [pc, #24]	@ 88e8 <bits_mask+0x58>
    88cc:	e59f0018 	ldr	r0, [pc, #24]	@ 88ec <bits_mask+0x5c>
    88d0:	eb0007a7 	bl	a774 <printk>
    88d4:	eb0008c3 	bl	abe8 <clean_reboot>
    88d8:	e3e00000 	mvn	r0, #0
    88dc:	e12fff1e 	bx	lr
    88e0:	0000b298 	.word	0x0000b298
    88e4:	0000c1a4 	.word	0x0000c1a4
    88e8:	0000b21c 	.word	0x0000b21c
    88ec:	0000b268 	.word	0x0000b268

000088f0 <bits_clr>:
    88f0:	e92d4030 	push	{r4, r5, lr}
    88f4:	e24dd00c 	sub	sp, sp, #12
    88f8:	e1510002 	cmp	r1, r2
    88fc:	8a000009 	bhi	8928 <bits_clr+0x38>
    8900:	e1a05000 	mov	r5, r0
    8904:	e1a04001 	mov	r4, r1
    8908:	e352001f 	cmp	r2, #31
    890c:	8a00000d 	bhi	8948 <bits_clr+0x58>
    8910:	e0422001 	sub	r2, r2, r1
    8914:	e2820001 	add	r0, r2, #1
    8918:	ebffffdc 	bl	8890 <bits_mask>
    891c:	e1c50410 	bic	r0, r5, r0, lsl r4
    8920:	e28dd00c 	add	sp, sp, #12
    8924:	e8bd8030 	pop	{r4, r5, pc}
    8928:	e59f3038 	ldr	r3, [pc, #56]	@ 8968 <bits_clr+0x78>
    892c:	e58d3000 	str	r3, [sp]
    8930:	e3a03042 	mov	r3, #66	@ 0x42
    8934:	e59f2030 	ldr	r2, [pc, #48]	@ 896c <bits_clr+0x7c>
    8938:	e59f1030 	ldr	r1, [pc, #48]	@ 8970 <bits_clr+0x80>
    893c:	e59f0030 	ldr	r0, [pc, #48]	@ 8974 <bits_clr+0x84>
    8940:	eb00078b 	bl	a774 <printk>
    8944:	eb0008a7 	bl	abe8 <clean_reboot>
    8948:	e59f3028 	ldr	r3, [pc, #40]	@ 8978 <bits_clr+0x88>
    894c:	e58d3000 	str	r3, [sp]
    8950:	e3a03043 	mov	r3, #67	@ 0x43
    8954:	e59f2010 	ldr	r2, [pc, #16]	@ 896c <bits_clr+0x7c>
    8958:	e59f1010 	ldr	r1, [pc, #16]	@ 8970 <bits_clr+0x80>
    895c:	e59f0010 	ldr	r0, [pc, #16]	@ 8974 <bits_clr+0x84>
    8960:	eb000783 	bl	a774 <printk>
    8964:	eb00089f 	bl	abe8 <clean_reboot>
    8968:	0000b2b0 	.word	0x0000b2b0
    896c:	0000c1b0 	.word	0x0000c1b0
    8970:	0000b21c 	.word	0x0000b21c
    8974:	0000b268 	.word	0x0000b268
    8978:	0000b2bc 	.word	0x0000b2bc

0000897c <mode_set>:
    897c:	e92d4030 	push	{r4, r5, lr}
    8980:	e24dd00c 	sub	sp, sp, #12
    8984:	e1a05000 	mov	r5, r0
    8988:	e1a04001 	mov	r4, r1
    898c:	e1a00001 	mov	r0, r1
    8990:	ebffffa8 	bl	8838 <mode_legal>
    8994:	e3500000 	cmp	r0, #0
    8998:	0a000006 	beq	89b8 <mode_set+0x3c>
    899c:	e3a02004 	mov	r2, #4
    89a0:	e3a01000 	mov	r1, #0
    89a4:	e1a00005 	mov	r0, r5
    89a8:	ebffffd0 	bl	88f0 <bits_clr>
    89ac:	e1800004 	orr	r0, r0, r4
    89b0:	e28dd00c 	add	sp, sp, #12
    89b4:	e8bd8030 	pop	{r4, r5, pc}
    89b8:	e59f3018 	ldr	r3, [pc, #24]	@ 89d8 <mode_set+0x5c>
    89bc:	e58d3000 	str	r3, [sp]
    89c0:	e3a0301f 	mov	r3, #31
    89c4:	e59f2010 	ldr	r2, [pc, #16]	@ 89dc <mode_set+0x60>
    89c8:	e59f1010 	ldr	r1, [pc, #16]	@ 89e0 <mode_set+0x64>
    89cc:	e59f0010 	ldr	r0, [pc, #16]	@ 89e4 <mode_set+0x68>
    89d0:	eb000767 	bl	a774 <printk>
    89d4:	eb000883 	bl	abe8 <clean_reboot>
    89d8:	0000b2c4 	.word	0x0000b2c4
    89dc:	0000c1bc 	.word	0x0000c1bc
    89e0:	0000b1a4 	.word	0x0000b1a4
    89e4:	0000b268 	.word	0x0000b268

000089e8 <cpsr_inherit>:
    89e8:	e92d4030 	push	{r4, r5, lr}
    89ec:	e24dd00c 	sub	sp, sp, #12
    89f0:	e1a04000 	mov	r4, r0
    89f4:	e1a05001 	mov	r5, r1
    89f8:	ebffff8e 	bl	8838 <mode_legal>
    89fc:	e3500000 	cmp	r0, #0
    8a00:	0a000007 	beq	8a24 <cpsr_inherit+0x3c>
    8a04:	e3a0201f 	mov	r2, #31
    8a08:	e3a0101c 	mov	r1, #28
    8a0c:	e1a00005 	mov	r0, r5
    8a10:	ebffffb6 	bl	88f0 <bits_clr>
    8a14:	e1a01004 	mov	r1, r4
    8a18:	ebffffd7 	bl	897c <mode_set>
    8a1c:	e28dd00c 	add	sp, sp, #12
    8a20:	e8bd8030 	pop	{r4, r5, pc}
    8a24:	e59f3018 	ldr	r3, [pc, #24]	@ 8a44 <cpsr_inherit+0x5c>
    8a28:	e58d3000 	str	r3, [sp]
    8a2c:	e3a03041 	mov	r3, #65	@ 0x41
    8a30:	e59f2010 	ldr	r2, [pc, #16]	@ 8a48 <cpsr_inherit+0x60>
    8a34:	e59f1010 	ldr	r1, [pc, #16]	@ 8a4c <cpsr_inherit+0x64>
    8a38:	e59f0010 	ldr	r0, [pc, #16]	@ 8a50 <cpsr_inherit+0x68>
    8a3c:	eb00074c 	bl	a774 <printk>
    8a40:	eb000868 	bl	abe8 <clean_reboot>
    8a44:	0000b2c4 	.word	0x0000b2c4
    8a48:	0000c1c8 	.word	0x0000c1c8
    8a4c:	0000b1a4 	.word	0x0000b1a4
    8a50:	0000b268 	.word	0x0000b268

00008a54 <eqx_check_sp>:
    8a54:	e52de004 	push	{lr}		@ (str lr, [sp, #-4]!)
    8a58:	e24dd00c 	sub	sp, sp, #12
    8a5c:	e5903034 	ldr	r3, [r0, #52]	@ 0x34
    8a60:	e590205c 	ldr	r2, [r0, #92]	@ 0x5c
    8a64:	e1520003 	cmp	r2, r3
    8a68:	8a000005 	bhi	8a84 <eqx_check_sp+0x30>
    8a6c:	e5902060 	ldr	r2, [r0, #96]	@ 0x60
    8a70:	e1520003 	cmp	r2, r3
    8a74:	3a00000a 	bcc	8aa4 <eqx_check_sp+0x50>
    8a78:	e3a00001 	mov	r0, #1
    8a7c:	e28dd00c 	add	sp, sp, #12
    8a80:	e49df004 	pop	{pc}		@ (ldr pc, [sp], #4)
    8a84:	e58d2004 	str	r2, [sp, #4]
    8a88:	e58d3000 	str	r3, [sp]
    8a8c:	e3a03049 	mov	r3, #73	@ 0x49
    8a90:	e59f202c 	ldr	r2, [pc, #44]	@ 8ac4 <eqx_check_sp+0x70>
    8a94:	e59f102c 	ldr	r1, [pc, #44]	@ 8ac8 <eqx_check_sp+0x74>
    8a98:	e59f002c 	ldr	r0, [pc, #44]	@ 8acc <eqx_check_sp+0x78>
    8a9c:	eb000734 	bl	a774 <printk>
    8aa0:	eb000850 	bl	abe8 <clean_reboot>
    8aa4:	e58d2004 	str	r2, [sp, #4]
    8aa8:	e58d3000 	str	r3, [sp]
    8aac:	e3a0304c 	mov	r3, #76	@ 0x4c
    8ab0:	e59f200c 	ldr	r2, [pc, #12]	@ 8ac4 <eqx_check_sp+0x70>
    8ab4:	e59f100c 	ldr	r1, [pc, #12]	@ 8ac8 <eqx_check_sp+0x74>
    8ab8:	e59f0010 	ldr	r0, [pc, #16]	@ 8ad0 <eqx_check_sp+0x7c>
    8abc:	eb00072c 	bl	a774 <printk>
    8ac0:	eb000848 	bl	abe8 <clean_reboot>
    8ac4:	0000c1d8 	.word	0x0000c1d8
    8ac8:	0000b2d8 	.word	0x0000b2d8
    8acc:	0000b2e8 	.word	0x0000b2e8
    8ad0:	0000b324 	.word	0x0000b324

00008ad4 <eqx_regs_init>:
    8ad4:	e92d40f0 	push	{r4, r5, r6, r7, lr}
    8ad8:	e24dd04c 	sub	sp, sp, #76	@ 0x4c
    8adc:	e1a04000 	mov	r4, r0
    8ae0:	e10f1000 	mrs	r1, CPSR
    8ae4:	e3a00010 	mov	r0, #16
    8ae8:	ebffffbe 	bl	89e8 <cpsr_inherit>
    8aec:	e1a05000 	mov	r5, r0
    8af0:	e28d6004 	add	r6, sp, #4
    8af4:	e3a07044 	mov	r7, #68	@ 0x44
    8af8:	e1a02007 	mov	r2, r7
    8afc:	e3a01000 	mov	r1, #0
    8b00:	e1a00006 	mov	r0, r6
    8b04:	eb0006f4 	bl	a6dc <memset>
    8b08:	e5943058 	ldr	r3, [r4, #88]	@ 0x58
    8b0c:	e58d3004 	str	r3, [sp, #4]
    8b10:	e5943060 	ldr	r3, [r4, #96]	@ 0x60
    8b14:	e58d3038 	str	r3, [sp, #56]	@ 0x38
    8b18:	e59f304c 	ldr	r3, [pc, #76]	@ 8b6c <eqx_regs_init+0x98>
    8b1c:	e58d303c 	str	r3, [sp, #60]	@ 0x3c
    8b20:	e5943054 	ldr	r3, [r4, #84]	@ 0x54
    8b24:	e58d3040 	str	r3, [sp, #64]	@ 0x40
    8b28:	e58d5044 	str	r5, [sp, #68]	@ 0x44
    8b2c:	e1a02007 	mov	r2, r7
    8b30:	e1a01006 	mov	r1, r6
    8b34:	e1a00004 	mov	r0, r4
    8b38:	eb0006bc 	bl	a630 <memcpy>
    8b3c:	e1a00004 	mov	r0, r4
    8b40:	ebffffc3 	bl	8a54 <eqx_check_sp>
    8b44:	e3500000 	cmp	r0, #0
    8b48:	0a000001 	beq	8b54 <eqx_regs_init+0x80>
    8b4c:	e28dd04c 	add	sp, sp, #76	@ 0x4c
    8b50:	e8bd80f0 	pop	{r4, r5, r6, r7, pc}
    8b54:	e3a03075 	mov	r3, #117	@ 0x75
    8b58:	e59f2010 	ldr	r2, [pc, #16]	@ 8b70 <eqx_regs_init+0x9c>
    8b5c:	e59f1010 	ldr	r1, [pc, #16]	@ 8b74 <eqx_regs_init+0xa0>
    8b60:	e59f0010 	ldr	r0, [pc, #16]	@ 8b78 <eqx_regs_init+0xa4>
    8b64:	eb000702 	bl	a774 <printk>
    8b68:	eb00081e 	bl	abe8 <clean_reboot>
    8b6c:	00008120 	.word	0x00008120
    8b70:	0000c1e8 	.word	0x0000c1e8
    8b74:	0000b2d8 	.word	0x0000b2d8
    8b78:	0000b360 	.word	0x0000b360

00008b7c <bits_get>:
    8b7c:	e92d4010 	push	{r4, lr}
    8b80:	e24dd008 	sub	sp, sp, #8
    8b84:	e1510002 	cmp	r1, r2
    8b88:	8a000008 	bhi	8bb0 <bits_get+0x34>
    8b8c:	e352001f 	cmp	r2, #31
    8b90:	8a00000e 	bhi	8bd0 <bits_get+0x54>
    8b94:	e1a04130 	lsr	r4, r0, r1
    8b98:	e0422001 	sub	r2, r2, r1
    8b9c:	e2820001 	add	r0, r2, #1
    8ba0:	ebffff3a 	bl	8890 <bits_mask>
    8ba4:	e0000004 	and	r0, r0, r4
    8ba8:	e28dd008 	add	sp, sp, #8
    8bac:	e8bd8010 	pop	{r4, pc}
    8bb0:	e59f3038 	ldr	r3, [pc, #56]	@ 8bf0 <bits_get+0x74>
    8bb4:	e58d3000 	str	r3, [sp]
    8bb8:	e3a0303a 	mov	r3, #58	@ 0x3a
    8bbc:	e59f2030 	ldr	r2, [pc, #48]	@ 8bf4 <bits_get+0x78>
    8bc0:	e59f1030 	ldr	r1, [pc, #48]	@ 8bf8 <bits_get+0x7c>
    8bc4:	e59f0030 	ldr	r0, [pc, #48]	@ 8bfc <bits_get+0x80>
    8bc8:	eb0006e9 	bl	a774 <printk>
    8bcc:	eb000805 	bl	abe8 <clean_reboot>
    8bd0:	e59f3028 	ldr	r3, [pc, #40]	@ 8c00 <bits_get+0x84>
    8bd4:	e58d3000 	str	r3, [sp]
    8bd8:	e3a0303b 	mov	r3, #59	@ 0x3b
    8bdc:	e59f2010 	ldr	r2, [pc, #16]	@ 8bf4 <bits_get+0x78>
    8be0:	e59f1010 	ldr	r1, [pc, #16]	@ 8bf8 <bits_get+0x7c>
    8be4:	e59f0010 	ldr	r0, [pc, #16]	@ 8bfc <bits_get+0x80>
    8be8:	eb0006e1 	bl	a774 <printk>
    8bec:	eb0007fd 	bl	abe8 <clean_reboot>
    8bf0:	0000b2b0 	.word	0x0000b2b0
    8bf4:	0000c1f8 	.word	0x0000c1f8
    8bf8:	0000b21c 	.word	0x0000b21c
    8bfc:	0000b268 	.word	0x0000b268
    8c00:	0000b2bc 	.word	0x0000b2bc

00008c04 <mode_get>:
    8c04:	e92d4010 	push	{r4, lr}
    8c08:	e24dd008 	sub	sp, sp, #8
    8c0c:	e3a02004 	mov	r2, #4
    8c10:	e3a01000 	mov	r1, #0
    8c14:	ebffffd8 	bl	8b7c <bits_get>
    8c18:	e1a04000 	mov	r4, r0
    8c1c:	ebffff05 	bl	8838 <mode_legal>
    8c20:	e3500000 	cmp	r0, #0
    8c24:	0a000002 	beq	8c34 <mode_get+0x30>
    8c28:	e1a00004 	mov	r0, r4
    8c2c:	e28dd008 	add	sp, sp, #8
    8c30:	e8bd8010 	pop	{r4, pc}
    8c34:	e59f3018 	ldr	r3, [pc, #24]	@ 8c54 <mode_get+0x50>
    8c38:	e58d3000 	str	r3, [sp]
    8c3c:	e3a03019 	mov	r3, #25
    8c40:	e59f2010 	ldr	r2, [pc, #16]	@ 8c58 <mode_get+0x54>
    8c44:	e59f1010 	ldr	r1, [pc, #16]	@ 8c5c <mode_get+0x58>
    8c48:	e59f0010 	ldr	r0, [pc, #16]	@ 8c60 <mode_get+0x5c>
    8c4c:	eb0006c8 	bl	a774 <printk>
    8c50:	eb0007e4 	bl	abe8 <clean_reboot>
    8c54:	0000b2c4 	.word	0x0000b2c4
    8c58:	0000c204 	.word	0x0000c204
    8c5c:	0000b1a4 	.word	0x0000b1a4
    8c60:	0000b268 	.word	0x0000b268

00008c64 <eqx_th_empty>:
    8c64:	e5903000 	ldr	r3, [r0]
    8c68:	e3530000 	cmp	r3, #0
    8c6c:	0a000001 	beq	8c78 <eqx_th_empty+0x14>
    8c70:	e3a00000 	mov	r0, #0
    8c74:	e12fff1e 	bx	lr
    8c78:	e5903004 	ldr	r3, [r0, #4]
    8c7c:	e3530000 	cmp	r3, #0
    8c80:	1a000001 	bne	8c8c <eqx_th_empty+0x28>
    8c84:	e3a00001 	mov	r0, #1
    8c88:	e12fff1e 	bx	lr
    8c8c:	e52de004 	push	{lr}		@ (str lr, [sp, #-4]!)
    8c90:	e24dd00c 	sub	sp, sp, #12
    8c94:	e59f3018 	ldr	r3, [pc, #24]	@ 8cb4 <eqx_th_empty+0x50>
    8c98:	e58d3000 	str	r3, [sp]
    8c9c:	e3a03038 	mov	r3, #56	@ 0x38
    8ca0:	e59f2010 	ldr	r2, [pc, #16]	@ 8cb8 <eqx_th_empty+0x54>
    8ca4:	e59f1010 	ldr	r1, [pc, #16]	@ 8cbc <eqx_th_empty+0x58>
    8ca8:	e59f0010 	ldr	r0, [pc, #16]	@ 8cc0 <eqx_th_empty+0x5c>
    8cac:	eb0006b0 	bl	a774 <printk>
    8cb0:	eb0007cc 	bl	abe8 <clean_reboot>
    8cb4:	0000b3c0 	.word	0x0000b3c0
    8cb8:	0000c210 	.word	0x0000c210
    8cbc:	0000b2d8 	.word	0x0000b2d8
    8cc0:	0000b38c 	.word	0x0000b38c

00008cc4 <eqx_th_pop>:
    8cc4:	e92d4010 	push	{r4, lr}
    8cc8:	e24dd008 	sub	sp, sp, #8
    8ccc:	e3500000 	cmp	r0, #0
    8cd0:	0a000009 	beq	8cfc <eqx_th_pop+0x38>
    8cd4:	e5904000 	ldr	r4, [r0]
    8cd8:	e3540000 	cmp	r4, #0
    8cdc:	0a00000e 	beq	8d1c <eqx_th_pop+0x58>
    8ce0:	e5943044 	ldr	r3, [r4, #68]	@ 0x44
    8ce4:	e5803000 	str	r3, [r0]
    8ce8:	e3530000 	cmp	r3, #0
    8cec:	0a000015 	beq	8d48 <eqx_th_pop+0x84>
    8cf0:	e1a00004 	mov	r0, r4
    8cf4:	e28dd008 	add	sp, sp, #8
    8cf8:	e8bd8010 	pop	{r4, pc}
    8cfc:	e59f304c 	ldr	r3, [pc, #76]	@ 8d50 <eqx_th_pop+0x8c>
    8d00:	e58d3000 	str	r3, [sp]
    8d04:	e3a03038 	mov	r3, #56	@ 0x38
    8d08:	e59f2044 	ldr	r2, [pc, #68]	@ 8d54 <eqx_th_pop+0x90>
    8d0c:	e59f1044 	ldr	r1, [pc, #68]	@ 8d58 <eqx_th_pop+0x94>
    8d10:	e59f0044 	ldr	r0, [pc, #68]	@ 8d5c <eqx_th_pop+0x98>
    8d14:	eb000696 	bl	a774 <printk>
    8d18:	eb0007b2 	bl	abe8 <clean_reboot>
    8d1c:	ebffffd0 	bl	8c64 <eqx_th_empty>
    8d20:	e3500000 	cmp	r0, #0
    8d24:	1afffff1 	bne	8cf0 <eqx_th_pop+0x2c>
    8d28:	e59f3030 	ldr	r3, [pc, #48]	@ 8d60 <eqx_th_pop+0x9c>
    8d2c:	e58d3000 	str	r3, [sp]
    8d30:	e3a03038 	mov	r3, #56	@ 0x38
    8d34:	e59f2018 	ldr	r2, [pc, #24]	@ 8d54 <eqx_th_pop+0x90>
    8d38:	e59f1018 	ldr	r1, [pc, #24]	@ 8d58 <eqx_th_pop+0x94>
    8d3c:	e59f0020 	ldr	r0, [pc, #32]	@ 8d64 <eqx_th_pop+0xa0>
    8d40:	eb00068b 	bl	a774 <printk>
    8d44:	eb0007a7 	bl	abe8 <clean_reboot>
    8d48:	e5803004 	str	r3, [r0, #4]
    8d4c:	eaffffe7 	b	8cf0 <eqx_th_pop+0x2c>
    8d50:	0000b400 	.word	0x0000b400
    8d54:	0000c220 	.word	0x0000c220
    8d58:	0000b2d8 	.word	0x0000b2d8
    8d5c:	0000b3cc 	.word	0x0000b3cc
    8d60:	0000b404 	.word	0x0000b404
    8d64:	0000b268 	.word	0x0000b268

00008d68 <switchto>:
    8d68:	e92d4010 	push	{r4, lr}
    8d6c:	e1a04000 	mov	r4, r0
    8d70:	e5900040 	ldr	r0, [r0, #64]	@ 0x40
    8d74:	ebffffa2 	bl	8c04 <mode_get>
    8d78:	e3500010 	cmp	r0, #16
    8d7c:	0a000001 	beq	8d88 <switchto+0x20>
    8d80:	e1a00004 	mov	r0, r4
    8d84:	ebfffda9 	bl	8430 <switchto_priv_asm>
    8d88:	e1a00004 	mov	r0, r4
    8d8c:	ebfffd97 	bl	83f0 <switchto_user_asm>

00008d90 <brkpt_run_one_inst>:
    8d90:	e92d4010 	push	{r4, lr}
    8d94:	e1a04000 	mov	r4, r0
    8d98:	e590003c 	ldr	r0, [r0, #60]	@ 0x3c
    8d9c:	eb00043b 	bl	9e90 <brkpt_mismatch_set>
    8da0:	eb0005d8 	bl	a508 <uart_can_put8>
    8da4:	e3500000 	cmp	r0, #0
    8da8:	0afffffc 	beq	8da0 <brkpt_run_one_inst+0x10>
    8dac:	e1a00004 	mov	r0, r4
    8db0:	ebffffec 	bl	8d68 <switchto>

00008db4 <eqx_schedule>:
    8db4:	e52de004 	push	{lr}		@ (str lr, [sp, #-4]!)
    8db8:	e24dd00c 	sub	sp, sp, #12
    8dbc:	e59f30c4 	ldr	r3, [pc, #196]	@ 8e88 <eqx_schedule+0xd4>
    8dc0:	e5933000 	ldr	r3, [r3]
    8dc4:	e3530000 	cmp	r3, #0
    8dc8:	0a000015 	beq	8e24 <eqx_schedule+0x70>
    8dcc:	e59f00b8 	ldr	r0, [pc, #184]	@ 8e8c <eqx_schedule+0xd8>
    8dd0:	ebffffbb 	bl	8cc4 <eqx_th_pop>
    8dd4:	e2504000 	subs	r4, r0, #0
    8dd8:	0a00000e 	beq	8e18 <eqx_schedule+0x64>
    8ddc:	e594306c 	ldr	r3, [r4, #108]	@ 0x6c
    8de0:	e3530000 	cmp	r3, #0
    8de4:	1a000016 	bne	8e44 <eqx_schedule+0x90>
    8de8:	e59f2098 	ldr	r2, [pc, #152]	@ 8e88 <eqx_schedule+0xd4>
    8dec:	e5923000 	ldr	r3, [r2]
    8df0:	e3a01000 	mov	r1, #0
    8df4:	e5831044 	str	r1, [r3, #68]	@ 0x44
    8df8:	e5922008 	ldr	r2, [r2, #8]
    8dfc:	e1520001 	cmp	r2, r1
    8e00:	0a00001c 	beq	8e78 <eqx_schedule+0xc4>
    8e04:	e5823044 	str	r3, [r2, #68]	@ 0x44
    8e08:	e59f2078 	ldr	r2, [pc, #120]	@ 8e88 <eqx_schedule+0xd4>
    8e0c:	e5823008 	str	r3, [r2, #8]
    8e10:	e59f3070 	ldr	r3, [pc, #112]	@ 8e88 <eqx_schedule+0xd4>
    8e14:	e5834000 	str	r4, [r3]
    8e18:	e59f3068 	ldr	r3, [pc, #104]	@ 8e88 <eqx_schedule+0xd4>
    8e1c:	e5930000 	ldr	r0, [r3]
    8e20:	ebffffda 	bl	8d90 <brkpt_run_one_inst>
    8e24:	e59f3064 	ldr	r3, [pc, #100]	@ 8e90 <eqx_schedule+0xdc>
    8e28:	e58d3000 	str	r3, [sp]
    8e2c:	e3a030e1 	mov	r3, #225	@ 0xe1
    8e30:	e59f205c 	ldr	r2, [pc, #92]	@ 8e94 <eqx_schedule+0xe0>
    8e34:	e59f105c 	ldr	r1, [pc, #92]	@ 8e98 <eqx_schedule+0xe4>
    8e38:	e59f005c 	ldr	r0, [pc, #92]	@ 8e9c <eqx_schedule+0xe8>
    8e3c:	eb00064c 	bl	a774 <printk>
    8e40:	eb000768 	bl	abe8 <clean_reboot>
    8e44:	e59f303c 	ldr	r3, [pc, #60]	@ 8e88 <eqx_schedule+0xd4>
    8e48:	e5931000 	ldr	r1, [r3]
    8e4c:	e5932000 	ldr	r2, [r3]
    8e50:	e5943034 	ldr	r3, [r4, #52]	@ 0x34
    8e54:	e58d3004 	str	r3, [sp, #4]
    8e58:	e594303c 	ldr	r3, [r4, #60]	@ 0x3c
    8e5c:	e58d3000 	str	r3, [sp]
    8e60:	e5943050 	ldr	r3, [r4, #80]	@ 0x50
    8e64:	e592203c 	ldr	r2, [r2, #60]	@ 0x3c
    8e68:	e5911050 	ldr	r1, [r1, #80]	@ 0x50
    8e6c:	e59f002c 	ldr	r0, [pc, #44]	@ 8ea0 <eqx_schedule+0xec>
    8e70:	eb00063f 	bl	a774 <printk>
    8e74:	eaffffdb 	b	8de8 <eqx_schedule+0x34>
    8e78:	e59f2008 	ldr	r2, [pc, #8]	@ 8e88 <eqx_schedule+0xd4>
    8e7c:	e5823008 	str	r3, [r2, #8]
    8e80:	e5823004 	str	r3, [r2, #4]
    8e84:	eaffffe1 	b	8e10 <eqx_schedule+0x5c>
    8e88:	0000c4a8 	.word	0x0000c4a8
    8e8c:	0000c4ac 	.word	0x0000c4ac
    8e90:	0000b414 	.word	0x0000b414
    8e94:	0000c22c 	.word	0x0000c22c
    8e98:	0000b2d8 	.word	0x0000b2d8
    8e9c:	0000b268 	.word	0x0000b268
    8ea0:	0000b420 	.word	0x0000b420

00008ea4 <equiv_syscall_handler>:
    8ea4:	e92d4070 	push	{r4, r5, r6, lr}
    8ea8:	e24dd010 	sub	sp, sp, #16
    8eac:	e1a04000 	mov	r4, r0
    8eb0:	e14f0000 	mrs	r0, SPSR
    8eb4:	e5943040 	ldr	r3, [r4, #64]	@ 0x40
    8eb8:	e1530000 	cmp	r3, r0
    8ebc:	0a000007 	beq	8ee0 <equiv_syscall_handler+0x3c>
    8ec0:	e59f31dc 	ldr	r3, [pc, #476]	@ 90a4 <equiv_syscall_handler+0x200>
    8ec4:	e58d3000 	str	r3, [sp]
    8ec8:	e59f31d8 	ldr	r3, [pc, #472]	@ 90a8 <equiv_syscall_handler+0x204>
    8ecc:	e59f21d8 	ldr	r2, [pc, #472]	@ 90ac <equiv_syscall_handler+0x208>
    8ed0:	e59f11d8 	ldr	r1, [pc, #472]	@ 90b0 <equiv_syscall_handler+0x20c>
    8ed4:	e59f01d8 	ldr	r0, [pc, #472]	@ 90b4 <equiv_syscall_handler+0x210>
    8ed8:	eb000625 	bl	a774 <printk>
    8edc:	eb000741 	bl	abe8 <clean_reboot>
    8ee0:	ebffff47 	bl	8c04 <mode_get>
    8ee4:	e3500010 	cmp	r0, #16
    8ee8:	1a000011 	bne	8f34 <equiv_syscall_handler+0x90>
    8eec:	e59f31c4 	ldr	r3, [pc, #452]	@ 90b8 <equiv_syscall_handler+0x214>
    8ef0:	e5935000 	ldr	r5, [r3]
    8ef4:	e3550000 	cmp	r5, #0
    8ef8:	0a000015 	beq	8f54 <equiv_syscall_handler+0xb0>
    8efc:	e3a02044 	mov	r2, #68	@ 0x44
    8f00:	e1a01004 	mov	r1, r4
    8f04:	e1a00005 	mov	r0, r5
    8f08:	eb0005c8 	bl	a630 <memcpy>
    8f0c:	e1a00005 	mov	r0, r5
    8f10:	ebfffecf 	bl	8a54 <eqx_check_sp>
    8f14:	e5943000 	ldr	r3, [r4]
    8f18:	e3530000 	cmp	r3, #0
    8f1c:	0a000014 	beq	8f74 <equiv_syscall_handler+0xd0>
    8f20:	e3530001 	cmp	r3, #1
    8f24:	1a000057 	bne	9088 <equiv_syscall_handler+0x1e4>
    8f28:	e5d40004 	ldrb	r0, [r4, #4]
    8f2c:	eb00057b 	bl	a520 <uart_put8>
    8f30:	ebffff9f 	bl	8db4 <eqx_schedule>
    8f34:	e59f3180 	ldr	r3, [pc, #384]	@ 90bc <equiv_syscall_handler+0x218>
    8f38:	e58d3000 	str	r3, [sp]
    8f3c:	e59f317c 	ldr	r3, [pc, #380]	@ 90c0 <equiv_syscall_handler+0x21c>
    8f40:	e59f2164 	ldr	r2, [pc, #356]	@ 90ac <equiv_syscall_handler+0x208>
    8f44:	e59f1164 	ldr	r1, [pc, #356]	@ 90b0 <equiv_syscall_handler+0x20c>
    8f48:	e59f0164 	ldr	r0, [pc, #356]	@ 90b4 <equiv_syscall_handler+0x210>
    8f4c:	eb000608 	bl	a774 <printk>
    8f50:	eb000724 	bl	abe8 <clean_reboot>
    8f54:	e59f3168 	ldr	r3, [pc, #360]	@ 90c4 <equiv_syscall_handler+0x220>
    8f58:	e58d3000 	str	r3, [sp]
    8f5c:	e3a03f57 	mov	r3, #348	@ 0x15c
    8f60:	e59f2144 	ldr	r2, [pc, #324]	@ 90ac <equiv_syscall_handler+0x208>
    8f64:	e59f1144 	ldr	r1, [pc, #324]	@ 90b0 <equiv_syscall_handler+0x20c>
    8f68:	e59f0144 	ldr	r0, [pc, #324]	@ 90b4 <equiv_syscall_handler+0x210>
    8f6c:	eb000600 	bl	a774 <printk>
    8f70:	eb00071c 	bl	abe8 <clean_reboot>
    8f74:	e59f314c 	ldr	r3, [pc, #332]	@ 90c8 <equiv_syscall_handler+0x224>
    8f78:	e5933000 	ldr	r3, [r3]
    8f7c:	e3530000 	cmp	r3, #0
    8f80:	1a000011 	bne	8fcc <equiv_syscall_handler+0x128>
    8f84:	e5954048 	ldr	r4, [r5, #72]	@ 0x48
    8f88:	e3540000 	cmp	r4, #0
    8f8c:	1a000017 	bne	8ff0 <equiv_syscall_handler+0x14c>
    8f90:	e595304c 	ldr	r3, [r5, #76]	@ 0x4c
    8f94:	e5853048 	str	r3, [r5, #72]	@ 0x48
    8f98:	e595204c 	ldr	r2, [r5, #76]	@ 0x4c
    8f9c:	e59f4114 	ldr	r4, [pc, #276]	@ 90b8 <equiv_syscall_handler+0x214>
    8fa0:	e594300c 	ldr	r3, [r4, #12]
    8fa4:	e0833002 	add	r3, r3, r2
    8fa8:	e584300c 	str	r3, [r4, #12]
    8fac:	e2840004 	add	r0, r4, #4
    8fb0:	ebffff43 	bl	8cc4 <eqx_th_pop>
    8fb4:	e5840000 	str	r0, [r4]
    8fb8:	e3500000 	cmp	r0, #0
    8fbc:	0a000025 	beq	9058 <equiv_syscall_handler+0x1b4>
    8fc0:	e59f30f0 	ldr	r3, [pc, #240]	@ 90b8 <equiv_syscall_handler+0x214>
    8fc4:	e5930000 	ldr	r0, [r3]
    8fc8:	ebffff70 	bl	8d90 <brkpt_run_one_inst>
    8fcc:	e59f10d8 	ldr	r1, [pc, #216]	@ 90ac <equiv_syscall_handler+0x208>
    8fd0:	e59f00f4 	ldr	r0, [pc, #244]	@ 90cc <equiv_syscall_handler+0x228>
    8fd4:	eb0005e6 	bl	a774 <printk>
    8fd8:	e595304c 	ldr	r3, [r5, #76]	@ 0x4c
    8fdc:	e5942004 	ldr	r2, [r4, #4]
    8fe0:	e5951050 	ldr	r1, [r5, #80]	@ 0x50
    8fe4:	e59f00e4 	ldr	r0, [pc, #228]	@ 90d0 <equiv_syscall_handler+0x22c>
    8fe8:	eb0005e1 	bl	a774 <printk>
    8fec:	eaffffe4 	b	8f84 <equiv_syscall_handler+0xe0>
    8ff0:	e595604c 	ldr	r6, [r5, #76]	@ 0x4c
    8ff4:	e1540006 	cmp	r4, r6
    8ff8:	1a00000c 	bne	9030 <equiv_syscall_handler+0x18c>
    8ffc:	e59f30c4 	ldr	r3, [pc, #196]	@ 90c8 <equiv_syscall_handler+0x224>
    9000:	e5933000 	ldr	r3, [r3]
    9004:	e3530000 	cmp	r3, #0
    9008:	0affffe2 	beq	8f98 <equiv_syscall_handler+0xf4>
    900c:	e59f1098 	ldr	r1, [pc, #152]	@ 90ac <equiv_syscall_handler+0x208>
    9010:	e59f00b4 	ldr	r0, [pc, #180]	@ 90cc <equiv_syscall_handler+0x228>
    9014:	eb0005d6 	bl	a774 <printk>
    9018:	e1a03006 	mov	r3, r6
    901c:	e1a02004 	mov	r2, r4
    9020:	e5951050 	ldr	r1, [r5, #80]	@ 0x50
    9024:	e59f00a8 	ldr	r0, [pc, #168]	@ 90d4 <equiv_syscall_handler+0x230>
    9028:	eb0005d1 	bl	a774 <printk>
    902c:	eaffffd9 	b	8f98 <equiv_syscall_handler+0xf4>
    9030:	e58d6008 	str	r6, [sp, #8]
    9034:	e58d4004 	str	r4, [sp, #4]
    9038:	e5953050 	ldr	r3, [r5, #80]	@ 0x50
    903c:	e58d3000 	str	r3, [sp]
    9040:	e59f3090 	ldr	r3, [pc, #144]	@ 90d8 <equiv_syscall_handler+0x234>
    9044:	e59f2060 	ldr	r2, [pc, #96]	@ 90ac <equiv_syscall_handler+0x208>
    9048:	e59f1060 	ldr	r1, [pc, #96]	@ 90b0 <equiv_syscall_handler+0x20c>
    904c:	e59f0088 	ldr	r0, [pc, #136]	@ 90dc <equiv_syscall_handler+0x238>
    9050:	eb0005c7 	bl	a774 <printk>
    9054:	eb0006e3 	bl	abe8 <clean_reboot>
    9058:	e59f3068 	ldr	r3, [pc, #104]	@ 90c8 <equiv_syscall_handler+0x224>
    905c:	e5933000 	ldr	r3, [r3]
    9060:	e3530000 	cmp	r3, #0
    9064:	1a000001 	bne	9070 <equiv_syscall_handler+0x1cc>
    9068:	e59f0070 	ldr	r0, [pc, #112]	@ 90e0 <equiv_syscall_handler+0x23c>
    906c:	ebffff3d 	bl	8d68 <switchto>
    9070:	e59f1034 	ldr	r1, [pc, #52]	@ 90ac <equiv_syscall_handler+0x208>
    9074:	e59f0050 	ldr	r0, [pc, #80]	@ 90cc <equiv_syscall_handler+0x228>
    9078:	eb0005bd 	bl	a774 <printk>
    907c:	e59f0060 	ldr	r0, [pc, #96]	@ 90e4 <equiv_syscall_handler+0x240>
    9080:	eb0005bb 	bl	a774 <printk>
    9084:	eafffff7 	b	9068 <equiv_syscall_handler+0x1c4>
    9088:	e58d3000 	str	r3, [sp]
    908c:	e59f3054 	ldr	r3, [pc, #84]	@ 90e8 <equiv_syscall_handler+0x244>
    9090:	e59f2014 	ldr	r2, [pc, #20]	@ 90ac <equiv_syscall_handler+0x208>
    9094:	e59f1014 	ldr	r1, [pc, #20]	@ 90b0 <equiv_syscall_handler+0x20c>
    9098:	e59f004c 	ldr	r0, [pc, #76]	@ 90ec <equiv_syscall_handler+0x248>
    909c:	eb0005b4 	bl	a774 <printk>
    90a0:	eb0006d0 	bl	abe8 <clean_reboot>
    90a4:	0000b454 	.word	0x0000b454
    90a8:	00000157 	.word	0x00000157
    90ac:	0000c23c 	.word	0x0000c23c
    90b0:	0000b2d8 	.word	0x0000b2d8
    90b4:	0000b268 	.word	0x0000b268
    90b8:	0000c4a8 	.word	0x0000c4a8
    90bc:	0000b470 	.word	0x0000b470
    90c0:	00000159 	.word	0x00000159
    90c4:	0000b48c 	.word	0x0000b48c
    90c8:	0000c49c 	.word	0x0000c49c
    90cc:	0000b0f0 	.word	0x0000b0f0
    90d0:	0000b490 	.word	0x0000b490
    90d4:	0000b4b8 	.word	0x0000b4b8
    90d8:	0000017a 	.word	0x0000017a
    90dc:	0000b4dc 	.word	0x0000b4dc
    90e0:	0000c4b8 	.word	0x0000c4b8
    90e4:	0000b520 	.word	0x0000b520
    90e8:	0000018d 	.word	0x0000018d
    90ec:	0000b538 	.word	0x0000b538

000090f0 <equiv_single_step_handler>:
    90f0:	e92d40f0 	push	{r4, r5, r6, r7, lr}
    90f4:	e24dd00c 	sub	sp, sp, #12
    90f8:	e1a05000 	mov	r5, r0
    90fc:	eb0003bc 	bl	9ff4 <brkpt_fault_p>
    9100:	e3500000 	cmp	r0, #0
    9104:	0a000015 	beq	9160 <equiv_single_step_handler+0x70>
    9108:	e59f30a4 	ldr	r3, [pc, #164]	@ 91b4 <equiv_single_step_handler+0xc4>
    910c:	e5934000 	ldr	r4, [r3]
    9110:	e3540000 	cmp	r4, #0
    9114:	0a000017 	beq	9178 <equiv_single_step_handler+0x88>
    9118:	e3a07044 	mov	r7, #68	@ 0x44
    911c:	e1a02007 	mov	r2, r7
    9120:	e1a01005 	mov	r1, r5
    9124:	e1a00004 	mov	r0, r4
    9128:	eb000540 	bl	a630 <memcpy>
    912c:	e5946068 	ldr	r6, [r4, #104]	@ 0x68
    9130:	e2866001 	add	r6, r6, #1
    9134:	e5846068 	str	r6, [r4, #104]	@ 0x68
    9138:	e595503c 	ldr	r5, [r5, #60]	@ 0x3c
    913c:	e594204c 	ldr	r2, [r4, #76]	@ 0x4c
    9140:	e1a01007 	mov	r1, r7
    9144:	e1a00004 	mov	r0, r4
    9148:	ebfffd80 	bl	8750 <fast_hash_inc32>
    914c:	e584004c 	str	r0, [r4, #76]	@ 0x4c
    9150:	e594306c 	ldr	r3, [r4, #108]	@ 0x6c
    9154:	e3530000 	cmp	r3, #0
    9158:	1a00000e 	bne	9198 <equiv_single_step_handler+0xa8>
    915c:	ebffff14 	bl	8db4 <eqx_schedule>
    9160:	e59f3050 	ldr	r3, [pc, #80]	@ 91b8 <equiv_single_step_handler+0xc8>
    9164:	e59f2050 	ldr	r2, [pc, #80]	@ 91bc <equiv_single_step_handler+0xcc>
    9168:	e59f1050 	ldr	r1, [pc, #80]	@ 91c0 <equiv_single_step_handler+0xd0>
    916c:	e59f0050 	ldr	r0, [pc, #80]	@ 91c4 <equiv_single_step_handler+0xd4>
    9170:	eb00057f 	bl	a774 <printk>
    9174:	eb00069b 	bl	abe8 <clean_reboot>
    9178:	e59f3048 	ldr	r3, [pc, #72]	@ 91c8 <equiv_single_step_handler+0xd8>
    917c:	e58d3000 	str	r3, [sp]
    9180:	e59f3044 	ldr	r3, [pc, #68]	@ 91cc <equiv_single_step_handler+0xdc>
    9184:	e59f2030 	ldr	r2, [pc, #48]	@ 91bc <equiv_single_step_handler+0xcc>
    9188:	e59f1030 	ldr	r1, [pc, #48]	@ 91c0 <equiv_single_step_handler+0xd0>
    918c:	e59f003c 	ldr	r0, [pc, #60]	@ 91d0 <equiv_single_step_handler+0xe0>
    9190:	eb000577 	bl	a774 <printk>
    9194:	eb000693 	bl	abe8 <clean_reboot>
    9198:	e58d0000 	str	r0, [sp]
    919c:	e1a03005 	mov	r3, r5
    91a0:	e1a02006 	mov	r2, r6
    91a4:	e5941050 	ldr	r1, [r4, #80]	@ 0x50
    91a8:	e59f0024 	ldr	r0, [pc, #36]	@ 91d4 <equiv_single_step_handler+0xe4>
    91ac:	eb000570 	bl	a774 <printk>
    91b0:	eaffffe9 	b	915c <equiv_single_step_handler+0x6c>
    91b4:	0000c4a8 	.word	0x0000c4a8
    91b8:	00000126 	.word	0x00000126
    91bc:	0000c254 	.word	0x0000c254
    91c0:	0000b2d8 	.word	0x0000b2d8
    91c4:	0000b564 	.word	0x0000b564
    91c8:	0000b48c 	.word	0x0000b48c
    91cc:	00000129 	.word	0x00000129
    91d0:	0000b268 	.word	0x0000b268
    91d4:	0000b59c 	.word	0x0000b59c

000091d8 <switchto_cswitch>:
    91d8:	e92d4030 	push	{r4, r5, lr}
    91dc:	e24dd00c 	sub	sp, sp, #12
    91e0:	e1a05000 	mov	r5, r0
    91e4:	e1a04001 	mov	r4, r1
    91e8:	e10f0000 	mrs	r0, CPSR
    91ec:	ebfffe84 	bl	8c04 <mode_get>
    91f0:	e3500010 	cmp	r0, #16
    91f4:	0a000008 	beq	921c <switchto_cswitch+0x44>
    91f8:	e5940040 	ldr	r0, [r4, #64]	@ 0x40
    91fc:	ebfffe80 	bl	8c04 <mode_get>
    9200:	e3500010 	cmp	r0, #16
    9204:	1a00000c 	bne	923c <switchto_cswitch+0x64>
    9208:	e1a01004 	mov	r1, r4
    920c:	e1a00005 	mov	r0, r5
    9210:	ebfffcb2 	bl	84e0 <cswitchto_user_asm>
    9214:	e28dd00c 	add	sp, sp, #12
    9218:	e8bd8030 	pop	{r4, r5, pc}
    921c:	e59f3030 	ldr	r3, [pc, #48]	@ 9254 <switchto_cswitch+0x7c>
    9220:	e58d3000 	str	r3, [sp]
    9224:	e3a03064 	mov	r3, #100	@ 0x64
    9228:	e59f2028 	ldr	r2, [pc, #40]	@ 9258 <switchto_cswitch+0x80>
    922c:	e59f1028 	ldr	r1, [pc, #40]	@ 925c <switchto_cswitch+0x84>
    9230:	e59f0028 	ldr	r0, [pc, #40]	@ 9260 <switchto_cswitch+0x88>
    9234:	eb00054e 	bl	a774 <printk>
    9238:	eb00066a 	bl	abe8 <clean_reboot>
    923c:	e3a0306a 	mov	r3, #106	@ 0x6a
    9240:	e59f2010 	ldr	r2, [pc, #16]	@ 9258 <switchto_cswitch+0x80>
    9244:	e59f1010 	ldr	r1, [pc, #16]	@ 925c <switchto_cswitch+0x84>
    9248:	e59f0014 	ldr	r0, [pc, #20]	@ 9264 <switchto_cswitch+0x8c>
    924c:	eb000548 	bl	a774 <printk>
    9250:	eb000664 	bl	abe8 <clean_reboot>
    9254:	0000b5d0 	.word	0x0000b5d0
    9258:	0000c270 	.word	0x0000c270
    925c:	0000b5c4 	.word	0x0000b5c4
    9260:	0000b268 	.word	0x0000b268
    9264:	0000b5f4 	.word	0x0000b5f4

00009268 <eqx_verbose>:
    9268:	e59f3004 	ldr	r3, [pc, #4]	@ 9274 <eqx_verbose+0xc>
    926c:	e5830000 	str	r0, [r3]
    9270:	e12fff1e 	bx	lr
    9274:	0000c49c 	.word	0x0000c49c

00009278 <eqx_fork_stack>:
    9278:	e92d41f0 	push	{r4, r5, r6, r7, r8, lr}
    927c:	e24dd008 	sub	sp, sp, #8
    9280:	e1a08000 	mov	r8, r0
    9284:	e1a07001 	mov	r7, r1
    9288:	e1a06002 	mov	r6, r2
    928c:	e1a05003 	mov	r5, r3
    9290:	e3a00070 	mov	r0, #112	@ 0x70
    9294:	eb0003f0 	bl	a25c <kmalloc>
    9298:	e5808054 	str	r8, [r0, #84]	@ 0x54
    929c:	e5807058 	str	r7, [r0, #88]	@ 0x58
    92a0:	e5806048 	str	r6, [r0, #72]	@ 0x48
    92a4:	e59f207c 	ldr	r2, [pc, #124]	@ 9328 <eqx_fork_stack+0xb0>
    92a8:	e5923004 	ldr	r3, [r2, #4]
    92ac:	e2831001 	add	r1, r3, #1
    92b0:	e5821004 	str	r1, [r2, #4]
    92b4:	e5803050 	str	r3, [r0, #80]	@ 0x50
    92b8:	e580505c 	str	r5, [r0, #92]	@ 0x5c
    92bc:	e59d3020 	ldr	r3, [sp, #32]
    92c0:	e0853003 	add	r3, r5, r3
    92c4:	e5803060 	str	r3, [r0, #96]	@ 0x60
    92c8:	e2133007 	ands	r3, r3, #7
    92cc:	1a00000b 	bne	9300 <eqx_fork_stack+0x88>
    92d0:	e1a04000 	mov	r4, r0
    92d4:	ebfffdfe 	bl	8ad4 <eqx_regs_init>
    92d8:	e59f304c 	ldr	r3, [pc, #76]	@ 932c <eqx_fork_stack+0xb4>
    92dc:	e5932004 	ldr	r2, [r3, #4]
    92e0:	e5842044 	str	r2, [r4, #68]	@ 0x44
    92e4:	e5834004 	str	r4, [r3, #4]
    92e8:	e5933008 	ldr	r3, [r3, #8]
    92ec:	e3530000 	cmp	r3, #0
    92f0:	0a000009 	beq	931c <eqx_fork_stack+0xa4>
    92f4:	e1a00004 	mov	r0, r4
    92f8:	e28dd008 	add	sp, sp, #8
    92fc:	e8bd81f0 	pop	{r4, r5, r6, r7, r8, pc}
    9300:	e58d3000 	str	r3, [sp]
    9304:	e3a03093 	mov	r3, #147	@ 0x93
    9308:	e59f2020 	ldr	r2, [pc, #32]	@ 9330 <eqx_fork_stack+0xb8>
    930c:	e59f1020 	ldr	r1, [pc, #32]	@ 9334 <eqx_fork_stack+0xbc>
    9310:	e59f0020 	ldr	r0, [pc, #32]	@ 9338 <eqx_fork_stack+0xc0>
    9314:	eb000516 	bl	a774 <printk>
    9318:	eb000632 	bl	abe8 <clean_reboot>
    931c:	e59f3008 	ldr	r3, [pc, #8]	@ 932c <eqx_fork_stack+0xb4>
    9320:	e5834008 	str	r4, [r3, #8]
    9324:	eafffff2 	b	92f4 <eqx_fork_stack+0x7c>
    9328:	0000c49c 	.word	0x0000c49c
    932c:	0000c4a8 	.word	0x0000c4a8
    9330:	0000c284 	.word	0x0000c284
    9334:	0000b2d8 	.word	0x0000b2d8
    9338:	0000b61c 	.word	0x0000b61c

0000933c <eqx_fork>:
    933c:	e92d4070 	push	{r4, r5, r6, lr}
    9340:	e24dd008 	sub	sp, sp, #8
    9344:	e1a04000 	mov	r4, r0
    9348:	e1a05001 	mov	r5, r1
    934c:	e1a06002 	mov	r6, r2
    9350:	e3a01008 	mov	r1, #8
    9354:	e3a00801 	mov	r0, #65536	@ 0x10000
    9358:	eb0003d8 	bl	a2c0 <kmalloc_aligned>
    935c:	e3100007 	tst	r0, #7
    9360:	1a000008 	bne	9388 <eqx_fork+0x4c>
    9364:	e1a03000 	mov	r3, r0
    9368:	e3a02801 	mov	r2, #65536	@ 0x10000
    936c:	e58d2000 	str	r2, [sp]
    9370:	e1a02006 	mov	r2, r6
    9374:	e1a01005 	mov	r1, r5
    9378:	e1a00004 	mov	r0, r4
    937c:	ebffffbd 	bl	9278 <eqx_fork_stack>
    9380:	e28dd008 	add	sp, sp, #8
    9384:	e8bd8070 	pop	{r4, r5, r6, pc}
    9388:	e59f3018 	ldr	r3, [pc, #24]	@ 93a8 <eqx_fork+0x6c>
    938c:	e58d3000 	str	r3, [sp]
    9390:	e3a030a0 	mov	r3, #160	@ 0xa0
    9394:	e59f2010 	ldr	r2, [pc, #16]	@ 93ac <eqx_fork+0x70>
    9398:	e59f1010 	ldr	r1, [pc, #16]	@ 93b0 <eqx_fork+0x74>
    939c:	e59f0010 	ldr	r0, [pc, #16]	@ 93b4 <eqx_fork+0x78>
    93a0:	eb0004f3 	bl	a774 <printk>
    93a4:	eb00060f 	bl	abe8 <clean_reboot>
    93a8:	0000b658 	.word	0x0000b658
    93ac:	0000c294 	.word	0x0000c294
    93b0:	0000b2d8 	.word	0x0000b2d8
    93b4:	0000b268 	.word	0x0000b268

000093b8 <eqx_fork_nostack>:
    93b8:	e52de004 	push	{lr}		@ (str lr, [sp, #-4]!)
    93bc:	e24dd00c 	sub	sp, sp, #12
    93c0:	e3a03000 	mov	r3, #0
    93c4:	e58d3000 	str	r3, [sp]
    93c8:	ebffffaa 	bl	9278 <eqx_fork_stack>
    93cc:	e28dd00c 	add	sp, sp, #12
    93d0:	e49df004 	pop	{pc}		@ (ldr pc, [sp], #4)

000093d4 <eqx_refork>:
    93d4:	e92d4010 	push	{r4, lr}
    93d8:	e24dd008 	sub	sp, sp, #8
    93dc:	e5903048 	ldr	r3, [r0, #72]	@ 0x48
    93e0:	e3530000 	cmp	r3, #0
    93e4:	0a00000d 	beq	9420 <eqx_refork+0x4c>
    93e8:	e1a04000 	mov	r4, r0
    93ec:	ebfffdb8 	bl	8ad4 <eqx_regs_init>
    93f0:	e3a03000 	mov	r3, #0
    93f4:	e5843068 	str	r3, [r4, #104]	@ 0x68
    93f8:	e584304c 	str	r3, [r4, #76]	@ 0x4c
    93fc:	e59f3048 	ldr	r3, [pc, #72]	@ 944c <eqx_refork+0x78>
    9400:	e5932004 	ldr	r2, [r3, #4]
    9404:	e5842044 	str	r2, [r4, #68]	@ 0x44
    9408:	e5834004 	str	r4, [r3, #4]
    940c:	e5933008 	ldr	r3, [r3, #8]
    9410:	e3530000 	cmp	r3, #0
    9414:	0a000009 	beq	9440 <eqx_refork+0x6c>
    9418:	e28dd008 	add	sp, sp, #8
    941c:	e8bd8010 	pop	{r4, pc}
    9420:	e59f3028 	ldr	r3, [pc, #40]	@ 9450 <eqx_refork+0x7c>
    9424:	e58d3000 	str	r3, [sp]
    9428:	e3a030b7 	mov	r3, #183	@ 0xb7
    942c:	e59f2020 	ldr	r2, [pc, #32]	@ 9454 <eqx_refork+0x80>
    9430:	e59f1020 	ldr	r1, [pc, #32]	@ 9458 <eqx_refork+0x84>
    9434:	e59f0020 	ldr	r0, [pc, #32]	@ 945c <eqx_refork+0x88>
    9438:	eb0004cd 	bl	a774 <printk>
    943c:	eb0005e9 	bl	abe8 <clean_reboot>
    9440:	e59f3004 	ldr	r3, [pc, #4]	@ 944c <eqx_refork+0x78>
    9444:	e5834008 	str	r4, [r3, #8]
    9448:	eafffff2 	b	9418 <eqx_refork+0x44>
    944c:	0000c4a8 	.word	0x0000c4a8
    9450:	0000b670 	.word	0x0000b670
    9454:	0000c2a0 	.word	0x0000c2a0
    9458:	0000b2d8 	.word	0x0000b2d8
    945c:	0000b268 	.word	0x0000b268

00009460 <eqx_init>:
    9460:	e92d4010 	push	{r4, lr}
    9464:	e59f3064 	ldr	r3, [pc, #100]	@ 94d0 <eqx_init+0x70>
    9468:	e5933054 	ldr	r3, [r3, #84]	@ 0x54
    946c:	e3530000 	cmp	r3, #0
    9470:	1a00000c 	bne	94a8 <eqx_init+0x48>
    9474:	e59f3054 	ldr	r3, [pc, #84]	@ 94d0 <eqx_init+0x70>
    9478:	e3a02001 	mov	r2, #1
    947c:	e5832054 	str	r2, [r3, #84]	@ 0x54
    9480:	eb0002f2 	bl	a050 <kmalloc_heap_start>
    9484:	e3500000 	cmp	r0, #0
    9488:	0a00000c 	beq	94c0 <eqx_init+0x60>
    948c:	e3a00000 	mov	r0, #0
    9490:	eb0001e8 	bl	9c38 <full_except_install>
    9494:	e59f0038 	ldr	r0, [pc, #56]	@ 94d4 <eqx_init+0x74>
    9498:	eb0001d4 	bl	9bf0 <full_except_set_prefetch>
    949c:	e59f0034 	ldr	r0, [pc, #52]	@ 94d8 <eqx_init+0x78>
    94a0:	eb0001de 	bl	9c20 <full_except_set_syscall>
    94a4:	e8bd8010 	pop	{r4, pc}
    94a8:	e3a03f67 	mov	r3, #412	@ 0x19c
    94ac:	e59f2028 	ldr	r2, [pc, #40]	@ 94dc <eqx_init+0x7c>
    94b0:	e59f1028 	ldr	r1, [pc, #40]	@ 94e0 <eqx_init+0x80>
    94b4:	e59f0028 	ldr	r0, [pc, #40]	@ 94e4 <eqx_init+0x84>
    94b8:	eb0004ad 	bl	a774 <printk>
    94bc:	eb0005c9 	bl	abe8 <clean_reboot>
    94c0:	e3a01301 	mov	r1, #67108864	@ 0x4000000
    94c4:	e3a00601 	mov	r0, #1048576	@ 0x100000
    94c8:	eb0002e8 	bl	a070 <kmalloc_init_set_start>
    94cc:	eaffffee 	b	948c <eqx_init+0x2c>
    94d0:	0000c4a8 	.word	0x0000c4a8
    94d4:	000090f0 	.word	0x000090f0
    94d8:	00008ea4 	.word	0x00008ea4
    94dc:	0000c2ac 	.word	0x0000c2ac
    94e0:	0000b2d8 	.word	0x0000b2d8
    94e4:	0000b684 	.word	0x0000b684

000094e8 <eqx_run_threads>:
    94e8:	e92d4010 	push	{r4, lr}
    94ec:	e24dd008 	sub	sp, sp, #8
    94f0:	e59f3148 	ldr	r3, [pc, #328]	@ 9640 <eqx_run_threads+0x158>
    94f4:	e5933054 	ldr	r3, [r3, #84]	@ 0x54
    94f8:	e3530000 	cmp	r3, #0
    94fc:	0a000027 	beq	95a0 <eqx_run_threads+0xb8>
    9500:	e59f4138 	ldr	r4, [pc, #312]	@ 9640 <eqx_run_threads+0x158>
    9504:	e3a03000 	mov	r3, #0
    9508:	e584300c 	str	r3, [r4, #12]
    950c:	e2840004 	add	r0, r4, #4
    9510:	ebfffdeb 	bl	8cc4 <eqx_th_pop>
    9514:	e5840000 	str	r0, [r4]
    9518:	e5943000 	ldr	r3, [r4]
    951c:	e3530000 	cmp	r3, #0
    9520:	0a000024 	beq	95b8 <eqx_run_threads+0xd0>
    9524:	eb00028d 	bl	9f60 <brkpt_mismatch_start>
    9528:	e59f4110 	ldr	r4, [pc, #272]	@ 9640 <eqx_run_threads+0x158>
    952c:	e5943000 	ldr	r3, [r4]
    9530:	e593003c 	ldr	r0, [r3, #60]	@ 0x3c
    9534:	eb000255 	bl	9e90 <brkpt_mismatch_set>
    9538:	e1a00004 	mov	r0, r4
    953c:	e4901010 	ldr	r1, [r0], #16
    9540:	ebffff24 	bl	91d8 <switchto_cswitch>
    9544:	eb000293 	bl	9f98 <brkpt_mismatch_stop>
    9548:	e2840004 	add	r0, r4, #4
    954c:	ebfffddc 	bl	8cc4 <eqx_th_pop>
    9550:	e5840000 	str	r0, [r4]
    9554:	e5943000 	ldr	r3, [r4]
    9558:	e3530000 	cmp	r3, #0
    955c:	1a00001b 	bne	95d0 <eqx_run_threads+0xe8>
    9560:	e59f30d8 	ldr	r3, [pc, #216]	@ 9640 <eqx_run_threads+0x158>
    9564:	e5933004 	ldr	r3, [r3, #4]
    9568:	e3530000 	cmp	r3, #0
    956c:	1a00001d 	bne	95e8 <eqx_run_threads+0x100>
    9570:	e59f30c8 	ldr	r3, [pc, #200]	@ 9640 <eqx_run_threads+0x158>
    9574:	e5933008 	ldr	r3, [r3, #8]
    9578:	e3530000 	cmp	r3, #0
    957c:	1a000021 	bne	9608 <eqx_run_threads+0x120>
    9580:	e59f30bc 	ldr	r3, [pc, #188]	@ 9644 <eqx_run_threads+0x15c>
    9584:	e5933000 	ldr	r3, [r3]
    9588:	e3530000 	cmp	r3, #0
    958c:	1a000025 	bne	9628 <eqx_run_threads+0x140>
    9590:	e59f30a8 	ldr	r3, [pc, #168]	@ 9640 <eqx_run_threads+0x158>
    9594:	e593000c 	ldr	r0, [r3, #12]
    9598:	e28dd008 	add	sp, sp, #8
    959c:	e8bd8010 	pop	{r4, pc}
    95a0:	e59f30a0 	ldr	r3, [pc, #160]	@ 9648 <eqx_run_threads+0x160>
    95a4:	e59f20a0 	ldr	r2, [pc, #160]	@ 964c <eqx_run_threads+0x164>
    95a8:	e59f10a0 	ldr	r1, [pc, #160]	@ 9650 <eqx_run_threads+0x168>
    95ac:	e59f00a0 	ldr	r0, [pc, #160]	@ 9654 <eqx_run_threads+0x16c>
    95b0:	eb00046f 	bl	a774 <printk>
    95b4:	eb00058b 	bl	abe8 <clean_reboot>
    95b8:	e59f3098 	ldr	r3, [pc, #152]	@ 9658 <eqx_run_threads+0x170>
    95bc:	e59f2088 	ldr	r2, [pc, #136]	@ 964c <eqx_run_threads+0x164>
    95c0:	e59f1088 	ldr	r1, [pc, #136]	@ 9650 <eqx_run_threads+0x168>
    95c4:	e59f0090 	ldr	r0, [pc, #144]	@ 965c <eqx_run_threads+0x174>
    95c8:	eb000469 	bl	a774 <printk>
    95cc:	eb000585 	bl	abe8 <clean_reboot>
    95d0:	e59f3088 	ldr	r3, [pc, #136]	@ 9660 <eqx_run_threads+0x178>
    95d4:	e59f2070 	ldr	r2, [pc, #112]	@ 964c <eqx_run_threads+0x164>
    95d8:	e59f1070 	ldr	r1, [pc, #112]	@ 9650 <eqx_run_threads+0x168>
    95dc:	e59f0080 	ldr	r0, [pc, #128]	@ 9664 <eqx_run_threads+0x17c>
    95e0:	eb000463 	bl	a774 <printk>
    95e4:	eb00057f 	bl	abe8 <clean_reboot>
    95e8:	e59f3078 	ldr	r3, [pc, #120]	@ 9668 <eqx_run_threads+0x180>
    95ec:	e58d3000 	str	r3, [sp]
    95f0:	e59f3074 	ldr	r3, [pc, #116]	@ 966c <eqx_run_threads+0x184>
    95f4:	e59f2050 	ldr	r2, [pc, #80]	@ 964c <eqx_run_threads+0x164>
    95f8:	e59f1050 	ldr	r1, [pc, #80]	@ 9650 <eqx_run_threads+0x168>
    95fc:	e59f006c 	ldr	r0, [pc, #108]	@ 9670 <eqx_run_threads+0x188>
    9600:	eb00045b 	bl	a774 <printk>
    9604:	eb000577 	bl	abe8 <clean_reboot>
    9608:	e59f3064 	ldr	r3, [pc, #100]	@ 9674 <eqx_run_threads+0x18c>
    960c:	e58d3000 	str	r3, [sp]
    9610:	e59f3060 	ldr	r3, [pc, #96]	@ 9678 <eqx_run_threads+0x190>
    9614:	e59f2030 	ldr	r2, [pc, #48]	@ 964c <eqx_run_threads+0x164>
    9618:	e59f1030 	ldr	r1, [pc, #48]	@ 9650 <eqx_run_threads+0x168>
    961c:	e59f004c 	ldr	r0, [pc, #76]	@ 9670 <eqx_run_threads+0x188>
    9620:	eb000453 	bl	a774 <printk>
    9624:	eb00056f 	bl	abe8 <clean_reboot>
    9628:	e59f101c 	ldr	r1, [pc, #28]	@ 964c <eqx_run_threads+0x164>
    962c:	e59f0048 	ldr	r0, [pc, #72]	@ 967c <eqx_run_threads+0x194>
    9630:	eb00044f 	bl	a774 <printk>
    9634:	e59f0044 	ldr	r0, [pc, #68]	@ 9680 <eqx_run_threads+0x198>
    9638:	eb00044d 	bl	a774 <printk>
    963c:	eaffffd3 	b	9590 <eqx_run_threads+0xa8>
    9640:	0000c4a8 	.word	0x0000c4a8
    9644:	0000c49c 	.word	0x0000c49c
    9648:	000001b3 	.word	0x000001b3
    964c:	0000c2b8 	.word	0x0000c2b8
    9650:	0000b2d8 	.word	0x0000b2d8
    9654:	0000b6a8 	.word	0x0000b6a8
    9658:	000001ba 	.word	0x000001ba
    965c:	0000b6d4 	.word	0x0000b6d4
    9660:	000001ce 	.word	0x000001ce
    9664:	0000b6f8 	.word	0x0000b6f8
    9668:	0000b724 	.word	0x0000b724
    966c:	000001d1 	.word	0x000001d1
    9670:	0000b268 	.word	0x0000b268
    9674:	0000b734 	.word	0x0000b734
    9678:	000001d2 	.word	0x000001d2
    967c:	0000b0f0 	.word	0x0000b0f0
    9680:	0000b744 	.word	0x0000b744

00009684 <bits_mask>:
    9684:	e3500020 	cmp	r0, #32
    9688:	0a00000f 	beq	96cc <bits_mask+0x48>
    968c:	e350001f 	cmp	r0, #31
    9690:	8a000003 	bhi	96a4 <bits_mask+0x20>
    9694:	e3a03001 	mov	r3, #1
    9698:	e1a00013 	lsl	r0, r3, r0
    969c:	e2400001 	sub	r0, r0, #1
    96a0:	e12fff1e 	bx	lr
    96a4:	e52de004 	push	{lr}		@ (str lr, [sp, #-4]!)
    96a8:	e24dd00c 	sub	sp, sp, #12
    96ac:	e59f3020 	ldr	r3, [pc, #32]	@ 96d4 <bits_mask+0x50>
    96b0:	e58d3000 	str	r3, [sp]
    96b4:	e3a03033 	mov	r3, #51	@ 0x33
    96b8:	e59f2018 	ldr	r2, [pc, #24]	@ 96d8 <bits_mask+0x54>
    96bc:	e59f1018 	ldr	r1, [pc, #24]	@ 96dc <bits_mask+0x58>
    96c0:	e59f0018 	ldr	r0, [pc, #24]	@ 96e0 <bits_mask+0x5c>
    96c4:	eb00042a 	bl	a774 <printk>
    96c8:	eb000546 	bl	abe8 <clean_reboot>
    96cc:	e3e00000 	mvn	r0, #0
    96d0:	e12fff1e 	bx	lr
    96d4:	0000b298 	.word	0x0000b298
    96d8:	0000c2c8 	.word	0x0000c2c8
    96dc:	0000b21c 	.word	0x0000b21c
    96e0:	0000b268 	.word	0x0000b268

000096e4 <bits_get>:
    96e4:	e92d4010 	push	{r4, lr}
    96e8:	e24dd008 	sub	sp, sp, #8
    96ec:	e1510002 	cmp	r1, r2
    96f0:	8a000008 	bhi	9718 <bits_get+0x34>
    96f4:	e352001f 	cmp	r2, #31
    96f8:	8a00000e 	bhi	9738 <bits_get+0x54>
    96fc:	e1a04130 	lsr	r4, r0, r1
    9700:	e0422001 	sub	r2, r2, r1
    9704:	e2820001 	add	r0, r2, #1
    9708:	ebffffdd 	bl	9684 <bits_mask>
    970c:	e0000004 	and	r0, r0, r4
    9710:	e28dd008 	add	sp, sp, #8
    9714:	e8bd8010 	pop	{r4, pc}
    9718:	e59f3038 	ldr	r3, [pc, #56]	@ 9758 <bits_get+0x74>
    971c:	e58d3000 	str	r3, [sp]
    9720:	e3a0303a 	mov	r3, #58	@ 0x3a
    9724:	e59f2030 	ldr	r2, [pc, #48]	@ 975c <bits_get+0x78>
    9728:	e59f1030 	ldr	r1, [pc, #48]	@ 9760 <bits_get+0x7c>
    972c:	e59f0030 	ldr	r0, [pc, #48]	@ 9764 <bits_get+0x80>
    9730:	eb00040f 	bl	a774 <printk>
    9734:	eb00052b 	bl	abe8 <clean_reboot>
    9738:	e59f3028 	ldr	r3, [pc, #40]	@ 9768 <bits_get+0x84>
    973c:	e58d3000 	str	r3, [sp]
    9740:	e3a0303b 	mov	r3, #59	@ 0x3b
    9744:	e59f2010 	ldr	r2, [pc, #16]	@ 975c <bits_get+0x78>
    9748:	e59f1010 	ldr	r1, [pc, #16]	@ 9760 <bits_get+0x7c>
    974c:	e59f0010 	ldr	r0, [pc, #16]	@ 9764 <bits_get+0x80>
    9750:	eb000407 	bl	a774 <printk>
    9754:	eb000523 	bl	abe8 <clean_reboot>
    9758:	0000b2b0 	.word	0x0000b2b0
    975c:	0000c2d4 	.word	0x0000c2d4
    9760:	0000b21c 	.word	0x0000b21c
    9764:	0000b268 	.word	0x0000b268
    9768:	0000b2bc 	.word	0x0000b2bc

0000976c <mode_legal>:
    976c:	e350001f 	cmp	r0, #31
    9770:	8a000005 	bhi	978c <mode_legal+0x20>
    9774:	e59f3038 	ldr	r3, [pc, #56]	@ 97b4 <mode_legal+0x48>
    9778:	e1a03033 	lsr	r3, r3, r0
    977c:	e3130001 	tst	r3, #1
    9780:	0a000001 	beq	978c <mode_legal+0x20>
    9784:	e3a00001 	mov	r0, #1
    9788:	e12fff1e 	bx	lr
    978c:	e52de004 	push	{lr}		@ (str lr, [sp, #-4]!)
    9790:	e24dd00c 	sub	sp, sp, #12
    9794:	e58d0004 	str	r0, [sp, #4]
    9798:	e58d0000 	str	r0, [sp]
    979c:	e3a03013 	mov	r3, #19
    97a0:	e59f2010 	ldr	r2, [pc, #16]	@ 97b8 <mode_legal+0x4c>
    97a4:	e59f1010 	ldr	r1, [pc, #16]	@ 97bc <mode_legal+0x50>
    97a8:	e59f0010 	ldr	r0, [pc, #16]	@ 97c0 <mode_legal+0x54>
    97ac:	eb0003f0 	bl	a774 <printk>
    97b0:	eb00050c 	bl	abe8 <clean_reboot>
    97b4:	888d0000 	.word	0x888d0000
    97b8:	0000c2e0 	.word	0x0000c2e0
    97bc:	0000b1a4 	.word	0x0000b1a4
    97c0:	0000b1f0 	.word	0x0000b1f0

000097c4 <mode_get>:
    97c4:	e92d4010 	push	{r4, lr}
    97c8:	e24dd008 	sub	sp, sp, #8
    97cc:	e3a02004 	mov	r2, #4
    97d0:	e3a01000 	mov	r1, #0
    97d4:	ebffffc2 	bl	96e4 <bits_get>
    97d8:	e1a04000 	mov	r4, r0
    97dc:	ebffffe2 	bl	976c <mode_legal>
    97e0:	e3500000 	cmp	r0, #0
    97e4:	0a000002 	beq	97f4 <mode_get+0x30>
    97e8:	e1a00004 	mov	r0, r4
    97ec:	e28dd008 	add	sp, sp, #8
    97f0:	e8bd8010 	pop	{r4, pc}
    97f4:	e59f3018 	ldr	r3, [pc, #24]	@ 9814 <mode_get+0x50>
    97f8:	e58d3000 	str	r3, [sp]
    97fc:	e3a03019 	mov	r3, #25
    9800:	e59f2010 	ldr	r2, [pc, #16]	@ 9818 <mode_get+0x54>
    9804:	e59f1010 	ldr	r1, [pc, #16]	@ 981c <mode_get+0x58>
    9808:	e59f0010 	ldr	r0, [pc, #16]	@ 9820 <mode_get+0x5c>
    980c:	eb0003d8 	bl	a774 <printk>
    9810:	eb0004f4 	bl	abe8 <clean_reboot>
    9814:	0000b2c4 	.word	0x0000b2c4
    9818:	0000c2ec 	.word	0x0000c2ec
    981c:	0000b1a4 	.word	0x0000b1a4
    9820:	0000b268 	.word	0x0000b268

00009824 <vector_base_set>:
    9824:	e52de004 	push	{lr}		@ (str lr, [sp, #-4]!)
    9828:	e24dd00c 	sub	sp, sp, #12
    982c:	e3500000 	cmp	r0, #0
    9830:	0a00000e 	beq	9870 <vector_base_set+0x4c>
    9834:	e310001f 	tst	r0, #31
    9838:	1a00000c 	bne	9870 <vector_base_set+0x4c>
    983c:	ee1c3f10 	mrc	15, 0, r3, cr12, cr0, {0}
    9840:	e1500003 	cmp	r0, r3
    9844:	0a000007 	beq	9868 <vector_base_set+0x44>
    9848:	e3530000 	cmp	r3, #0
    984c:	1a00000e 	bne	988c <vector_base_set+0x68>
    9850:	ee0c0f10 	mcr	15, 0, r0, cr12, cr0, {0}
    9854:	e3a03000 	mov	r3, #0
    9858:	ee073f95 	mcr	15, 0, r3, cr7, cr5, {4}
    985c:	ee1c3f10 	mrc	15, 0, r3, cr12, cr0, {0}
    9860:	e1500003 	cmp	r0, r3
    9864:	1a00000f 	bne	98a8 <vector_base_set+0x84>
    9868:	e28dd00c 	add	sp, sp, #12
    986c:	e49df004 	pop	{pc}		@ (ldr pc, [sp], #4)
    9870:	e58d0000 	str	r0, [sp]
    9874:	e3a0302a 	mov	r3, #42	@ 0x2a
    9878:	e59f2048 	ldr	r2, [pc, #72]	@ 98c8 <vector_base_set+0xa4>
    987c:	e59f1048 	ldr	r1, [pc, #72]	@ 98cc <vector_base_set+0xa8>
    9880:	e59f0048 	ldr	r0, [pc, #72]	@ 98d0 <vector_base_set+0xac>
    9884:	eb0003ba 	bl	a774 <printk>
    9888:	eb0004d6 	bl	abe8 <clean_reboot>
    988c:	e58d3000 	str	r3, [sp]
    9890:	e3a03032 	mov	r3, #50	@ 0x32
    9894:	e59f202c 	ldr	r2, [pc, #44]	@ 98c8 <vector_base_set+0xa4>
    9898:	e59f102c 	ldr	r1, [pc, #44]	@ 98cc <vector_base_set+0xa8>
    989c:	e59f0030 	ldr	r0, [pc, #48]	@ 98d4 <vector_base_set+0xb0>
    98a0:	eb0003b3 	bl	a774 <printk>
    98a4:	eb0004cf 	bl	abe8 <clean_reboot>
    98a8:	e58d3004 	str	r3, [sp, #4]
    98ac:	e58d0000 	str	r0, [sp]
    98b0:	e3a03038 	mov	r3, #56	@ 0x38
    98b4:	e59f200c 	ldr	r2, [pc, #12]	@ 98c8 <vector_base_set+0xa4>
    98b8:	e59f100c 	ldr	r1, [pc, #12]	@ 98cc <vector_base_set+0xa8>
    98bc:	e59f0014 	ldr	r0, [pc, #20]	@ 98d8 <vector_base_set+0xb4>
    98c0:	eb0003ab 	bl	a774 <printk>
    98c4:	eb0004c7 	bl	abe8 <clean_reboot>
    98c8:	0000c2f8 	.word	0x0000c2f8
    98cc:	0000b75c 	.word	0x0000b75c
    98d0:	0000b7a4 	.word	0x0000b7a4
    98d4:	0000b7cc 	.word	0x0000b7cc
    98d8:	0000b804 	.word	0x0000b804

000098dc <fixup_regs>:
    98dc:	e92d4070 	push	{r4, r5, r6, lr}
    98e0:	e1a05000 	mov	r5, r0
    98e4:	e1a04001 	mov	r4, r1
    98e8:	e1a00001 	mov	r0, r1
    98ec:	ebffffb4 	bl	97c4 <mode_get>
    98f0:	e3500010 	cmp	r0, #16
    98f4:	08bd8070 	popeq	{r4, r5, r6, pc}
    98f8:	e2852038 	add	r2, r5, #56	@ 0x38
    98fc:	e2851034 	add	r1, r5, #52	@ 0x34
    9900:	e1a00004 	mov	r0, r4
    9904:	ebfffaa4 	bl	839c <priv_get_sp_lr_asm>
    9908:	e8bd8070 	pop	{r4, r5, r6, pc}

0000990c <switchto>:
    990c:	e92d4010 	push	{r4, lr}
    9910:	e1a04000 	mov	r4, r0
    9914:	e5900040 	ldr	r0, [r0, #64]	@ 0x40
    9918:	ebffffa9 	bl	97c4 <mode_get>
    991c:	e3500010 	cmp	r0, #16
    9920:	0a000001 	beq	992c <switchto+0x20>
    9924:	e1a00004 	mov	r0, r4
    9928:	ebfffac0 	bl	8430 <switchto_priv_asm>
    992c:	e1a00004 	mov	r0, r4
    9930:	ebfffaae 	bl	83f0 <switchto_user_asm>

00009934 <prefetch_abort_full_except>:
    9934:	e52de004 	push	{lr}		@ (str lr, [sp, #-4]!)
    9938:	e24dd00c 	sub	sp, sp, #12
    993c:	e5903040 	ldr	r3, [r0, #64]	@ 0x40
    9940:	e1530001 	cmp	r3, r1
    9944:	1a00000e 	bne	9984 <prefetch_abort_full_except+0x50>
    9948:	e1a04000 	mov	r4, r0
    994c:	e590303c 	ldr	r3, [r0, #60]	@ 0x3c
    9950:	e1530002 	cmp	r3, r2
    9954:	1a000012 	bne	99a4 <prefetch_abort_full_except+0x70>
    9958:	e59f3080 	ldr	r3, [pc, #128]	@ 99e0 <prefetch_abort_full_except+0xac>
    995c:	e5933000 	ldr	r3, [r3]
    9960:	e3530000 	cmp	r3, #0
    9964:	0a000016 	beq	99c4 <prefetch_abort_full_except+0x90>
    9968:	ebffffdb 	bl	98dc <fixup_regs>
    996c:	e59f306c 	ldr	r3, [pc, #108]	@ 99e0 <prefetch_abort_full_except+0xac>
    9970:	e5933000 	ldr	r3, [r3]
    9974:	e1a00004 	mov	r0, r4
    9978:	e12fff33 	blx	r3
    997c:	e1a00004 	mov	r0, r4
    9980:	ebffffe1 	bl	990c <switchto>
    9984:	e59f3058 	ldr	r3, [pc, #88]	@ 99e4 <prefetch_abort_full_except+0xb0>
    9988:	e58d3000 	str	r3, [sp]
    998c:	e3a03031 	mov	r3, #49	@ 0x31
    9990:	e59f2050 	ldr	r2, [pc, #80]	@ 99e8 <prefetch_abort_full_except+0xb4>
    9994:	e59f1050 	ldr	r1, [pc, #80]	@ 99ec <prefetch_abort_full_except+0xb8>
    9998:	e59f0050 	ldr	r0, [pc, #80]	@ 99f0 <prefetch_abort_full_except+0xbc>
    999c:	eb000374 	bl	a774 <printk>
    99a0:	eb000490 	bl	abe8 <clean_reboot>
    99a4:	e59f3048 	ldr	r3, [pc, #72]	@ 99f4 <prefetch_abort_full_except+0xc0>
    99a8:	e58d3000 	str	r3, [sp]
    99ac:	e3a03032 	mov	r3, #50	@ 0x32
    99b0:	e59f2030 	ldr	r2, [pc, #48]	@ 99e8 <prefetch_abort_full_except+0xb4>
    99b4:	e59f1030 	ldr	r1, [pc, #48]	@ 99ec <prefetch_abort_full_except+0xb8>
    99b8:	e59f0030 	ldr	r0, [pc, #48]	@ 99f0 <prefetch_abort_full_except+0xbc>
    99bc:	eb00036c 	bl	a774 <printk>
    99c0:	eb000488 	bl	abe8 <clean_reboot>
    99c4:	e58d2000 	str	r2, [sp]
    99c8:	e3a03035 	mov	r3, #53	@ 0x35
    99cc:	e59f2014 	ldr	r2, [pc, #20]	@ 99e8 <prefetch_abort_full_except+0xb4>
    99d0:	e59f1014 	ldr	r1, [pc, #20]	@ 99ec <prefetch_abort_full_except+0xb8>
    99d4:	e59f001c 	ldr	r0, [pc, #28]	@ 99f8 <prefetch_abort_full_except+0xc4>
    99d8:	eb000365 	bl	a774 <printk>
    99dc:	eb000481 	bl	abe8 <clean_reboot>
    99e0:	0000c500 	.word	0x0000c500
    99e4:	0000b844 	.word	0x0000b844
    99e8:	0000c308 	.word	0x0000c308
    99ec:	0000b830 	.word	0x0000b830
    99f0:	0000b268 	.word	0x0000b268
    99f4:	0000b860 	.word	0x0000b860
    99f8:	0000b878 	.word	0x0000b878

000099fc <data_abort_full_except>:
    99fc:	e52de004 	push	{lr}		@ (str lr, [sp, #-4]!)
    9a00:	e24dd00c 	sub	sp, sp, #12
    9a04:	e5903040 	ldr	r3, [r0, #64]	@ 0x40
    9a08:	e1530001 	cmp	r3, r1
    9a0c:	1a00000e 	bne	9a4c <data_abort_full_except+0x50>
    9a10:	e1a04000 	mov	r4, r0
    9a14:	e590303c 	ldr	r3, [r0, #60]	@ 0x3c
    9a18:	e1530002 	cmp	r3, r2
    9a1c:	1a000012 	bne	9a6c <data_abort_full_except+0x70>
    9a20:	e59f3080 	ldr	r3, [pc, #128]	@ 9aa8 <data_abort_full_except+0xac>
    9a24:	e5933004 	ldr	r3, [r3, #4]
    9a28:	e3530000 	cmp	r3, #0
    9a2c:	0a000016 	beq	9a8c <data_abort_full_except+0x90>
    9a30:	ebffffa9 	bl	98dc <fixup_regs>
    9a34:	e59f306c 	ldr	r3, [pc, #108]	@ 9aa8 <data_abort_full_except+0xac>
    9a38:	e5933004 	ldr	r3, [r3, #4]
    9a3c:	e1a00004 	mov	r0, r4
    9a40:	e12fff33 	blx	r3
    9a44:	e1a00004 	mov	r0, r4
    9a48:	ebffffaf 	bl	990c <switchto>
    9a4c:	e59f3058 	ldr	r3, [pc, #88]	@ 9aac <data_abort_full_except+0xb0>
    9a50:	e58d3000 	str	r3, [sp]
    9a54:	e3a0303e 	mov	r3, #62	@ 0x3e
    9a58:	e59f2050 	ldr	r2, [pc, #80]	@ 9ab0 <data_abort_full_except+0xb4>
    9a5c:	e59f1050 	ldr	r1, [pc, #80]	@ 9ab4 <data_abort_full_except+0xb8>
    9a60:	e59f0050 	ldr	r0, [pc, #80]	@ 9ab8 <data_abort_full_except+0xbc>
    9a64:	eb000342 	bl	a774 <printk>
    9a68:	eb00045e 	bl	abe8 <clean_reboot>
    9a6c:	e59f3048 	ldr	r3, [pc, #72]	@ 9abc <data_abort_full_except+0xc0>
    9a70:	e58d3000 	str	r3, [sp]
    9a74:	e3a0303f 	mov	r3, #63	@ 0x3f
    9a78:	e59f2030 	ldr	r2, [pc, #48]	@ 9ab0 <data_abort_full_except+0xb4>
    9a7c:	e59f1030 	ldr	r1, [pc, #48]	@ 9ab4 <data_abort_full_except+0xb8>
    9a80:	e59f0030 	ldr	r0, [pc, #48]	@ 9ab8 <data_abort_full_except+0xbc>
    9a84:	eb00033a 	bl	a774 <printk>
    9a88:	eb000456 	bl	abe8 <clean_reboot>
    9a8c:	e58d2000 	str	r2, [sp]
    9a90:	e3a03042 	mov	r3, #66	@ 0x42
    9a94:	e59f2014 	ldr	r2, [pc, #20]	@ 9ab0 <data_abort_full_except+0xb4>
    9a98:	e59f1014 	ldr	r1, [pc, #20]	@ 9ab4 <data_abort_full_except+0xb8>
    9a9c:	e59f001c 	ldr	r0, [pc, #28]	@ 9ac0 <data_abort_full_except+0xc4>
    9aa0:	eb000333 	bl	a774 <printk>
    9aa4:	eb00044f 	bl	abe8 <clean_reboot>
    9aa8:	0000c500 	.word	0x0000c500
    9aac:	0000b844 	.word	0x0000b844
    9ab0:	0000c324 	.word	0x0000c324
    9ab4:	0000b830 	.word	0x0000b830
    9ab8:	0000b268 	.word	0x0000b268
    9abc:	0000b860 	.word	0x0000b860
    9ac0:	0000b8b0 	.word	0x0000b8b0

00009ac4 <syscall_full_except>:
    9ac4:	e52de004 	push	{lr}		@ (str lr, [sp, #-4]!)
    9ac8:	e24dd014 	sub	sp, sp, #20
    9acc:	e5903040 	ldr	r3, [r0, #64]	@ 0x40
    9ad0:	e1530001 	cmp	r3, r1
    9ad4:	1a00000c 	bne	9b0c <syscall_full_except+0x48>
    9ad8:	e1a04000 	mov	r4, r0
    9adc:	e1a05002 	mov	r5, r2
    9ae0:	e590303c 	ldr	r3, [r0, #60]	@ 0x3c
    9ae4:	e1530002 	cmp	r3, r2
    9ae8:	0a00000f 	beq	9b2c <syscall_full_except+0x68>
    9aec:	e59f30d0 	ldr	r3, [pc, #208]	@ 9bc4 <syscall_full_except+0x100>
    9af0:	e58d3000 	str	r3, [sp]
    9af4:	e3a0304d 	mov	r3, #77	@ 0x4d
    9af8:	e59f20c8 	ldr	r2, [pc, #200]	@ 9bc8 <syscall_full_except+0x104>
    9afc:	e59f10c8 	ldr	r1, [pc, #200]	@ 9bcc <syscall_full_except+0x108>
    9b00:	e59f00c8 	ldr	r0, [pc, #200]	@ 9bd0 <syscall_full_except+0x10c>
    9b04:	eb00031a 	bl	a774 <printk>
    9b08:	eb000436 	bl	abe8 <clean_reboot>
    9b0c:	e59f30c0 	ldr	r3, [pc, #192]	@ 9bd4 <syscall_full_except+0x110>
    9b10:	e58d3000 	str	r3, [sp]
    9b14:	e3a0304c 	mov	r3, #76	@ 0x4c
    9b18:	e59f20a8 	ldr	r2, [pc, #168]	@ 9bc8 <syscall_full_except+0x104>
    9b1c:	e59f10a8 	ldr	r1, [pc, #168]	@ 9bcc <syscall_full_except+0x108>
    9b20:	e59f00a8 	ldr	r0, [pc, #168]	@ 9bd0 <syscall_full_except+0x10c>
    9b24:	eb000312 	bl	a774 <printk>
    9b28:	eb00042e 	bl	abe8 <clean_reboot>
    9b2c:	e1a00001 	mov	r0, r1
    9b30:	ebffff23 	bl	97c4 <mode_get>
    9b34:	e3500010 	cmp	r0, #16
    9b38:	1a00000c 	bne	9b70 <syscall_full_except+0xac>
    9b3c:	e28d200c 	add	r2, sp, #12
    9b40:	e59f3090 	ldr	r3, [pc, #144]	@ 9bd8 <syscall_full_except+0x114>
    9b44:	e1520003 	cmp	r2, r3
    9b48:	9a00000e 	bls	9b88 <syscall_full_except+0xc4>
    9b4c:	e59f3088 	ldr	r3, [pc, #136]	@ 9bdc <syscall_full_except+0x118>
    9b50:	e5933008 	ldr	r3, [r3, #8]
    9b54:	e3530000 	cmp	r3, #0
    9b58:	0a000012 	beq	9ba8 <syscall_full_except+0xe4>
    9b5c:	e1a00004 	mov	r0, r4
    9b60:	e12fff33 	blx	r3
    9b64:	e5840000 	str	r0, [r4]
    9b68:	e1a00004 	mov	r0, r4
    9b6c:	ebffff66 	bl	990c <switchto>
    9b70:	e3a03050 	mov	r3, #80	@ 0x50
    9b74:	e59f204c 	ldr	r2, [pc, #76]	@ 9bc8 <syscall_full_except+0x104>
    9b78:	e59f104c 	ldr	r1, [pc, #76]	@ 9bcc <syscall_full_except+0x108>
    9b7c:	e59f005c 	ldr	r0, [pc, #92]	@ 9be0 <syscall_full_except+0x11c>
    9b80:	eb0002fb 	bl	a774 <printk>
    9b84:	eb000417 	bl	abe8 <clean_reboot>
    9b88:	e59f3054 	ldr	r3, [pc, #84]	@ 9be4 <syscall_full_except+0x120>
    9b8c:	e58d3000 	str	r3, [sp]
    9b90:	e3a03055 	mov	r3, #85	@ 0x55
    9b94:	e59f202c 	ldr	r2, [pc, #44]	@ 9bc8 <syscall_full_except+0x104>
    9b98:	e59f102c 	ldr	r1, [pc, #44]	@ 9bcc <syscall_full_except+0x108>
    9b9c:	e59f0044 	ldr	r0, [pc, #68]	@ 9be8 <syscall_full_except+0x124>
    9ba0:	eb0002f3 	bl	a774 <printk>
    9ba4:	eb00040f 	bl	abe8 <clean_reboot>
    9ba8:	e58d5000 	str	r5, [sp]
    9bac:	e3a0305a 	mov	r3, #90	@ 0x5a
    9bb0:	e59f2010 	ldr	r2, [pc, #16]	@ 9bc8 <syscall_full_except+0x104>
    9bb4:	e59f1010 	ldr	r1, [pc, #16]	@ 9bcc <syscall_full_except+0x108>
    9bb8:	e59f002c 	ldr	r0, [pc, #44]	@ 9bec <syscall_full_except+0x128>
    9bbc:	eb0002ec 	bl	a774 <printk>
    9bc0:	eb000408 	bl	abe8 <clean_reboot>
    9bc4:	0000b860 	.word	0x0000b860
    9bc8:	0000c33c 	.word	0x0000c33c
    9bcc:	0000b830 	.word	0x0000b830
    9bd0:	0000b268 	.word	0x0000b268
    9bd4:	0000b844 	.word	0x0000b844
    9bd8:	000186a0 	.word	0x000186a0
    9bdc:	0000c500 	.word	0x0000c500
    9be0:	0000b8e4 	.word	0x0000b8e4
    9be4:	0000b964 	.word	0x0000b964
    9be8:	0000b920 	.word	0x0000b920
    9bec:	0000b97c 	.word	0x0000b97c

00009bf0 <full_except_set_prefetch>:
    9bf0:	e59f300c 	ldr	r3, [pc, #12]	@ 9c04 <full_except_set_prefetch+0x14>
    9bf4:	e5932000 	ldr	r2, [r3]
    9bf8:	e5830000 	str	r0, [r3]
    9bfc:	e1a00002 	mov	r0, r2
    9c00:	e12fff1e 	bx	lr
    9c04:	0000c500 	.word	0x0000c500

00009c08 <full_except_set_data_abort>:
    9c08:	e59f300c 	ldr	r3, [pc, #12]	@ 9c1c <full_except_set_data_abort+0x14>
    9c0c:	e5932004 	ldr	r2, [r3, #4]
    9c10:	e5830004 	str	r0, [r3, #4]
    9c14:	e1a00002 	mov	r0, r2
    9c18:	e12fff1e 	bx	lr
    9c1c:	0000c500 	.word	0x0000c500

00009c20 <full_except_set_syscall>:
    9c20:	e59f300c 	ldr	r3, [pc, #12]	@ 9c34 <full_except_set_syscall+0x14>
    9c24:	e5932008 	ldr	r2, [r3, #8]
    9c28:	e5830008 	str	r0, [r3, #8]
    9c2c:	e1a00002 	mov	r0, r2
    9c30:	e12fff1e 	bx	lr
    9c34:	0000c500 	.word	0x0000c500

00009c38 <full_except_install>:
    9c38:	e52de004 	push	{lr}		@ (str lr, [sp, #-4]!)
    9c3c:	e24dd00c 	sub	sp, sp, #12
    9c40:	e3500000 	cmp	r0, #0
    9c44:	1a000007 	bne	9c68 <full_except_install+0x30>
    9c48:	ee1c3f10 	mrc	15, 0, r3, cr12, cr0, {0}
    9c4c:	e3530000 	cmp	r3, #0
    9c50:	0a000007 	beq	9c74 <full_except_install+0x3c>
    9c54:	e59f2040 	ldr	r2, [pc, #64]	@ 9c9c <full_except_install+0x64>
    9c58:	e1530002 	cmp	r3, r2
    9c5c:	1a000007 	bne	9c80 <full_except_install+0x48>
    9c60:	e28dd00c 	add	sp, sp, #12
    9c64:	e49df004 	pop	{pc}		@ (ldr pc, [sp], #4)
    9c68:	e59f002c 	ldr	r0, [pc, #44]	@ 9c9c <full_except_install+0x64>
    9c6c:	ebfffeec 	bl	9824 <vector_base_set>
    9c70:	eafffffa 	b	9c60 <full_except_install+0x28>
    9c74:	e59f0020 	ldr	r0, [pc, #32]	@ 9c9c <full_except_install+0x64>
    9c78:	ebfffee9 	bl	9824 <vector_base_set>
    9c7c:	eafffff7 	b	9c60 <full_except_install+0x28>
    9c80:	e58d3000 	str	r3, [sp]
    9c84:	e3a03089 	mov	r3, #137	@ 0x89
    9c88:	e59f2010 	ldr	r2, [pc, #16]	@ 9ca0 <full_except_install+0x68>
    9c8c:	e59f1010 	ldr	r1, [pc, #16]	@ 9ca4 <full_except_install+0x6c>
    9c90:	e59f0010 	ldr	r0, [pc, #16]	@ 9ca8 <full_except_install+0x70>
    9c94:	eb0002b6 	bl	a774 <printk>
    9c98:	eb0003d2 	bl	abe8 <clean_reboot>
    9c9c:	000086e0 	.word	0x000086e0
    9ca0:	0000c350 	.word	0x0000c350
    9ca4:	0000b830 	.word	0x0000b830
    9ca8:	0000b9ac 	.word	0x0000b9ac

00009cac <cp14_enable>:
    9cac:	e52de004 	push	{lr}		@ (str lr, [sp, #-4]!)
    9cb0:	e24dd00c 	sub	sp, sp, #12
    9cb4:	e59f0118 	ldr	r0, [pc, #280]	@ 9dd4 <cp14_enable+0x128>
    9cb8:	eb0002ad 	bl	a774 <printk>
    9cbc:	ee103e11 	mrc	14, 0, r3, cr0, cr1, {0}
    9cc0:	e3130901 	tst	r3, #16384	@ 0x4000
    9cc4:	1a000012 	bne	9d14 <cp14_enable+0x68>
    9cc8:	e3130902 	tst	r3, #32768	@ 0x8000
    9ccc:	1a000018 	bne	9d34 <cp14_enable+0x88>
    9cd0:	e3130902 	tst	r3, #32768	@ 0x8000
    9cd4:	1a00001e 	bne	9d54 <cp14_enable+0xa8>
    9cd8:	e3130901 	tst	r3, #16384	@ 0x4000
    9cdc:	1a000024 	bne	9d74 <cp14_enable+0xc8>
    9ce0:	e3833902 	orr	r3, r3, #32768	@ 0x8000
    9ce4:	ee003e11 	mcr	14, 0, r3, cr0, cr1, {0}
    9ce8:	e3a03000 	mov	r3, #0
    9cec:	ee073f95 	mcr	15, 0, r3, cr7, cr5, {4}
    9cf0:	ee103e11 	mrc	14, 0, r3, cr0, cr1, {0}
    9cf4:	e3130902 	tst	r3, #32768	@ 0x8000
    9cf8:	0a000025 	beq	9d94 <cp14_enable+0xe8>
    9cfc:	e3130901 	tst	r3, #16384	@ 0x4000
    9d00:	1a00002b 	bne	9db4 <cp14_enable+0x108>
    9d04:	e3a03000 	mov	r3, #0
    9d08:	ee073f95 	mcr	15, 0, r3, cr7, cr5, {4}
    9d0c:	e28dd00c 	add	sp, sp, #12
    9d10:	e49df004 	pop	{pc}		@ (ldr pc, [sp], #4)
    9d14:	e59f30bc 	ldr	r3, [pc, #188]	@ 9dd8 <cp14_enable+0x12c>
    9d18:	e58d3000 	str	r3, [sp]
    9d1c:	e3a0301f 	mov	r3, #31
    9d20:	e59f20b4 	ldr	r2, [pc, #180]	@ 9ddc <cp14_enable+0x130>
    9d24:	e59f10b4 	ldr	r1, [pc, #180]	@ 9de0 <cp14_enable+0x134>
    9d28:	e59f00b4 	ldr	r0, [pc, #180]	@ 9de4 <cp14_enable+0x138>
    9d2c:	eb000290 	bl	a774 <printk>
    9d30:	eb0003ac 	bl	abe8 <clean_reboot>
    9d34:	e59f30ac 	ldr	r3, [pc, #172]	@ 9de8 <cp14_enable+0x13c>
    9d38:	e58d3000 	str	r3, [sp]
    9d3c:	e3a03020 	mov	r3, #32
    9d40:	e59f2094 	ldr	r2, [pc, #148]	@ 9ddc <cp14_enable+0x130>
    9d44:	e59f1094 	ldr	r1, [pc, #148]	@ 9de0 <cp14_enable+0x134>
    9d48:	e59f0094 	ldr	r0, [pc, #148]	@ 9de4 <cp14_enable+0x138>
    9d4c:	eb000288 	bl	a774 <printk>
    9d50:	eb0003a4 	bl	abe8 <clean_reboot>
    9d54:	e59f3090 	ldr	r3, [pc, #144]	@ 9dec <cp14_enable+0x140>
    9d58:	e58d3000 	str	r3, [sp]
    9d5c:	e3a03021 	mov	r3, #33	@ 0x21
    9d60:	e59f2074 	ldr	r2, [pc, #116]	@ 9ddc <cp14_enable+0x130>
    9d64:	e59f1074 	ldr	r1, [pc, #116]	@ 9de0 <cp14_enable+0x134>
    9d68:	e59f0074 	ldr	r0, [pc, #116]	@ 9de4 <cp14_enable+0x138>
    9d6c:	eb000280 	bl	a774 <printk>
    9d70:	eb00039c 	bl	abe8 <clean_reboot>
    9d74:	e59f3074 	ldr	r3, [pc, #116]	@ 9df0 <cp14_enable+0x144>
    9d78:	e58d3000 	str	r3, [sp]
    9d7c:	e3a03022 	mov	r3, #34	@ 0x22
    9d80:	e59f2054 	ldr	r2, [pc, #84]	@ 9ddc <cp14_enable+0x130>
    9d84:	e59f1054 	ldr	r1, [pc, #84]	@ 9de0 <cp14_enable+0x134>
    9d88:	e59f0054 	ldr	r0, [pc, #84]	@ 9de4 <cp14_enable+0x138>
    9d8c:	eb000278 	bl	a774 <printk>
    9d90:	eb000394 	bl	abe8 <clean_reboot>
    9d94:	e59f3058 	ldr	r3, [pc, #88]	@ 9df4 <cp14_enable+0x148>
    9d98:	e58d3000 	str	r3, [sp]
    9d9c:	e3a03026 	mov	r3, #38	@ 0x26
    9da0:	e59f2034 	ldr	r2, [pc, #52]	@ 9ddc <cp14_enable+0x130>
    9da4:	e59f1034 	ldr	r1, [pc, #52]	@ 9de0 <cp14_enable+0x134>
    9da8:	e59f0034 	ldr	r0, [pc, #52]	@ 9de4 <cp14_enable+0x138>
    9dac:	eb000270 	bl	a774 <printk>
    9db0:	eb00038c 	bl	abe8 <clean_reboot>
    9db4:	e59f301c 	ldr	r3, [pc, #28]	@ 9dd8 <cp14_enable+0x12c>
    9db8:	e58d3000 	str	r3, [sp]
    9dbc:	e3a03027 	mov	r3, #39	@ 0x27
    9dc0:	e59f2014 	ldr	r2, [pc, #20]	@ 9ddc <cp14_enable+0x130>
    9dc4:	e59f1014 	ldr	r1, [pc, #20]	@ 9de0 <cp14_enable+0x134>
    9dc8:	e59f0014 	ldr	r0, [pc, #20]	@ 9de4 <cp14_enable+0x138>
    9dcc:	eb000268 	bl	a774 <printk>
    9dd0:	eb000384 	bl	abe8 <clean_reboot>
    9dd4:	0000b9f0 	.word	0x0000b9f0
    9dd8:	0000ba0c 	.word	0x0000ba0c
    9ddc:	0000c364 	.word	0x0000c364
    9de0:	0000b9f8 	.word	0x0000b9f8
    9de4:	0000b268 	.word	0x0000b268
    9de8:	0000ba20 	.word	0x0000ba20
    9dec:	0000ba34 	.word	0x0000ba34
    9df0:	0000ba4c 	.word	0x0000ba4c
    9df4:	0000ba64 	.word	0x0000ba64

00009df8 <brkpt_match_set>:
    9df8:	e52de004 	push	{lr}		@ (str lr, [sp, #-4]!)
    9dfc:	e24dd00c 	sub	sp, sp, #12
    9e00:	e3100003 	tst	r0, #3
    9e04:	1a00000d 	bne	9e40 <brkpt_match_set+0x48>
    9e08:	ee000e91 	mcr	14, 0, r0, cr0, cr1, {4}
    9e0c:	e3a03000 	mov	r3, #0
    9e10:	ee073f95 	mcr	15, 0, r3, cr7, cr5, {4}
    9e14:	ee103e91 	mrc	14, 0, r3, cr0, cr1, {4}
    9e18:	e1500003 	cmp	r0, r3
    9e1c:	0a00000f 	beq	9e60 <brkpt_match_set+0x68>
    9e20:	e58d3004 	str	r3, [sp, #4]
    9e24:	e58d0000 	str	r0, [sp]
    9e28:	e3a03048 	mov	r3, #72	@ 0x48
    9e2c:	e59f2044 	ldr	r2, [pc, #68]	@ 9e78 <brkpt_match_set+0x80>
    9e30:	e59f1044 	ldr	r1, [pc, #68]	@ 9e7c <brkpt_match_set+0x84>
    9e34:	e59f0044 	ldr	r0, [pc, #68]	@ 9e80 <brkpt_match_set+0x88>
    9e38:	eb00024d 	bl	a774 <printk>
    9e3c:	eb000369 	bl	abe8 <clean_reboot>
    9e40:	e59f303c 	ldr	r3, [pc, #60]	@ 9e84 <brkpt_match_set+0x8c>
    9e44:	e58d3000 	str	r3, [sp]
    9e48:	e3a03043 	mov	r3, #67	@ 0x43
    9e4c:	e59f2024 	ldr	r2, [pc, #36]	@ 9e78 <brkpt_match_set+0x80>
    9e50:	e59f1024 	ldr	r1, [pc, #36]	@ 9e7c <brkpt_match_set+0x84>
    9e54:	e59f002c 	ldr	r0, [pc, #44]	@ 9e88 <brkpt_match_set+0x90>
    9e58:	eb000245 	bl	a774 <printk>
    9e5c:	eb000361 	bl	abe8 <clean_reboot>
    9e60:	e3a0304e 	mov	r3, #78	@ 0x4e
    9e64:	e59f200c 	ldr	r2, [pc, #12]	@ 9e78 <brkpt_match_set+0x80>
    9e68:	e59f100c 	ldr	r1, [pc, #12]	@ 9e7c <brkpt_match_set+0x84>
    9e6c:	e59f0018 	ldr	r0, [pc, #24]	@ 9e8c <brkpt_match_set+0x94>
    9e70:	eb00023f 	bl	a774 <printk>
    9e74:	eb00035b 	bl	abe8 <clean_reboot>
    9e78:	0000c370 	.word	0x0000c370
    9e7c:	0000b9f8 	.word	0x0000b9f8
    9e80:	0000ba88 	.word	0x0000ba88
    9e84:	0000ba78 	.word	0x0000ba78
    9e88:	0000b268 	.word	0x0000b268
    9e8c:	0000bab0 	.word	0x0000bab0

00009e90 <brkpt_mismatch_set>:
    9e90:	e52de004 	push	{lr}		@ (str lr, [sp, #-4]!)
    9e94:	e24dd00c 	sub	sp, sp, #12
    9e98:	e3100003 	tst	r0, #3
    9e9c:	1a000010 	bne	9ee4 <brkpt_mismatch_set+0x54>
    9ea0:	ee000e90 	mcr	14, 0, r0, cr0, cr0, {4}
    9ea4:	e3a03000 	mov	r3, #0
    9ea8:	ee073f95 	mcr	15, 0, r3, cr7, cr5, {4}
    9eac:	ee103e90 	mrc	14, 0, r3, cr0, cr0, {4}
    9eb0:	e1500003 	cmp	r0, r3
    9eb4:	1a000012 	bne	9f04 <brkpt_mismatch_set+0x74>
    9eb8:	e59f3084 	ldr	r3, [pc, #132]	@ 9f44 <brkpt_mismatch_set+0xb4>
    9ebc:	ee003eb0 	mcr	14, 0, r3, cr0, cr0, {5}
    9ec0:	e3a02000 	mov	r2, #0
    9ec4:	ee072f95 	mcr	15, 0, r2, cr7, cr5, {4}
    9ec8:	ee102eb0 	mrc	14, 0, r2, cr0, cr0, {5}
    9ecc:	e1520003 	cmp	r2, r3
    9ed0:	1a000013 	bne	9f24 <brkpt_mismatch_set+0x94>
    9ed4:	e3a03000 	mov	r3, #0
    9ed8:	ee073f95 	mcr	15, 0, r3, cr7, cr5, {4}
    9edc:	e28dd00c 	add	sp, sp, #12
    9ee0:	e49df004 	pop	{pc}		@ (ldr pc, [sp], #4)
    9ee4:	e59f305c 	ldr	r3, [pc, #92]	@ 9f48 <brkpt_mismatch_set+0xb8>
    9ee8:	e58d3000 	str	r3, [sp]
    9eec:	e3a03059 	mov	r3, #89	@ 0x59
    9ef0:	e59f2054 	ldr	r2, [pc, #84]	@ 9f4c <brkpt_mismatch_set+0xbc>
    9ef4:	e59f1054 	ldr	r1, [pc, #84]	@ 9f50 <brkpt_mismatch_set+0xc0>
    9ef8:	e59f0054 	ldr	r0, [pc, #84]	@ 9f54 <brkpt_mismatch_set+0xc4>
    9efc:	eb00021c 	bl	a774 <printk>
    9f00:	eb000338 	bl	abe8 <clean_reboot>
    9f04:	e58d3004 	str	r3, [sp, #4]
    9f08:	e58d0000 	str	r0, [sp]
    9f0c:	e3a0305e 	mov	r3, #94	@ 0x5e
    9f10:	e59f2034 	ldr	r2, [pc, #52]	@ 9f4c <brkpt_mismatch_set+0xbc>
    9f14:	e59f1034 	ldr	r1, [pc, #52]	@ 9f50 <brkpt_mismatch_set+0xc0>
    9f18:	e59f0038 	ldr	r0, [pc, #56]	@ 9f58 <brkpt_mismatch_set+0xc8>
    9f1c:	eb000214 	bl	a774 <printk>
    9f20:	eb000330 	bl	abe8 <clean_reboot>
    9f24:	e59f3030 	ldr	r3, [pc, #48]	@ 9f5c <brkpt_mismatch_set+0xcc>
    9f28:	e58d3000 	str	r3, [sp]
    9f2c:	e3a03066 	mov	r3, #102	@ 0x66
    9f30:	e59f2014 	ldr	r2, [pc, #20]	@ 9f4c <brkpt_mismatch_set+0xbc>
    9f34:	e59f1014 	ldr	r1, [pc, #20]	@ 9f50 <brkpt_mismatch_set+0xc0>
    9f38:	e59f0014 	ldr	r0, [pc, #20]	@ 9f54 <brkpt_mismatch_set+0xc4>
    9f3c:	eb00020c 	bl	a774 <printk>
    9f40:	eb000328 	bl	abe8 <clean_reboot>
    9f44:	004001e7 	.word	0x004001e7
    9f48:	0000ba78 	.word	0x0000ba78
    9f4c:	0000c380 	.word	0x0000c380
    9f50:	0000b9f8 	.word	0x0000b9f8
    9f54:	0000b268 	.word	0x0000b268
    9f58:	0000ba88 	.word	0x0000ba88
    9f5c:	0000baec 	.word	0x0000baec

00009f60 <brkpt_mismatch_start>:
    9f60:	e92d4010 	push	{r4, lr}
    9f64:	e59f3028 	ldr	r3, [pc, #40]	@ 9f94 <brkpt_mismatch_start+0x34>
    9f68:	e5933000 	ldr	r3, [r3]
    9f6c:	e3530000 	cmp	r3, #0
    9f70:	0a000002 	beq	9f80 <brkpt_mismatch_start+0x20>
    9f74:	e3a00000 	mov	r0, #0
    9f78:	ebffffc4 	bl	9e90 <brkpt_mismatch_set>
    9f7c:	e8bd8010 	pop	{r4, pc}
    9f80:	ebffff49 	bl	9cac <cp14_enable>
    9f84:	e59f3008 	ldr	r3, [pc, #8]	@ 9f94 <brkpt_mismatch_start+0x34>
    9f88:	e3a02001 	mov	r2, #1
    9f8c:	e5832000 	str	r2, [r3]
    9f90:	eafffff7 	b	9f74 <brkpt_mismatch_start+0x14>
    9f94:	0000c50c 	.word	0x0000c50c

00009f98 <brkpt_mismatch_stop>:
    9f98:	ee103eb0 	mrc	14, 0, r3, cr0, cr0, {5}
    9f9c:	e3c33001 	bic	r3, r3, #1
    9fa0:	ee003eb0 	mcr	14, 0, r3, cr0, cr0, {5}
    9fa4:	e3a03000 	mov	r3, #0
    9fa8:	ee073f95 	mcr	15, 0, r3, cr7, cr5, {4}
    9fac:	ee073f95 	mcr	15, 0, r3, cr7, cr5, {4}
    9fb0:	ee103eb0 	mrc	14, 0, r3, cr0, cr0, {5}
    9fb4:	e3130001 	tst	r3, #1
    9fb8:	012fff1e 	bxeq	lr
    9fbc:	e52de004 	push	{lr}		@ (str lr, [sp, #-4]!)
    9fc0:	e24dd00c 	sub	sp, sp, #12
    9fc4:	e59f3018 	ldr	r3, [pc, #24]	@ 9fe4 <brkpt_mismatch_stop+0x4c>
    9fc8:	e58d3000 	str	r3, [sp]
    9fcc:	e3a03078 	mov	r3, #120	@ 0x78
    9fd0:	e59f2010 	ldr	r2, [pc, #16]	@ 9fe8 <brkpt_mismatch_stop+0x50>
    9fd4:	e59f1010 	ldr	r1, [pc, #16]	@ 9fec <brkpt_mismatch_stop+0x54>
    9fd8:	e59f0010 	ldr	r0, [pc, #16]	@ 9ff0 <brkpt_mismatch_stop+0x58>
    9fdc:	eb0001e4 	bl	a774 <printk>
    9fe0:	eb000300 	bl	abe8 <clean_reboot>
    9fe4:	0000bb04 	.word	0x0000bb04
    9fe8:	0000c394 	.word	0x0000c394
    9fec:	0000b9f8 	.word	0x0000b9f8
    9ff0:	0000b268 	.word	0x0000b268

00009ff4 <brkpt_fault_p>:
    9ff4:	ee153f30 	mrc	15, 0, r3, cr5, cr0, {1}
    9ff8:	e3130b01 	tst	r3, #1024	@ 0x400
    9ffc:	0a000009 	beq	a028 <brkpt_fault_p+0x34>
    a000:	e3a00000 	mov	r0, #0
    a004:	e3500000 	cmp	r0, #0
    a008:	012fff1e 	bxeq	lr
    a00c:	ee100e11 	mrc	14, 0, r0, cr0, cr1, {0}
    a010:	e1a00120 	lsr	r0, r0, #2
    a014:	e2000007 	and	r0, r0, #7
    a018:	e3500001 	cmp	r0, #1
    a01c:	13a00000 	movne	r0, #0
    a020:	03a00001 	moveq	r0, #1
    a024:	e12fff1e 	bx	lr
    a028:	e203301f 	and	r3, r3, #31
    a02c:	e3530002 	cmp	r3, #2
    a030:	13a00000 	movne	r0, #0
    a034:	1afffff2 	bne	a004 <brkpt_fault_p+0x10>
    a038:	e3a00001 	mov	r0, #1
    a03c:	eafffff0 	b	a004 <brkpt_fault_p+0x10>

0000a040 <kmalloc_heap_end>:
    a040:	e59f3004 	ldr	r3, [pc, #4]	@ a04c <kmalloc_heap_end+0xc>
    a044:	e5930000 	ldr	r0, [r3]
    a048:	e12fff1e 	bx	lr
    a04c:	0000c510 	.word	0x0000c510

0000a050 <kmalloc_heap_start>:
    a050:	e59f3004 	ldr	r3, [pc, #4]	@ a05c <kmalloc_heap_start+0xc>
    a054:	e5930004 	ldr	r0, [r3, #4]
    a058:	e12fff1e 	bx	lr
    a05c:	0000c510 	.word	0x0000c510

0000a060 <kmalloc_heap_ptr>:
    a060:	e59f3004 	ldr	r3, [pc, #4]	@ a06c <kmalloc_heap_ptr+0xc>
    a064:	e5930008 	ldr	r0, [r3, #8]
    a068:	e12fff1e 	bx	lr
    a06c:	0000c510 	.word	0x0000c510

0000a070 <kmalloc_init_set_start>:
    a070:	e92d4030 	push	{r4, r5, lr}
    a074:	e24dd00c 	sub	sp, sp, #12
    a078:	e1a04000 	mov	r4, r0
    a07c:	e1a05001 	mov	r5, r1
    a080:	eb00031f 	bl	ad04 <program_end>
    a084:	e1540000 	cmp	r4, r0
    a088:	3a000010 	bcc	a0d0 <kmalloc_init_set_start+0x60>
    a08c:	e3550000 	cmp	r5, #0
    a090:	0a000014 	beq	a0e8 <kmalloc_init_set_start+0x78>
    a094:	e59f30ac 	ldr	r3, [pc, #172]	@ a148 <kmalloc_init_set_start+0xd8>
    a098:	e5933004 	ldr	r3, [r3, #4]
    a09c:	e1530004 	cmp	r3, r4
    a0a0:	8a000018 	bhi	a108 <kmalloc_init_set_start+0x98>
    a0a4:	e59f309c 	ldr	r3, [pc, #156]	@ a148 <kmalloc_init_set_start+0xd8>
    a0a8:	e5933008 	ldr	r3, [r3, #8]
    a0ac:	e1530004 	cmp	r3, r4
    a0b0:	8a00001a 	bhi	a120 <kmalloc_init_set_start+0xb0>
    a0b4:	e59f308c 	ldr	r3, [pc, #140]	@ a148 <kmalloc_init_set_start+0xd8>
    a0b8:	e5834008 	str	r4, [r3, #8]
    a0bc:	e5834004 	str	r4, [r3, #4]
    a0c0:	e0844005 	add	r4, r4, r5
    a0c4:	e5834000 	str	r4, [r3]
    a0c8:	e28dd00c 	add	sp, sp, #12
    a0cc:	e8bd8030 	pop	{r4, r5, pc}
    a0d0:	e3a03030 	mov	r3, #48	@ 0x30
    a0d4:	e59f2070 	ldr	r2, [pc, #112]	@ a14c <kmalloc_init_set_start+0xdc>
    a0d8:	e59f1070 	ldr	r1, [pc, #112]	@ a150 <kmalloc_init_set_start+0xe0>
    a0dc:	e59f0070 	ldr	r0, [pc, #112]	@ a154 <kmalloc_init_set_start+0xe4>
    a0e0:	eb0001a3 	bl	a774 <printk>
    a0e4:	eb0002bf 	bl	abe8 <clean_reboot>
    a0e8:	e59f3068 	ldr	r3, [pc, #104]	@ a158 <kmalloc_init_set_start+0xe8>
    a0ec:	e58d3000 	str	r3, [sp]
    a0f0:	e3a03032 	mov	r3, #50	@ 0x32
    a0f4:	e59f2050 	ldr	r2, [pc, #80]	@ a14c <kmalloc_init_set_start+0xdc>
    a0f8:	e59f1050 	ldr	r1, [pc, #80]	@ a150 <kmalloc_init_set_start+0xe0>
    a0fc:	e59f0058 	ldr	r0, [pc, #88]	@ a15c <kmalloc_init_set_start+0xec>
    a100:	eb00019b 	bl	a774 <printk>
    a104:	eb0002b7 	bl	abe8 <clean_reboot>
    a108:	e3a03034 	mov	r3, #52	@ 0x34
    a10c:	e59f2038 	ldr	r2, [pc, #56]	@ a14c <kmalloc_init_set_start+0xdc>
    a110:	e59f1038 	ldr	r1, [pc, #56]	@ a150 <kmalloc_init_set_start+0xe0>
    a114:	e59f0044 	ldr	r0, [pc, #68]	@ a160 <kmalloc_init_set_start+0xf0>
    a118:	eb000195 	bl	a774 <printk>
    a11c:	eb0002b1 	bl	abe8 <clean_reboot>
    a120:	e59f3020 	ldr	r3, [pc, #32]	@ a148 <kmalloc_init_set_start+0xd8>
    a124:	e5933000 	ldr	r3, [r3]
    a128:	e58d3004 	str	r3, [sp, #4]
    a12c:	e58d4000 	str	r4, [sp]
    a130:	e3a03038 	mov	r3, #56	@ 0x38
    a134:	e59f2010 	ldr	r2, [pc, #16]	@ a14c <kmalloc_init_set_start+0xdc>
    a138:	e59f1010 	ldr	r1, [pc, #16]	@ a150 <kmalloc_init_set_start+0xe0>
    a13c:	e59f0020 	ldr	r0, [pc, #32]	@ a164 <kmalloc_init_set_start+0xf4>
    a140:	eb00018b 	bl	a774 <printk>
    a144:	eb0002a7 	bl	abe8 <clean_reboot>
    a148:	0000c510 	.word	0x0000c510
    a14c:	0000c3a8 	.word	0x0000c3a8
    a150:	0000bb24 	.word	0x0000bb24
    a154:	0000bb30 	.word	0x0000bb30
    a158:	0000bb58 	.word	0x0000bb58
    a15c:	0000b268 	.word	0x0000b268
    a160:	0000bb64 	.word	0x0000bb64
    a164:	0000bbb0 	.word	0x0000bbb0

0000a168 <kmalloc_notzero>:
    a168:	e52de004 	push	{lr}		@ (str lr, [sp, #-4]!)
    a16c:	e24dd00c 	sub	sp, sp, #12
    a170:	e3500000 	cmp	r0, #0
    a174:	0a00000f 	beq	a1b8 <kmalloc_notzero+0x50>
    a178:	e2800007 	add	r0, r0, #7
    a17c:	e3c03007 	bic	r3, r0, #7
    a180:	e59f20b4 	ldr	r2, [pc, #180]	@ a23c <kmalloc_notzero+0xd4>
    a184:	e5920008 	ldr	r0, [r2, #8]
    a188:	e3100007 	tst	r0, #7
    a18c:	1a000011 	bne	a1d8 <kmalloc_notzero+0x70>
    a190:	e3500000 	cmp	r0, #0
    a194:	0a000017 	beq	a1f8 <kmalloc_notzero+0x90>
    a198:	e0802003 	add	r2, r0, r3
    a19c:	e59f1098 	ldr	r1, [pc, #152]	@ a23c <kmalloc_notzero+0xd4>
    a1a0:	e5812008 	str	r2, [r1, #8]
    a1a4:	e5911000 	ldr	r1, [r1]
    a1a8:	e1520001 	cmp	r2, r1
    a1ac:	8a000019 	bhi	a218 <kmalloc_notzero+0xb0>
    a1b0:	e28dd00c 	add	sp, sp, #12
    a1b4:	e49df004 	pop	{pc}		@ (ldr pc, [sp], #4)
    a1b8:	e59f3080 	ldr	r3, [pc, #128]	@ a240 <kmalloc_notzero+0xd8>
    a1bc:	e58d3000 	str	r3, [sp]
    a1c0:	e3a03041 	mov	r3, #65	@ 0x41
    a1c4:	e59f2078 	ldr	r2, [pc, #120]	@ a244 <kmalloc_notzero+0xdc>
    a1c8:	e59f1078 	ldr	r1, [pc, #120]	@ a248 <kmalloc_notzero+0xe0>
    a1cc:	e59f0078 	ldr	r0, [pc, #120]	@ a24c <kmalloc_notzero+0xe4>
    a1d0:	eb000167 	bl	a774 <printk>
    a1d4:	eb000283 	bl	abe8 <clean_reboot>
    a1d8:	e59f3070 	ldr	r3, [pc, #112]	@ a250 <kmalloc_notzero+0xe8>
    a1dc:	e58d3000 	str	r3, [sp]
    a1e0:	e3a03044 	mov	r3, #68	@ 0x44
    a1e4:	e59f2058 	ldr	r2, [pc, #88]	@ a244 <kmalloc_notzero+0xdc>
    a1e8:	e59f1058 	ldr	r1, [pc, #88]	@ a248 <kmalloc_notzero+0xe0>
    a1ec:	e59f0058 	ldr	r0, [pc, #88]	@ a24c <kmalloc_notzero+0xe4>
    a1f0:	eb00015f 	bl	a774 <printk>
    a1f4:	eb00027b 	bl	abe8 <clean_reboot>
    a1f8:	e59f3054 	ldr	r3, [pc, #84]	@ a254 <kmalloc_notzero+0xec>
    a1fc:	e58d3000 	str	r3, [sp]
    a200:	e3a03047 	mov	r3, #71	@ 0x47
    a204:	e59f2038 	ldr	r2, [pc, #56]	@ a244 <kmalloc_notzero+0xdc>
    a208:	e59f1038 	ldr	r1, [pc, #56]	@ a248 <kmalloc_notzero+0xe0>
    a20c:	e59f0038 	ldr	r0, [pc, #56]	@ a24c <kmalloc_notzero+0xe4>
    a210:	eb000157 	bl	a774 <printk>
    a214:	eb000273 	bl	abe8 <clean_reboot>
    a218:	e0422001 	sub	r2, r2, r1
    a21c:	e58d2004 	str	r2, [sp, #4]
    a220:	e58d3000 	str	r3, [sp]
    a224:	e3a0304b 	mov	r3, #75	@ 0x4b
    a228:	e59f2014 	ldr	r2, [pc, #20]	@ a244 <kmalloc_notzero+0xdc>
    a22c:	e59f1014 	ldr	r1, [pc, #20]	@ a248 <kmalloc_notzero+0xe0>
    a230:	e59f0020 	ldr	r0, [pc, #32]	@ a258 <kmalloc_notzero+0xf0>
    a234:	eb00014e 	bl	a774 <printk>
    a238:	eb00026a 	bl	abe8 <clean_reboot>
    a23c:	0000c510 	.word	0x0000c510
    a240:	0000bb5c 	.word	0x0000bb5c
    a244:	0000c3c0 	.word	0x0000c3c0
    a248:	0000bb24 	.word	0x0000bb24
    a24c:	0000b268 	.word	0x0000b268
    a250:	0000bbf4 	.word	0x0000bbf4
    a254:	0000bc0c 	.word	0x0000bc0c
    a258:	0000bc14 	.word	0x0000bc14

0000a25c <kmalloc>:
    a25c:	e92d4030 	push	{r4, r5, lr}
    a260:	e24dd00c 	sub	sp, sp, #12
    a264:	e2504000 	subs	r4, r0, #0
    a268:	0a000008 	beq	a290 <kmalloc+0x34>
    a26c:	e1a00004 	mov	r0, r4
    a270:	ebffffbc 	bl	a168 <kmalloc_notzero>
    a274:	e1a05000 	mov	r5, r0
    a278:	e1a02004 	mov	r2, r4
    a27c:	e3a01000 	mov	r1, #0
    a280:	eb000115 	bl	a6dc <memset>
    a284:	e1a00005 	mov	r0, r5
    a288:	e28dd00c 	add	sp, sp, #12
    a28c:	e8bd8030 	pop	{r4, r5, pc}
    a290:	e59f3018 	ldr	r3, [pc, #24]	@ a2b0 <kmalloc+0x54>
    a294:	e58d3000 	str	r3, [sp]
    a298:	e3a03053 	mov	r3, #83	@ 0x53
    a29c:	e59f2010 	ldr	r2, [pc, #16]	@ a2b4 <kmalloc+0x58>
    a2a0:	e59f1010 	ldr	r1, [pc, #16]	@ a2b8 <kmalloc+0x5c>
    a2a4:	e59f0010 	ldr	r0, [pc, #16]	@ a2bc <kmalloc+0x60>
    a2a8:	eb000131 	bl	a774 <printk>
    a2ac:	eb00024d 	bl	abe8 <clean_reboot>
    a2b0:	0000bb5c 	.word	0x0000bb5c
    a2b4:	0000c3d0 	.word	0x0000c3d0
    a2b8:	0000bb24 	.word	0x0000bb24
    a2bc:	0000b268 	.word	0x0000b268

0000a2c0 <kmalloc_aligned>:
    a2c0:	e52de004 	push	{lr}		@ (str lr, [sp, #-4]!)
    a2c4:	e24dd00c 	sub	sp, sp, #12
    a2c8:	e3500000 	cmp	r0, #0
    a2cc:	0a000014 	beq	a324 <kmalloc_aligned+0x64>
    a2d0:	e2613000 	rsb	r3, r1, #0
    a2d4:	e1d13003 	bics	r3, r1, r3
    a2d8:	1a000019 	bne	a344 <kmalloc_aligned+0x84>
    a2dc:	e3510008 	cmp	r1, #8
    a2e0:	33a01008 	movcc	r1, #8
    a2e4:	e59f30b8 	ldr	r3, [pc, #184]	@ a3a4 <kmalloc_aligned+0xe4>
    a2e8:	e5932008 	ldr	r2, [r3, #8]
    a2ec:	e2613000 	rsb	r3, r1, #0
    a2f0:	e1d1c003 	bics	ip, r1, r3
    a2f4:	1a00001a 	bne	a364 <kmalloc_aligned+0xa4>
    a2f8:	e0822001 	add	r2, r2, r1
    a2fc:	e2422001 	sub	r2, r2, #1
    a300:	e0033002 	and	r3, r3, r2
    a304:	e2411001 	sub	r1, r1, #1
    a308:	e1110003 	tst	r1, r3
    a30c:	1a00001c 	bne	a384 <kmalloc_aligned+0xc4>
    a310:	e59f208c 	ldr	r2, [pc, #140]	@ a3a4 <kmalloc_aligned+0xe4>
    a314:	e5823008 	str	r3, [r2, #8]
    a318:	ebffffcf 	bl	a25c <kmalloc>
    a31c:	e28dd00c 	add	sp, sp, #12
    a320:	e49df004 	pop	{pc}		@ (ldr pc, [sp], #4)
    a324:	e59f307c 	ldr	r3, [pc, #124]	@ a3a8 <kmalloc_aligned+0xe8>
    a328:	e58d3000 	str	r3, [sp]
    a32c:	e3a0305d 	mov	r3, #93	@ 0x5d
    a330:	e59f2074 	ldr	r2, [pc, #116]	@ a3ac <kmalloc_aligned+0xec>
    a334:	e59f1074 	ldr	r1, [pc, #116]	@ a3b0 <kmalloc_aligned+0xf0>
    a338:	e59f0074 	ldr	r0, [pc, #116]	@ a3b4 <kmalloc_aligned+0xf4>
    a33c:	eb00010c 	bl	a774 <printk>
    a340:	eb000228 	bl	abe8 <clean_reboot>
    a344:	e59f306c 	ldr	r3, [pc, #108]	@ a3b8 <kmalloc_aligned+0xf8>
    a348:	e58d3000 	str	r3, [sp]
    a34c:	e3a0305e 	mov	r3, #94	@ 0x5e
    a350:	e59f2054 	ldr	r2, [pc, #84]	@ a3ac <kmalloc_aligned+0xec>
    a354:	e59f1054 	ldr	r1, [pc, #84]	@ a3b0 <kmalloc_aligned+0xf0>
    a358:	e59f005c 	ldr	r0, [pc, #92]	@ a3bc <kmalloc_aligned+0xfc>
    a35c:	eb000104 	bl	a774 <printk>
    a360:	eb000220 	bl	abe8 <clean_reboot>
    a364:	e59f3054 	ldr	r3, [pc, #84]	@ a3c0 <kmalloc_aligned+0x100>
    a368:	e58d3000 	str	r3, [sp]
    a36c:	e3a03011 	mov	r3, #17
    a370:	e59f204c 	ldr	r2, [pc, #76]	@ a3c4 <kmalloc_aligned+0x104>
    a374:	e59f1034 	ldr	r1, [pc, #52]	@ a3b0 <kmalloc_aligned+0xf0>
    a378:	e59f0034 	ldr	r0, [pc, #52]	@ a3b4 <kmalloc_aligned+0xf4>
    a37c:	eb0000fc 	bl	a774 <printk>
    a380:	eb000218 	bl	abe8 <clean_reboot>
    a384:	e59f303c 	ldr	r3, [pc, #60]	@ a3c8 <kmalloc_aligned+0x108>
    a388:	e58d3000 	str	r3, [sp]
    a38c:	e3a03065 	mov	r3, #101	@ 0x65
    a390:	e59f2014 	ldr	r2, [pc, #20]	@ a3ac <kmalloc_aligned+0xec>
    a394:	e59f1014 	ldr	r1, [pc, #20]	@ a3b0 <kmalloc_aligned+0xf0>
    a398:	e59f002c 	ldr	r0, [pc, #44]	@ a3cc <kmalloc_aligned+0x10c>
    a39c:	eb0000f4 	bl	a774 <printk>
    a3a0:	eb000210 	bl	abe8 <clean_reboot>
    a3a4:	0000c510 	.word	0x0000c510
    a3a8:	0000bb5c 	.word	0x0000bb5c
    a3ac:	0000c3d8 	.word	0x0000c3d8
    a3b0:	0000bb24 	.word	0x0000bb24
    a3b4:	0000b268 	.word	0x0000b268
    a3b8:	0000bc9c 	.word	0x0000bc9c
    a3bc:	0000bc5c 	.word	0x0000bc5c
    a3c0:	0000bcb0 	.word	0x0000bcb0
    a3c4:	0000c3e8 	.word	0x0000c3e8
    a3c8:	0000bcf4 	.word	0x0000bcf4
    a3cc:	0000bcbc 	.word	0x0000bcbc

0000a3d0 <kfree_all>:
    a3d0:	e59f3008 	ldr	r3, [pc, #8]	@ a3e0 <kfree_all+0x10>
    a3d4:	e5932004 	ldr	r2, [r3, #4]
    a3d8:	e5832008 	str	r2, [r3, #8]
    a3dc:	e12fff1e 	bx	lr
    a3e0:	0000c510 	.word	0x0000c510

0000a3e4 <OR32>:
    a3e4:	e92d4070 	push	{r4, r5, r6, lr}
    a3e8:	e1a05000 	mov	r5, r0
    a3ec:	e1a04001 	mov	r4, r1
    a3f0:	ebfff70d 	bl	802c <GET32>
    a3f4:	e1804004 	orr	r4, r0, r4
    a3f8:	e1a01004 	mov	r1, r4
    a3fc:	e1a00005 	mov	r0, r5
    a400:	ebfff707 	bl	8024 <PUT32>
    a404:	e1a00004 	mov	r0, r4
    a408:	e8bd8070 	pop	{r4, r5, r6, pc}

0000a40c <uart_init>:
    a40c:	e92d4010 	push	{r4, lr}
    a410:	eb00027e 	bl	ae10 <dev_barrier>
    a414:	e3a01002 	mov	r1, #2
    a418:	e3a0000e 	mov	r0, #14
    a41c:	eb0002b1 	bl	aee8 <gpio_set_function>
    a420:	e3a01002 	mov	r1, #2
    a424:	e3a0000f 	mov	r0, #15
    a428:	eb0002ae 	bl	aee8 <gpio_set_function>
    a42c:	eb000277 	bl	ae10 <dev_barrier>
    a430:	e3a01001 	mov	r1, #1
    a434:	e59f0058 	ldr	r0, [pc, #88]	@ a494 <uart_init+0x88>
    a438:	ebffffe9 	bl	a3e4 <OR32>
    a43c:	eb000273 	bl	ae10 <dev_barrier>
    a440:	e59f4050 	ldr	r4, [pc, #80]	@ a498 <uart_init+0x8c>
    a444:	e3a01000 	mov	r1, #0
    a448:	e1a00004 	mov	r0, r4
    a44c:	ebfff6f4 	bl	8024 <PUT32>
    a450:	e3a01006 	mov	r1, #6
    a454:	e59f0040 	ldr	r0, [pc, #64]	@ a49c <uart_init+0x90>
    a458:	ebfff6f1 	bl	8024 <PUT32>
    a45c:	e3a01003 	mov	r1, #3
    a460:	e59f0038 	ldr	r0, [pc, #56]	@ a4a0 <uart_init+0x94>
    a464:	ebfff6ee 	bl	8024 <PUT32>
    a468:	e59f1034 	ldr	r1, [pc, #52]	@ a4a4 <uart_init+0x98>
    a46c:	e59f0034 	ldr	r0, [pc, #52]	@ a4a8 <uart_init+0x9c>
    a470:	ebfff6eb 	bl	8024 <PUT32>
    a474:	e3a01000 	mov	r1, #0
    a478:	e59f002c 	ldr	r0, [pc, #44]	@ a4ac <uart_init+0xa0>
    a47c:	ebfff6e8 	bl	8024 <PUT32>
    a480:	e3a01003 	mov	r1, #3
    a484:	e1a00004 	mov	r0, r4
    a488:	ebfff6e5 	bl	8024 <PUT32>
    a48c:	eb00025f 	bl	ae10 <dev_barrier>
    a490:	e8bd8010 	pop	{r4, pc}
    a494:	20215004 	.word	0x20215004
    a498:	20215060 	.word	0x20215060
    a49c:	20215048 	.word	0x20215048
    a4a0:	2021504c 	.word	0x2021504c
    a4a4:	0000010e 	.word	0x0000010e
    a4a8:	20215068 	.word	0x20215068
    a4ac:	20215044 	.word	0x20215044

0000a4b0 <uart_tx_is_empty>:
    a4b0:	e92d4010 	push	{r4, lr}
    a4b4:	e59f0008 	ldr	r0, [pc, #8]	@ a4c4 <uart_tx_is_empty+0x14>
    a4b8:	ebfff6db 	bl	802c <GET32>
    a4bc:	e2000040 	and	r0, r0, #64	@ 0x40
    a4c0:	e8bd8010 	pop	{r4, pc}
    a4c4:	20215054 	.word	0x20215054

0000a4c8 <uart_has_data>:
    a4c8:	e92d4010 	push	{r4, lr}
    a4cc:	e59f0008 	ldr	r0, [pc, #8]	@ a4dc <uart_has_data+0x14>
    a4d0:	ebfff6d5 	bl	802c <GET32>
    a4d4:	e2000001 	and	r0, r0, #1
    a4d8:	e8bd8010 	pop	{r4, pc}
    a4dc:	20215064 	.word	0x20215064

0000a4e0 <uart_get8>:
    a4e0:	e92d4010 	push	{r4, lr}
    a4e4:	ebfffff7 	bl	a4c8 <uart_has_data>
    a4e8:	e3500000 	cmp	r0, #0
    a4ec:	0afffffc 	beq	a4e4 <uart_get8+0x4>
    a4f0:	e59f000c 	ldr	r0, [pc, #12]	@ a504 <uart_get8+0x24>
    a4f4:	ebfff6cc 	bl	802c <GET32>
    a4f8:	e1a00b80 	lsl	r0, r0, #23
    a4fc:	e1a00ba0 	lsr	r0, r0, #23
    a500:	e8bd8010 	pop	{r4, pc}
    a504:	20215040 	.word	0x20215040

0000a508 <uart_can_put8>:
    a508:	e92d4010 	push	{r4, lr}
    a50c:	e59f0008 	ldr	r0, [pc, #8]	@ a51c <uart_can_put8+0x14>
    a510:	ebfff6c5 	bl	802c <GET32>
    a514:	e2000002 	and	r0, r0, #2
    a518:	e8bd8010 	pop	{r4, pc}
    a51c:	20215064 	.word	0x20215064

0000a520 <uart_put8>:
    a520:	e92d4010 	push	{r4, lr}
    a524:	e1a04000 	mov	r4, r0
    a528:	ebfffff6 	bl	a508 <uart_can_put8>
    a52c:	e3500000 	cmp	r0, #0
    a530:	0afffffc 	beq	a528 <uart_put8+0x8>
    a534:	e1a01004 	mov	r1, r4
    a538:	e59f0008 	ldr	r0, [pc, #8]	@ a548 <uart_put8+0x28>
    a53c:	ebfff6b8 	bl	8024 <PUT32>
    a540:	e3a00001 	mov	r0, #1
    a544:	e8bd8010 	pop	{r4, pc}
    a548:	20215040 	.word	0x20215040

0000a54c <uart_get8_async>:
    a54c:	e92d4010 	push	{r4, lr}
    a550:	ebffffdc 	bl	a4c8 <uart_has_data>
    a554:	e3500000 	cmp	r0, #0
    a558:	0a000001 	beq	a564 <uart_get8_async+0x18>
    a55c:	ebffffdf 	bl	a4e0 <uart_get8>
    a560:	e8bd8010 	pop	{r4, pc}
    a564:	e3e00000 	mvn	r0, #0
    a568:	e8bd8010 	pop	{r4, pc}

0000a56c <uart_flush_tx>:
    a56c:	e92d4010 	push	{r4, lr}
    a570:	ea000000 	b	a578 <uart_flush_tx+0xc>
    a574:	eb000239 	bl	ae60 <rpi_wait>
    a578:	ebffffcc 	bl	a4b0 <uart_tx_is_empty>
    a57c:	e3500000 	cmp	r0, #0
    a580:	0afffffb 	beq	a574 <uart_flush_tx+0x8>
    a584:	e8bd8010 	pop	{r4, pc}

0000a588 <uart_disable>:
    a588:	e92d4010 	push	{r4, lr}
    a58c:	ebfffff6 	bl	a56c <uart_flush_tx>
    a590:	eb00021e 	bl	ae10 <dev_barrier>
    a594:	e59f4018 	ldr	r4, [pc, #24]	@ a5b4 <uart_disable+0x2c>
    a598:	e1a00004 	mov	r0, r4
    a59c:	ebfff6a2 	bl	802c <GET32>
    a5a0:	e3c01001 	bic	r1, r0, #1
    a5a4:	e1a00004 	mov	r0, r4
    a5a8:	ebfff69d 	bl	8024 <PUT32>
    a5ac:	eb000217 	bl	ae10 <dev_barrier>
    a5b0:	e8bd8010 	pop	{r4, pc}
    a5b4:	20215004 	.word	0x20215004

0000a5b8 <memcpy256>:
    a5b8:	e92d40f0 	push	{r4, r5, r6, r7, lr}
    a5bc:	e24dd00c 	sub	sp, sp, #12
    a5c0:	e212401f 	ands	r4, r2, #31
    a5c4:	01a06000 	moveq	r6, r0
    a5c8:	01a07001 	moveq	r7, r1
    a5cc:	01a052a2 	lsreq	r5, r2, #5
    a5d0:	0a00000f 	beq	a614 <memcpy256+0x5c>
    a5d4:	e3a03020 	mov	r3, #32
    a5d8:	e58d3004 	str	r3, [sp, #4]
    a5dc:	e58d2000 	str	r2, [sp]
    a5e0:	e3a0300f 	mov	r3, #15
    a5e4:	e59f2038 	ldr	r2, [pc, #56]	@ a624 <memcpy256+0x6c>
    a5e8:	e59f1038 	ldr	r1, [pc, #56]	@ a628 <memcpy256+0x70>
    a5ec:	e59f0038 	ldr	r0, [pc, #56]	@ a62c <memcpy256+0x74>
    a5f0:	eb00005f 	bl	a774 <printk>
    a5f4:	eb00017b 	bl	abe8 <clean_reboot>
    a5f8:	e086c284 	add	ip, r6, r4, lsl #5
    a5fc:	e087e284 	add	lr, r7, r4, lsl #5
    a600:	e8be000f 	ldm	lr!, {r0, r1, r2, r3}
    a604:	e8ac000f 	stmia	ip!, {r0, r1, r2, r3}
    a608:	e89e000f 	ldm	lr, {r0, r1, r2, r3}
    a60c:	e88c000f 	stm	ip, {r0, r1, r2, r3}
    a610:	e2844001 	add	r4, r4, #1
    a614:	e1540005 	cmp	r4, r5
    a618:	3afffff6 	bcc	a5f8 <memcpy256+0x40>
    a61c:	e28dd00c 	add	sp, sp, #12
    a620:	e8bd80f0 	pop	{r4, r5, r6, r7, pc}
    a624:	0000c3f0 	.word	0x0000c3f0
    a628:	0000bd10 	.word	0x0000bd10
    a62c:	0000bd20 	.word	0x0000bd20

0000a630 <memcpy>:
    a630:	e3100007 	tst	r0, #7
    a634:	1a00000f 	bne	a678 <memcpy+0x48>
    a638:	e3110007 	tst	r1, #7
    a63c:	1a00000d 	bne	a678 <memcpy+0x48>
    a640:	e2123007 	ands	r3, r2, #7
    a644:	1a00000b 	bne	a678 <memcpy+0x48>
    a648:	e1a021a2 	lsr	r2, r2, #3
    a64c:	e1530002 	cmp	r3, r2
    a650:	212fff1e 	bxcs	lr
    a654:	e92d0030 	push	{r4, r5}
    a658:	e1a0c183 	lsl	ip, r3, #3
    a65c:	e18140dc 	ldrd	r4, [r1, ip]
    a660:	e18040fc 	strd	r4, [r0, ip]
    a664:	e2833001 	add	r3, r3, #1
    a668:	e1530002 	cmp	r3, r2
    a66c:	3afffff9 	bcc	a658 <memcpy+0x28>
    a670:	e8bd0030 	pop	{r4, r5}
    a674:	e12fff1e 	bx	lr
    a678:	e2103003 	ands	r3, r0, #3
    a67c:	1a000011 	bne	a6c8 <memcpy+0x98>
    a680:	e211c003 	ands	ip, r1, #3
    a684:	1a00000c 	bne	a6bc <memcpy+0x8c>
    a688:	e2123003 	ands	r3, r2, #3
    a68c:	1a00000f 	bne	a6d0 <memcpy+0xa0>
    a690:	e1a02122 	lsr	r2, r2, #2
    a694:	ea000002 	b	a6a4 <memcpy+0x74>
    a698:	e791c103 	ldr	ip, [r1, r3, lsl #2]
    a69c:	e780c103 	str	ip, [r0, r3, lsl #2]
    a6a0:	e2833001 	add	r3, r3, #1
    a6a4:	e1530002 	cmp	r3, r2
    a6a8:	3afffffa 	bcc	a698 <memcpy+0x68>
    a6ac:	e12fff1e 	bx	lr
    a6b0:	e7d1c003 	ldrb	ip, [r1, r3]
    a6b4:	e7c0c003 	strb	ip, [r0, r3]
    a6b8:	e2833001 	add	r3, r3, #1
    a6bc:	e1530002 	cmp	r3, r2
    a6c0:	3afffffa 	bcc	a6b0 <memcpy+0x80>
    a6c4:	e12fff1e 	bx	lr
    a6c8:	e3a03000 	mov	r3, #0
    a6cc:	eafffffa 	b	a6bc <memcpy+0x8c>
    a6d0:	e1a0300c 	mov	r3, ip
    a6d4:	eafffff8 	b	a6bc <memcpy+0x8c>

0000a6d8 <memcpy_end>:
    a6d8:	e12fff1e 	bx	lr

0000a6dc <memset>:
    a6dc:	e3520000 	cmp	r2, #0
    a6e0:	012fff1e 	bxeq	lr
    a6e4:	e3510000 	cmp	r1, #0
    a6e8:	1a000007 	bne	a70c <memset+0x30>
    a6ec:	e3100007 	tst	r0, #7
    a6f0:	1a000001 	bne	a6fc <memset+0x20>
    a6f4:	e3120007 	tst	r2, #7
    a6f8:	0a000005 	beq	a714 <memset+0x38>
    a6fc:	e3100003 	tst	r0, #3
    a700:	1a000001 	bne	a70c <memset+0x30>
    a704:	e3120003 	tst	r2, #3
    a708:	0a00000d 	beq	a744 <memset+0x68>
    a70c:	e0802002 	add	r2, r0, r2
    a710:	ea000014 	b	a768 <memset+0x8c>
    a714:	e1a021a2 	lsr	r2, r2, #3
    a718:	ea000005 	b	a734 <memset+0x58>
    a71c:	e1a03000 	mov	r3, r0
    a720:	e1a02fc1 	asr	r2, r1, #31
    a724:	e4831008 	str	r1, [r3], #8
    a728:	e5802004 	str	r2, [r0, #4]
    a72c:	e1a00003 	mov	r0, r3
    a730:	e1a0200c 	mov	r2, ip
    a734:	e242c001 	sub	ip, r2, #1
    a738:	e3520000 	cmp	r2, #0
    a73c:	1afffff6 	bne	a71c <memset+0x40>
    a740:	e12fff1e 	bx	lr
    a744:	e1a02122 	lsr	r2, r2, #2
    a748:	ea000001 	b	a754 <memset+0x78>
    a74c:	e4801004 	str	r1, [r0], #4
    a750:	e1a02003 	mov	r2, r3
    a754:	e2423001 	sub	r3, r2, #1
    a758:	e3520000 	cmp	r2, #0
    a75c:	1afffffa 	bne	a74c <memset+0x70>
    a760:	e12fff1e 	bx	lr
    a764:	e4c01001 	strb	r1, [r0], #1
    a768:	e1500002 	cmp	r0, r2
    a76c:	3afffffc 	bcc	a764 <memset+0x88>
    a770:	e12fff1e 	bx	lr

0000a774 <printk>:
    a774:	e92d000f 	push	{r0, r1, r2, r3}
    a778:	e52de004 	push	{lr}		@ (str lr, [sp, #-4]!)
    a77c:	e24dd00c 	sub	sp, sp, #12
    a780:	e28d1014 	add	r1, sp, #20
    a784:	e58d1004 	str	r1, [sp, #4]
    a788:	e59d0010 	ldr	r0, [sp, #16]
    a78c:	eb000047 	bl	a8b0 <vprintk>
    a790:	e28dd00c 	add	sp, sp, #12
    a794:	e49de004 	pop	{lr}		@ (ldr lr, [sp], #4)
    a798:	e28dd010 	add	sp, sp, #16
    a79c:	e12fff1e 	bx	lr

0000a7a0 <emit_val>:
    a7a0:	e92d4010 	push	{r4, lr}
    a7a4:	e24dd030 	sub	sp, sp, #48	@ 0x30
    a7a8:	e350000a 	cmp	r0, #10
    a7ac:	0a00000d 	beq	a7e8 <emit_val+0x48>
    a7b0:	e3500010 	cmp	r0, #16
    a7b4:	0a00001b 	beq	a828 <emit_val+0x88>
    a7b8:	e3500002 	cmp	r0, #2
    a7bc:	1a000023 	bne	a850 <emit_val+0xb0>
    a7c0:	e28d400c 	add	r4, sp, #12
    a7c4:	e2012001 	and	r2, r1, #1
    a7c8:	e59f00c0 	ldr	r0, [pc, #192]	@ a890 <emit_val+0xf0>
    a7cc:	e7d02002 	ldrb	r2, [r0, r2]
    a7d0:	e5c42000 	strb	r2, [r4]
    a7d4:	e2844001 	add	r4, r4, #1
    a7d8:	e3510001 	cmp	r1, #1
    a7dc:	e1a010a1 	lsr	r1, r1, #1
    a7e0:	8afffff7 	bhi	a7c4 <emit_val+0x24>
    a7e4:	ea000024 	b	a87c <emit_val+0xdc>
    a7e8:	e28d400c 	add	r4, sp, #12
    a7ec:	e59f30a0 	ldr	r3, [pc, #160]	@ a894 <emit_val+0xf4>
    a7f0:	e0832193 	umull	r2, r3, r3, r1
    a7f4:	e1a031a3 	lsr	r3, r3, #3
    a7f8:	e1a00003 	mov	r0, r3
    a7fc:	e0833103 	add	r3, r3, r3, lsl #2
    a800:	e0413083 	sub	r3, r1, r3, lsl #1
    a804:	e59fc08c 	ldr	ip, [pc, #140]	@ a898 <emit_val+0xf8>
    a808:	e7dcc003 	ldrb	ip, [ip, r3]
    a80c:	e5c4c000 	strb	ip, [r4]
    a810:	e2844001 	add	r4, r4, #1
    a814:	e1a03001 	mov	r3, r1
    a818:	e1a01000 	mov	r1, r0
    a81c:	e3530009 	cmp	r3, #9
    a820:	8afffff1 	bhi	a7ec <emit_val+0x4c>
    a824:	ea000014 	b	a87c <emit_val+0xdc>
    a828:	e28d400c 	add	r4, sp, #12
    a82c:	e201200f 	and	r2, r1, #15
    a830:	e59f0064 	ldr	r0, [pc, #100]	@ a89c <emit_val+0xfc>
    a834:	e7d02002 	ldrb	r2, [r0, r2]
    a838:	e5c42000 	strb	r2, [r4]
    a83c:	e2844001 	add	r4, r4, #1
    a840:	e351000f 	cmp	r1, #15
    a844:	e1a01221 	lsr	r1, r1, #4
    a848:	8afffff7 	bhi	a82c <emit_val+0x8c>
    a84c:	ea00000a 	b	a87c <emit_val+0xdc>
    a850:	e58d0000 	str	r0, [sp]
    a854:	e3a0301b 	mov	r3, #27
    a858:	e59f2040 	ldr	r2, [pc, #64]	@ a8a0 <emit_val+0x100>
    a85c:	e59f1040 	ldr	r1, [pc, #64]	@ a8a4 <emit_val+0x104>
    a860:	e59f0040 	ldr	r0, [pc, #64]	@ a8a8 <emit_val+0x108>
    a864:	ebffffc2 	bl	a774 <printk>
    a868:	eb0000de 	bl	abe8 <clean_reboot>
    a86c:	e59f3038 	ldr	r3, [pc, #56]	@ a8ac <emit_val+0x10c>
    a870:	e5933000 	ldr	r3, [r3]
    a874:	e5740001 	ldrb	r0, [r4, #-1]!
    a878:	e12fff33 	blx	r3
    a87c:	e28d300c 	add	r3, sp, #12
    a880:	e1540003 	cmp	r4, r3
    a884:	8afffff8 	bhi	a86c <emit_val+0xcc>
    a888:	e28dd030 	add	sp, sp, #48	@ 0x30
    a88c:	e8bd8010 	pop	{r4, pc}
    a890:	0000bd90 	.word	0x0000bd90
    a894:	cccccccd 	.word	0xcccccccd
    a898:	0000bd94 	.word	0x0000bd94
    a89c:	0000bda0 	.word	0x0000bda0
    a8a0:	0000c414 	.word	0x0000c414
    a8a4:	0000bd5c 	.word	0x0000bd5c
    a8a8:	0000bd6c 	.word	0x0000bd6c
    a8ac:	0000c4a4 	.word	0x0000c4a4

0000a8b0 <vprintk>:
    a8b0:	e92d4030 	push	{r4, r5, lr}
    a8b4:	e24dd014 	sub	sp, sp, #20
    a8b8:	e1a04000 	mov	r4, r0
    a8bc:	e58d100c 	str	r1, [sp, #12]
    a8c0:	ea000003 	b	a8d4 <vprintk+0x24>
    a8c4:	e59f3238 	ldr	r3, [pc, #568]	@ ab04 <vprintk+0x254>
    a8c8:	e5933000 	ldr	r3, [r3]
    a8cc:	e12fff33 	blx	r3
    a8d0:	e2844001 	add	r4, r4, #1
    a8d4:	e5d40000 	ldrb	r0, [r4]
    a8d8:	e3500000 	cmp	r0, #0
    a8dc:	0a000086 	beq	aafc <vprintk+0x24c>
    a8e0:	e3500025 	cmp	r0, #37	@ 0x25
    a8e4:	1afffff6 	bne	a8c4 <vprintk+0x14>
    a8e8:	e2845001 	add	r5, r4, #1
    a8ec:	e5d42001 	ldrb	r2, [r4, #1]
    a8f0:	e2423062 	sub	r3, r2, #98	@ 0x62
    a8f4:	e59f120c 	ldr	r1, [pc, #524]	@ ab08 <vprintk+0x258>
    a8f8:	e3530016 	cmp	r3, #22
    a8fc:	8a000077 	bhi	aae0 <vprintk+0x230>
    a900:	e7d13003 	ldrb	r3, [r1, r3]
    a904:	e08ff103 	add	pc, pc, r3, lsl #2
    a908:	e320f000 	nop	{0}
    a90c:	e59d300c 	ldr	r3, [sp, #12]
    a910:	e2832004 	add	r2, r3, #4
    a914:	e58d200c 	str	r2, [sp, #12]
    a918:	e5931000 	ldr	r1, [r3]
    a91c:	e3a00002 	mov	r0, #2
    a920:	ebffff9e 	bl	a7a0 <emit_val>
    a924:	e1a04005 	mov	r4, r5
    a928:	eaffffe8 	b	a8d0 <vprintk+0x20>
    a92c:	e59d300c 	ldr	r3, [sp, #12]
    a930:	e2832004 	add	r2, r3, #4
    a934:	e58d200c 	str	r2, [sp, #12]
    a938:	e5931000 	ldr	r1, [r3]
    a93c:	e3a0000a 	mov	r0, #10
    a940:	ebffff96 	bl	a7a0 <emit_val>
    a944:	e1a04005 	mov	r4, r5
    a948:	eaffffe0 	b	a8d0 <vprintk+0x20>
    a94c:	e59f31b0 	ldr	r3, [pc, #432]	@ ab04 <vprintk+0x254>
    a950:	e5932000 	ldr	r2, [r3]
    a954:	e59d300c 	ldr	r3, [sp, #12]
    a958:	e2831004 	add	r1, r3, #4
    a95c:	e58d100c 	str	r1, [sp, #12]
    a960:	e5930000 	ldr	r0, [r3]
    a964:	e12fff32 	blx	r2
    a968:	e1a04005 	mov	r4, r5
    a96c:	eaffffd7 	b	a8d0 <vprintk+0x20>
    a970:	e2842002 	add	r2, r4, #2
    a974:	e5d43002 	ldrb	r3, [r4, #2]
    a978:	e353006c 	cmp	r3, #108	@ 0x6c
    a97c:	1a000018 	bne	a9e4 <vprintk+0x134>
    a980:	e2845003 	add	r5, r4, #3
    a984:	e5d43003 	ldrb	r3, [r4, #3]
    a988:	e3530078 	cmp	r3, #120	@ 0x78
    a98c:	1a00001b 	bne	aa00 <vprintk+0x150>
    a990:	e59f416c 	ldr	r4, [pc, #364]	@ ab04 <vprintk+0x254>
    a994:	e5943000 	ldr	r3, [r4]
    a998:	e3a00030 	mov	r0, #48	@ 0x30
    a99c:	e12fff33 	blx	r3
    a9a0:	e5943000 	ldr	r3, [r4]
    a9a4:	e3a00078 	mov	r0, #120	@ 0x78
    a9a8:	e12fff33 	blx	r3
    a9ac:	e59d300c 	ldr	r3, [sp, #12]
    a9b0:	e2833007 	add	r3, r3, #7
    a9b4:	e3c33007 	bic	r3, r3, #7
    a9b8:	e2832008 	add	r2, r3, #8
    a9bc:	e58d200c 	str	r2, [sp, #12]
    a9c0:	e5934000 	ldr	r4, [r3]
    a9c4:	e5931004 	ldr	r1, [r3, #4]
    a9c8:	e3510000 	cmp	r1, #0
    a9cc:	1a000012 	bne	aa1c <vprintk+0x16c>
    a9d0:	e1a01004 	mov	r1, r4
    a9d4:	e3a00010 	mov	r0, #16
    a9d8:	ebffff70 	bl	a7a0 <emit_val>
    a9dc:	e1a04005 	mov	r4, r5
    a9e0:	eaffffba 	b	a8d0 <vprintk+0x20>
    a9e4:	e58d2000 	str	r2, [sp]
    a9e8:	e3a0303b 	mov	r3, #59	@ 0x3b
    a9ec:	e59f2118 	ldr	r2, [pc, #280]	@ ab0c <vprintk+0x25c>
    a9f0:	e59f1118 	ldr	r1, [pc, #280]	@ ab10 <vprintk+0x260>
    a9f4:	e59f0118 	ldr	r0, [pc, #280]	@ ab14 <vprintk+0x264>
    a9f8:	ebffff5d 	bl	a774 <printk>
    a9fc:	eb000079 	bl	abe8 <clean_reboot>
    aa00:	e58d5000 	str	r5, [sp]
    aa04:	e3a0303e 	mov	r3, #62	@ 0x3e
    aa08:	e59f20fc 	ldr	r2, [pc, #252]	@ ab0c <vprintk+0x25c>
    aa0c:	e59f10fc 	ldr	r1, [pc, #252]	@ ab10 <vprintk+0x260>
    aa10:	e59f00fc 	ldr	r0, [pc, #252]	@ ab14 <vprintk+0x264>
    aa14:	ebffff56 	bl	a774 <printk>
    aa18:	eb000072 	bl	abe8 <clean_reboot>
    aa1c:	e3a00010 	mov	r0, #16
    aa20:	ebffff5e 	bl	a7a0 <emit_val>
    aa24:	eaffffe9 	b	a9d0 <vprintk+0x120>
    aa28:	e59f40d4 	ldr	r4, [pc, #212]	@ ab04 <vprintk+0x254>
    aa2c:	e5943000 	ldr	r3, [r4]
    aa30:	e3a00030 	mov	r0, #48	@ 0x30
    aa34:	e12fff33 	blx	r3
    aa38:	e5943000 	ldr	r3, [r4]
    aa3c:	e3a00078 	mov	r0, #120	@ 0x78
    aa40:	e12fff33 	blx	r3
    aa44:	e59d300c 	ldr	r3, [sp, #12]
    aa48:	e2832004 	add	r2, r3, #4
    aa4c:	e58d200c 	str	r2, [sp, #12]
    aa50:	e5931000 	ldr	r1, [r3]
    aa54:	e3a00010 	mov	r0, #16
    aa58:	ebffff50 	bl	a7a0 <emit_val>
    aa5c:	e1a04005 	mov	r4, r5
    aa60:	eaffff9a 	b	a8d0 <vprintk+0x20>
    aa64:	e59d300c 	ldr	r3, [sp, #12]
    aa68:	e2832004 	add	r2, r3, #4
    aa6c:	e58d200c 	str	r2, [sp, #12]
    aa70:	e5934000 	ldr	r4, [r3]
    aa74:	e3540000 	cmp	r4, #0
    aa78:	ba000004 	blt	aa90 <vprintk+0x1e0>
    aa7c:	e1a01004 	mov	r1, r4
    aa80:	e3a0000a 	mov	r0, #10
    aa84:	ebffff45 	bl	a7a0 <emit_val>
    aa88:	e1a04005 	mov	r4, r5
    aa8c:	eaffff8f 	b	a8d0 <vprintk+0x20>
    aa90:	e59f306c 	ldr	r3, [pc, #108]	@ ab04 <vprintk+0x254>
    aa94:	e5933000 	ldr	r3, [r3]
    aa98:	e3a0002d 	mov	r0, #45	@ 0x2d
    aa9c:	e12fff33 	blx	r3
    aaa0:	e2644000 	rsb	r4, r4, #0
    aaa4:	eafffff4 	b	aa7c <vprintk+0x1cc>
    aaa8:	e59d300c 	ldr	r3, [sp, #12]
    aaac:	e2832004 	add	r2, r3, #4
    aab0:	e58d200c 	str	r2, [sp, #12]
    aab4:	e5934000 	ldr	r4, [r3]
    aab8:	ea000003 	b	aacc <vprintk+0x21c>
    aabc:	e59f3040 	ldr	r3, [pc, #64]	@ ab04 <vprintk+0x254>
    aac0:	e5933000 	ldr	r3, [r3]
    aac4:	e12fff33 	blx	r3
    aac8:	e2844001 	add	r4, r4, #1
    aacc:	e5d40000 	ldrb	r0, [r4]
    aad0:	e3500000 	cmp	r0, #0
    aad4:	1afffff8 	bne	aabc <vprintk+0x20c>
    aad8:	e1a04005 	mov	r4, r5
    aadc:	eaffff7b 	b	a8d0 <vprintk+0x20>
    aae0:	e58d2000 	str	r2, [sp]
    aae4:	e3a03062 	mov	r3, #98	@ 0x62
    aae8:	e59f201c 	ldr	r2, [pc, #28]	@ ab0c <vprintk+0x25c>
    aaec:	e59f101c 	ldr	r1, [pc, #28]	@ ab10 <vprintk+0x260>
    aaf0:	e59f0020 	ldr	r0, [pc, #32]	@ ab18 <vprintk+0x268>
    aaf4:	ebffff1e 	bl	a774 <printk>
    aaf8:	eb00003a 	bl	abe8 <clean_reboot>
    aafc:	e28dd014 	add	sp, sp, #20
    ab00:	e8bd8030 	pop	{r4, r5, pc}
    ab04:	0000c4a4 	.word	0x0000c4a4
    ab08:	0000c3fc 	.word	0x0000c3fc
    ab0c:	0000c420 	.word	0x0000c420
    ab10:	0000bd5c 	.word	0x0000bd5c
    ab14:	0000bdb4 	.word	0x0000bdb4
    ab18:	0000bdec 	.word	0x0000bdec

0000ab1c <default_putchar>:
    ab1c:	e92d4010 	push	{r4, lr}
    ab20:	e1a04000 	mov	r4, r0
    ab24:	e6ef0070 	uxtb	r0, r0
    ab28:	ebfffe7c 	bl	a520 <uart_put8>
    ab2c:	e1a00004 	mov	r0, r4
    ab30:	e8bd8010 	pop	{r4, pc}

0000ab34 <rpi_putchar_set>:
    ab34:	e59f300c 	ldr	r3, [pc, #12]	@ ab48 <rpi_putchar_set+0x14>
    ab38:	e5932000 	ldr	r2, [r3]
    ab3c:	e5830000 	str	r0, [r3]
    ab40:	e1a00002 	mov	r0, r2
    ab44:	e12fff1e 	bx	lr
    ab48:	0000c4a4 	.word	0x0000c4a4

0000ab4c <asm_not_reached_helper>:
    ab4c:	e92d4010 	push	{r4, lr}
    ab50:	e1a04000 	mov	r4, r0
    ab54:	e59f0010 	ldr	r0, [pc, #16]	@ ab6c <asm_not_reached_helper+0x20>
    ab58:	ebffff05 	bl	a774 <printk>
    ab5c:	e1a01004 	mov	r1, r4
    ab60:	e59f0008 	ldr	r0, [pc, #8]	@ ab70 <asm_not_reached_helper+0x24>
    ab64:	ebffff02 	bl	a774 <printk>
    ab68:	eb00001e 	bl	abe8 <clean_reboot>
    ab6c:	0000be14 	.word	0x0000be14
    ab70:	0000be48 	.word	0x0000be48

0000ab74 <asm_not_implemented_helper>:
    ab74:	e92d4010 	push	{r4, lr}
    ab78:	e1a04000 	mov	r4, r0
    ab7c:	e59f0010 	ldr	r0, [pc, #16]	@ ab94 <asm_not_implemented_helper+0x20>
    ab80:	ebfffefb 	bl	a774 <printk>
    ab84:	e1a01004 	mov	r1, r4
    ab88:	e59f0008 	ldr	r0, [pc, #8]	@ ab98 <asm_not_implemented_helper+0x24>
    ab8c:	ebfffef8 	bl	a774 <printk>
    ab90:	eb000014 	bl	abe8 <clean_reboot>
    ab94:	0000be7c 	.word	0x0000be7c
    ab98:	0000be48 	.word	0x0000be48

0000ab9c <asm_todo_helper>:
    ab9c:	e92d4010 	push	{r4, lr}
    aba0:	e1a04001 	mov	r4, r1
    aba4:	e59f0018 	ldr	r0, [pc, #24]	@ abc4 <asm_todo_helper+0x28>
    aba8:	ebfffef1 	bl	a774 <printk>
    abac:	e59f0014 	ldr	r0, [pc, #20]	@ abc8 <asm_todo_helper+0x2c>
    abb0:	ebfffeef 	bl	a774 <printk>
    abb4:	e1a01004 	mov	r1, r4
    abb8:	e59f000c 	ldr	r0, [pc, #12]	@ abcc <asm_todo_helper+0x30>
    abbc:	ebfffeec 	bl	a774 <printk>
    abc0:	eb000008 	bl	abe8 <clean_reboot>
    abc4:	0000bea8 	.word	0x0000bea8
    abc8:	0000bee0 	.word	0x0000bee0
    abcc:	0000bf14 	.word	0x0000bf14

0000abd0 <asm_bad_exception_helper>:
    abd0:	e92d4010 	push	{r4, lr}
    abd4:	e1a02000 	mov	r2, r0
    abd8:	e59f0004 	ldr	r0, [pc, #4]	@ abe4 <asm_bad_exception_helper+0x14>
    abdc:	ebfffee4 	bl	a774 <printk>
    abe0:	eb000000 	bl	abe8 <clean_reboot>
    abe4:	0000bf1c 	.word	0x0000bf1c

0000abe8 <clean_reboot>:
    abe8:	e92d4010 	push	{r4, lr}
    abec:	e59f0010 	ldr	r0, [pc, #16]	@ ac04 <clean_reboot+0x1c>
    abf0:	eb00011b 	bl	b064 <putk>
    abf4:	ebfffe5c 	bl	a56c <uart_flush_tx>
    abf8:	e3a0000a 	mov	r0, #10
    abfc:	eb0000ad 	bl	aeb8 <delay_ms>
    ac00:	eb000088 	bl	ae28 <rpi_reboot>
    ac04:	0000bf3c 	.word	0x0000bf3c

0000ac08 <redzone_check>:
    ac08:	e92d4030 	push	{r4, r5, lr}
    ac0c:	e24dd00c 	sub	sp, sp, #12
    ac10:	e2501000 	subs	r1, r0, #0
    ac14:	0a000001 	beq	ac20 <redzone_check+0x18>
    ac18:	e59f0070 	ldr	r0, [pc, #112]	@ ac90 <redzone_check+0x88>
    ac1c:	ebfffed4 	bl	a774 <printk>
    ac20:	e3a04000 	mov	r4, #0
    ac24:	e1a05004 	mov	r5, r4
    ac28:	ea000000 	b	ac30 <redzone_check+0x28>
    ac2c:	e2844001 	add	r4, r4, #1
    ac30:	e3540b01 	cmp	r4, #1024	@ 0x400
    ac34:	2a000009 	bcs	ac60 <redzone_check+0x58>
    ac38:	e1a01104 	lsl	r1, r4, #2
    ac3c:	e5913000 	ldr	r3, [r1]
    ac40:	e3530000 	cmp	r3, #0
    ac44:	0afffff8 	beq	ac2c <redzone_check+0x24>
    ac48:	e2855001 	add	r5, r5, #1
    ac4c:	e5912000 	ldr	r2, [r1]
    ac50:	e1a03005 	mov	r3, r5
    ac54:	e59f0038 	ldr	r0, [pc, #56]	@ ac94 <redzone_check+0x8c>
    ac58:	ebfffec5 	bl	a774 <printk>
    ac5c:	eafffff2 	b	ac2c <redzone_check+0x24>
    ac60:	e3550000 	cmp	r5, #0
    ac64:	1a000002 	bne	ac74 <redzone_check+0x6c>
    ac68:	e3a00001 	mov	r0, #1
    ac6c:	e28dd00c 	add	sp, sp, #12
    ac70:	e8bd8030 	pop	{r4, r5, pc}
    ac74:	e58d5000 	str	r5, [sp]
    ac78:	e3a0301b 	mov	r3, #27
    ac7c:	e59f2014 	ldr	r2, [pc, #20]	@ ac98 <redzone_check+0x90>
    ac80:	e59f1014 	ldr	r1, [pc, #20]	@ ac9c <redzone_check+0x94>
    ac84:	e59f0014 	ldr	r0, [pc, #20]	@ aca0 <redzone_check+0x98>
    ac88:	ebfffeb9 	bl	a774 <printk>
    ac8c:	ebffffd5 	bl	abe8 <clean_reboot>
    ac90:	0000bf48 	.word	0x0000bf48
    ac94:	0000bf60 	.word	0x0000bf60
    ac98:	0000c428 	.word	0x0000c428
    ac9c:	0000bf8c 	.word	0x0000bf8c
    aca0:	0000bfd4 	.word	0x0000bfd4

0000aca4 <redzone_init>:
    aca4:	e52de004 	push	{lr}		@ (str lr, [sp, #-4]!)
    aca8:	e24dd00c 	sub	sp, sp, #12
    acac:	e3a02a01 	mov	r2, #4096	@ 0x1000
    acb0:	e3a01000 	mov	r1, #0
    acb4:	e1a00001 	mov	r0, r1
    acb8:	ebfffe87 	bl	a6dc <memset>
    acbc:	e3a00000 	mov	r0, #0
    acc0:	ebffffd0 	bl	ac08 <redzone_check>
    acc4:	e3500000 	cmp	r0, #0
    acc8:	0a000001 	beq	acd4 <redzone_init+0x30>
    accc:	e28dd00c 	add	sp, sp, #12
    acd0:	e49df004 	pop	{pc}		@ (ldr pc, [sp], #4)
    acd4:	e59f3018 	ldr	r3, [pc, #24]	@ acf4 <redzone_init+0x50>
    acd8:	e58d3000 	str	r3, [sp]
    acdc:	e3a03022 	mov	r3, #34	@ 0x22
    ace0:	e59f2010 	ldr	r2, [pc, #16]	@ acf8 <redzone_init+0x54>
    ace4:	e59f1010 	ldr	r1, [pc, #16]	@ acfc <redzone_init+0x58>
    ace8:	e59f0010 	ldr	r0, [pc, #16]	@ ad00 <redzone_init+0x5c>
    acec:	ebfffea0 	bl	a774 <printk>
    acf0:	ebffffbc 	bl	abe8 <clean_reboot>
    acf4:	0000c004 	.word	0x0000c004
    acf8:	0000c438 	.word	0x0000c438
    acfc:	0000bf8c 	.word	0x0000bf8c
    ad00:	0000b268 	.word	0x0000b268

0000ad04 <program_end>:
    ad04:	e59f0000 	ldr	r0, [pc]	@ ad0c <program_end+0x8>
    ad08:	e12fff1e 	bx	lr
    ad0c:	0000c520 	.word	0x0000c520

0000ad10 <_cstart>:
    ad10:	e92d4010 	push	{r4, lr}
    ad14:	e59f302c 	ldr	r3, [pc, #44]	@ ad48 <_cstart+0x38>
    ad18:	ea000001 	b	ad24 <_cstart+0x14>
    ad1c:	e3a02000 	mov	r2, #0
    ad20:	e4c32001 	strb	r2, [r3], #1
    ad24:	e59f2020 	ldr	r2, [pc, #32]	@ ad4c <_cstart+0x3c>
    ad28:	e1530002 	cmp	r3, r2
    ad2c:	3afffffa 	bcc	ad1c <_cstart+0xc>
    ad30:	ebfffdb5 	bl	a40c <uart_init>
    ad34:	e3a03001 	mov	r3, #1
    ad38:	ee0f3f1c 	mcr	15, 0, r3, cr15, cr12, {0}
    ad3c:	ebffffd8 	bl	aca4 <redzone_init>
    ad40:	ebfff53d 	bl	823c <notmain>
    ad44:	ebffffa7 	bl	abe8 <clean_reboot>
    ad48:	0000c4a8 	.word	0x0000c4a8
    ad4c:	0000c520 	.word	0x0000c520

0000ad50 <int_vector>:
    ad50:	e52de004 	push	{lr}		@ (str lr, [sp, #-4]!)
    ad54:	e24dd00c 	sub	sp, sp, #12
    ad58:	e58d0000 	str	r0, [sp]
    ad5c:	e3a03003 	mov	r3, #3
    ad60:	e59f200c 	ldr	r2, [pc, #12]	@ ad74 <int_vector+0x24>
    ad64:	e59f100c 	ldr	r1, [pc, #12]	@ ad78 <int_vector+0x28>
    ad68:	e59f000c 	ldr	r0, [pc, #12]	@ ad7c <int_vector+0x2c>
    ad6c:	ebfffe80 	bl	a774 <printk>
    ad70:	ebffff9c 	bl	abe8 <clean_reboot>
    ad74:	0000c448 	.word	0x0000c448
    ad78:	0000c018 	.word	0x0000c018
    ad7c:	0000c03c 	.word	0x0000c03c

0000ad80 <prefetch_abort_vector>:
    ad80:	e52de004 	push	{lr}		@ (str lr, [sp, #-4]!)
    ad84:	e24dd00c 	sub	sp, sp, #12
    ad88:	e58d0000 	str	r0, [sp]
    ad8c:	e3a03003 	mov	r3, #3
    ad90:	e59f200c 	ldr	r2, [pc, #12]	@ ada4 <prefetch_abort_vector+0x24>
    ad94:	e59f100c 	ldr	r1, [pc, #12]	@ ada8 <prefetch_abort_vector+0x28>
    ad98:	e59f000c 	ldr	r0, [pc, #12]	@ adac <prefetch_abort_vector+0x2c>
    ad9c:	ebfffe74 	bl	a774 <printk>
    ada0:	ebffff90 	bl	abe8 <clean_reboot>
    ada4:	0000c454 	.word	0x0000c454
    ada8:	0000c068 	.word	0x0000c068
    adac:	0000c090 	.word	0x0000c090

0000adb0 <reset_vector>:
    adb0:	e52de004 	push	{lr}		@ (str lr, [sp, #-4]!)
    adb4:	e24dd00c 	sub	sp, sp, #12
    adb8:	e58d0000 	str	r0, [sp]
    adbc:	e3a03003 	mov	r3, #3
    adc0:	e59f200c 	ldr	r2, [pc, #12]	@ add4 <reset_vector+0x24>
    adc4:	e59f100c 	ldr	r1, [pc, #12]	@ add8 <reset_vector+0x28>
    adc8:	e59f000c 	ldr	r0, [pc, #12]	@ addc <reset_vector+0x2c>
    adcc:	ebfffe68 	bl	a774 <printk>
    add0:	ebffff84 	bl	abe8 <clean_reboot>
    add4:	0000c46c 	.word	0x0000c46c
    add8:	0000c0c0 	.word	0x0000c0c0
    addc:	0000c0e4 	.word	0x0000c0e4

0000ade0 <undefined_instruction_vector>:
    ade0:	e52de004 	push	{lr}		@ (str lr, [sp, #-4]!)
    ade4:	e24dd00c 	sub	sp, sp, #12
    ade8:	e58d0000 	str	r0, [sp]
    adec:	e3a03003 	mov	r3, #3
    adf0:	e59f200c 	ldr	r2, [pc, #12]	@ ae04 <undefined_instruction_vector+0x24>
    adf4:	e59f100c 	ldr	r1, [pc, #12]	@ ae08 <undefined_instruction_vector+0x28>
    adf8:	e59f000c 	ldr	r0, [pc, #12]	@ ae0c <undefined_instruction_vector+0x2c>
    adfc:	ebfffe5c 	bl	a774 <printk>
    ae00:	ebffff78 	bl	abe8 <clean_reboot>
    ae04:	0000c47c 	.word	0x0000c47c
    ae08:	0000c118 	.word	0x0000c118
    ae0c:	0000c148 	.word	0x0000c148

0000ae10 <dev_barrier>:
    ae10:	ea000002 	b	ae20 <dsb>

0000ae14 <dmb>:
    ae14:	e3a00000 	mov	r0, #0
    ae18:	ee070fba 	mcr	15, 0, r0, cr7, cr10, {5}
    ae1c:	e12fff1e 	bx	lr

0000ae20 <dsb>:
    ae20:	ee070f9a 	mcr	15, 0, r0, cr7, cr10, {4}
    ae24:	e12fff1e 	bx	lr

0000ae28 <rpi_reboot>:
    ae28:	e92d4010 	push	{r4, lr}
    ae2c:	e3a0000a 	mov	r0, #10
    ae30:	eb000020 	bl	aeb8 <delay_ms>
    ae34:	e59f1014 	ldr	r1, [pc, #20]	@ ae50 <rpi_reboot+0x28>
    ae38:	e59f0014 	ldr	r0, [pc, #20]	@ ae54 <rpi_reboot+0x2c>
    ae3c:	ebfff478 	bl	8024 <PUT32>
    ae40:	e59f1010 	ldr	r1, [pc, #16]	@ ae58 <rpi_reboot+0x30>
    ae44:	e59f0010 	ldr	r0, [pc, #16]	@ ae5c <rpi_reboot+0x34>
    ae48:	ebfff475 	bl	8024 <PUT32>
    ae4c:	eafffffe 	b	ae4c <rpi_reboot+0x24>
    ae50:	5a000001 	.word	0x5a000001
    ae54:	20100024 	.word	0x20100024
    ae58:	5a000020 	.word	0x5a000020
    ae5c:	2010001c 	.word	0x2010001c

0000ae60 <rpi_wait>:
    ae60:	e12fff1e 	bx	lr

0000ae64 <timer_get_usec_raw>:
    ae64:	e92d4010 	push	{r4, lr}
    ae68:	e59f0004 	ldr	r0, [pc, #4]	@ ae74 <timer_get_usec_raw+0x10>
    ae6c:	ebfff46e 	bl	802c <GET32>
    ae70:	e8bd8010 	pop	{r4, pc}
    ae74:	20003004 	.word	0x20003004

0000ae78 <timer_get_usec>:
    ae78:	e92d4010 	push	{r4, lr}
    ae7c:	ebffffe3 	bl	ae10 <dev_barrier>
    ae80:	ebfffff7 	bl	ae64 <timer_get_usec_raw>
    ae84:	e1a04000 	mov	r4, r0
    ae88:	ebffffe0 	bl	ae10 <dev_barrier>
    ae8c:	e1a00004 	mov	r0, r4
    ae90:	e8bd8010 	pop	{r4, pc}

0000ae94 <delay_us>:
    ae94:	e92d4070 	push	{r4, r5, r6, lr}
    ae98:	e1a05000 	mov	r5, r0
    ae9c:	ebfffff5 	bl	ae78 <timer_get_usec>
    aea0:	e1a04000 	mov	r4, r0
    aea4:	ebfffff3 	bl	ae78 <timer_get_usec>
    aea8:	e0400004 	sub	r0, r0, r4
    aeac:	e1500005 	cmp	r0, r5
    aeb0:	3afffffb 	bcc	aea4 <delay_us+0x10>
    aeb4:	e8bd8070 	pop	{r4, r5, r6, pc}

0000aeb8 <delay_ms>:
    aeb8:	e92d4010 	push	{r4, lr}
    aebc:	e0603280 	rsb	r3, r0, r0, lsl #5
    aec0:	e0800103 	add	r0, r0, r3, lsl #2
    aec4:	e1a00180 	lsl	r0, r0, #3
    aec8:	ebfffff1 	bl	ae94 <delay_us>
    aecc:	e8bd8010 	pop	{r4, pc}

0000aed0 <delay_sec>:
    aed0:	e92d4010 	push	{r4, lr}
    aed4:	e0603280 	rsb	r3, r0, r0, lsl #5
    aed8:	e0800103 	add	r0, r0, r3, lsl #2
    aedc:	e1a00180 	lsl	r0, r0, #3
    aee0:	ebfffff4 	bl	aeb8 <delay_ms>
    aee4:	e8bd8010 	pop	{r4, pc}

0000aee8 <gpio_set_function>:
    aee8:	e350002f 	cmp	r0, #47	@ 0x2f
    aeec:	1350001f 	cmpne	r0, #31
    aef0:	812fff1e 	bxhi	lr
    aef4:	e3510007 	cmp	r1, #7
    aef8:	812fff1e 	bxhi	lr
    aefc:	e92d4070 	push	{r4, r5, r6, lr}
    af00:	e59f3044 	ldr	r3, [pc, #68]	@ af4c <gpio_set_function+0x64>
    af04:	e0832093 	umull	r2, r3, r3, r0
    af08:	e1a031a3 	lsr	r3, r3, #3
    af0c:	e1a02103 	lsl	r2, r3, #2
    af10:	e2825202 	add	r5, r2, #536870912	@ 0x20000000
    af14:	e2855602 	add	r5, r5, #2097152	@ 0x200000
    af18:	e0822003 	add	r2, r2, r3
    af1c:	e0400082 	sub	r0, r0, r2, lsl #1
    af20:	e0800080 	add	r0, r0, r0, lsl #1
    af24:	e1a04011 	lsl	r4, r1, r0
    af28:	e3a06007 	mov	r6, #7
    af2c:	e1a06016 	lsl	r6, r6, r0
    af30:	e1a00005 	mov	r0, r5
    af34:	ebfff43c 	bl	802c <GET32>
    af38:	e1c01006 	bic	r1, r0, r6
    af3c:	e1841001 	orr	r1, r4, r1
    af40:	e1a00005 	mov	r0, r5
    af44:	ebfff436 	bl	8024 <PUT32>
    af48:	e8bd8070 	pop	{r4, r5, r6, pc}
    af4c:	cccccccd 	.word	0xcccccccd

0000af50 <gpio_set_output>:
    af50:	e92d4010 	push	{r4, lr}
    af54:	e3a01001 	mov	r1, #1
    af58:	ebffffe2 	bl	aee8 <gpio_set_function>
    af5c:	e8bd8010 	pop	{r4, pc}

0000af60 <gpio_set_on>:
    af60:	e350002f 	cmp	r0, #47	@ 0x2f
    af64:	1350001f 	cmpne	r0, #31
    af68:	812fff1e 	bxhi	lr
    af6c:	e92d4010 	push	{r4, lr}
    af70:	e350001f 	cmp	r0, #31
    af74:	8a000004 	bhi	af8c <gpio_set_on+0x2c>
    af78:	e3a01001 	mov	r1, #1
    af7c:	e1a01011 	lsl	r1, r1, r0
    af80:	e59f001c 	ldr	r0, [pc, #28]	@ afa4 <gpio_set_on+0x44>
    af84:	ebfff426 	bl	8024 <PUT32>
    af88:	e8bd8010 	pop	{r4, pc}
    af8c:	e2400020 	sub	r0, r0, #32
    af90:	e3a01001 	mov	r1, #1
    af94:	e1a01011 	lsl	r1, r1, r0
    af98:	e59f0008 	ldr	r0, [pc, #8]	@ afa8 <gpio_set_on+0x48>
    af9c:	ebfff420 	bl	8024 <PUT32>
    afa0:	e8bd8010 	pop	{r4, pc}
    afa4:	2020001c 	.word	0x2020001c
    afa8:	20200020 	.word	0x20200020

0000afac <gpio_set_off>:
    afac:	e350002f 	cmp	r0, #47	@ 0x2f
    afb0:	1350001f 	cmpne	r0, #31
    afb4:	812fff1e 	bxhi	lr
    afb8:	e92d4010 	push	{r4, lr}
    afbc:	e350001f 	cmp	r0, #31
    afc0:	8a000004 	bhi	afd8 <gpio_set_off+0x2c>
    afc4:	e3a01001 	mov	r1, #1
    afc8:	e1a01011 	lsl	r1, r1, r0
    afcc:	e59f001c 	ldr	r0, [pc, #28]	@ aff0 <gpio_set_off+0x44>
    afd0:	ebfff413 	bl	8024 <PUT32>
    afd4:	e8bd8010 	pop	{r4, pc}
    afd8:	e2400020 	sub	r0, r0, #32
    afdc:	e3a01001 	mov	r1, #1
    afe0:	e1a01011 	lsl	r1, r1, r0
    afe4:	e59f0008 	ldr	r0, [pc, #8]	@ aff4 <gpio_set_off+0x48>
    afe8:	ebfff40d 	bl	8024 <PUT32>
    afec:	e8bd8010 	pop	{r4, pc}
    aff0:	20200028 	.word	0x20200028
    aff4:	2020002c 	.word	0x2020002c

0000aff8 <gpio_write>:
    aff8:	e92d4010 	push	{r4, lr}
    affc:	e3510000 	cmp	r1, #0
    b000:	0a000001 	beq	b00c <gpio_write+0x14>
    b004:	ebffffd5 	bl	af60 <gpio_set_on>
    b008:	e8bd8010 	pop	{r4, pc}
    b00c:	ebffffe6 	bl	afac <gpio_set_off>
    b010:	e8bd8010 	pop	{r4, pc}

0000b014 <gpio_set_input>:
    b014:	e92d4010 	push	{r4, lr}
    b018:	e3a01000 	mov	r1, #0
    b01c:	ebffffb1 	bl	aee8 <gpio_set_function>
    b020:	e8bd8010 	pop	{r4, pc}

0000b024 <gpio_read>:
    b024:	e92d4010 	push	{r4, lr}
    b028:	e1a04000 	mov	r4, r0
    b02c:	e350001f 	cmp	r0, #31
    b030:	8a000005 	bhi	b04c <gpio_read+0x28>
    b034:	e59f0020 	ldr	r0, [pc, #32]	@ b05c <gpio_read+0x38>
    b038:	ebfff3fb 	bl	802c <GET32>
    b03c:	e3a03001 	mov	r3, #1
    b040:	e0000413 	and	r0, r0, r3, lsl r4
    b044:	e1a00430 	lsr	r0, r0, r4
    b048:	e8bd8010 	pop	{r4, pc}
    b04c:	e2404020 	sub	r4, r0, #32
    b050:	e59f0008 	ldr	r0, [pc, #8]	@ b060 <gpio_read+0x3c>
    b054:	ebfff3f4 	bl	802c <GET32>
    b058:	eafffff7 	b	b03c <gpio_read+0x18>
    b05c:	20200034 	.word	0x20200034
    b060:	20200038 	.word	0x20200038

0000b064 <putk>:
    b064:	e92d4010 	push	{r4, lr}
    b068:	e1a04000 	mov	r4, r0
    b06c:	ea000003 	b	b080 <putk+0x1c>
    b070:	e59f301c 	ldr	r3, [pc, #28]	@ b094 <putk+0x30>
    b074:	e5933000 	ldr	r3, [r3]
    b078:	e12fff33 	blx	r3
    b07c:	e2844001 	add	r4, r4, #1
    b080:	e5d40000 	ldrb	r0, [r4]
    b084:	e3500000 	cmp	r0, #0
    b088:	1afffff8 	bne	b070 <putk+0xc>
    b08c:	e3a00001 	mov	r0, #1
    b090:	e8bd8010 	pop	{r4, pc}
    b094:	0000c4a4 	.word	0x0000c4a4
