
objs/tests/1-mbr.elf:     file format elf32-littlearm


Disassembly of section .text:

00008000 <__code_start__>:
    8000:	e3a00013 	mov	r0, #19
    8004:	e3800080 	orr	r0, r0, #128	@ 0x80
    8008:	e129f000 	msr	CPSR_fc, r0
    800c:	e3a01000 	mov	r1, #0
    8010:	ee071f95 	mcr	15, 0, r1, cr7, cr5, {4}
    8014:	e3a0d302 	mov	sp, #134217728	@ 0x8000000
    8018:	e3a0b000 	mov	fp, #0
    801c:	eb00111a 	bl	c48c <_cstart>
    8020:	eb001129 	bl	c4cc <rpi_reboot>

00008024 <PUT32>:
    8024:	e5801000 	str	r1, [r0]
    8028:	e12fff1e 	bx	lr

0000802c <GET32>:
    802c:	e5900000 	ldr	r0, [r0]
    8030:	e12fff1e 	bx	lr

00008034 <BRANCHTO>:
    8034:	e12fff10 	bx	r0

00008038 <notmain>:
    8038:	e92d40f0 	push	{r4, r5, r6, r7, lr}
    803c:	e24dd01c 	sub	sp, sp, #28
    8040:	e3a01502 	mov	r1, #8388608	@ 0x800000
    8044:	e3a00601 	mov	r0, #1048576	@ 0x100000
    8048:	eb000ddc 	bl	b7c0 <kmalloc_init_set_start>
    804c:	eb00013f 	bl	8550 <pi_sd_init>
    8050:	e59f510c 	ldr	r5, [pc, #268]	@ 8164 <notmain+0x12c>
    8054:	e59f410c 	ldr	r4, [pc, #268]	@ 8168 <notmain+0x130>
    8058:	e1a01005 	mov	r1, r5
    805c:	e1a00004 	mov	r0, r4
    8060:	eb000fac 	bl	bf18 <printk>
    8064:	e59f0100 	ldr	r0, [pc, #256]	@ 816c <notmain+0x134>
    8068:	eb000faa 	bl	bf18 <printk>
    806c:	eb000048 	bl	8194 <mbr_read>
    8070:	e1a06000 	mov	r6, r0
    8074:	e1a01005 	mov	r1, r5
    8078:	e1a00004 	mov	r0, r4
    807c:	eb000fa5 	bl	bf18 <printk>
    8080:	e59f70e8 	ldr	r7, [pc, #232]	@ 8170 <notmain+0x138>
    8084:	e1a00007 	mov	r0, r7
    8088:	eb000fa2 	bl	bf18 <printk>
    808c:	e1a01005 	mov	r1, r5
    8090:	e1a00004 	mov	r0, r4
    8094:	eb000f9f 	bl	bf18 <printk>
    8098:	e59f00d4 	ldr	r0, [pc, #212]	@ 8174 <notmain+0x13c>
    809c:	eb000f9d 	bl	bf18 <printk>
    80a0:	e1a00006 	mov	r0, r6
    80a4:	eb000277 	bl	8a88 <mbr_check>
    80a8:	e1a01005 	mov	r1, r5
    80ac:	e1a00004 	mov	r0, r4
    80b0:	eb000f98 	bl	bf18 <printk>
    80b4:	e1a00007 	mov	r0, r7
    80b8:	eb000f96 	bl	bf18 <printk>
    80bc:	e1a01005 	mov	r1, r5
    80c0:	e1a00004 	mov	r0, r4
    80c4:	eb000f93 	bl	bf18 <printk>
    80c8:	e59f00a8 	ldr	r0, [pc, #168]	@ 8178 <notmain+0x140>
    80cc:	eb000f91 	bl	bf18 <printk>
    80d0:	e28d4008 	add	r4, sp, #8
    80d4:	e3a02000 	mov	r2, #0
    80d8:	e1a01006 	mov	r1, r6
    80dc:	e1a00004 	mov	r0, r4
    80e0:	eb0001c4 	bl	87f8 <mbr_get_partition>
    80e4:	e1a00004 	mov	r0, r4
    80e8:	eb00025e 	bl	8a68 <mbr_partition_empty>
    80ec:	e3500000 	cmp	r0, #0
    80f0:	1a00000b 	bne	8124 <notmain+0xec>
    80f4:	e5dd300c 	ldrb	r3, [sp, #12]
    80f8:	e243300b 	sub	r3, r3, #11
    80fc:	e3530001 	cmp	r3, #1
    8100:	8a00000f 	bhi	8144 <notmain+0x10c>
    8104:	e28d1008 	add	r1, sp, #8
    8108:	e59f006c 	ldr	r0, [pc, #108]	@ 817c <notmain+0x144>
    810c:	eb0002be 	bl	8c0c <mbr_partition_print>
    8110:	e59f1068 	ldr	r1, [pc, #104]	@ 8180 <notmain+0x148>
    8114:	e59f0068 	ldr	r0, [pc, #104]	@ 8184 <notmain+0x14c>
    8118:	eb000f7e 	bl	bf18 <printk>
    811c:	e28dd01c 	add	sp, sp, #28
    8120:	e8bd80f0 	pop	{r4, r5, r6, r7, pc}
    8124:	e59f305c 	ldr	r3, [pc, #92]	@ 8188 <notmain+0x150>
    8128:	e58d3000 	str	r3, [sp]
    812c:	e3a03012 	mov	r3, #18
    8130:	e1a02005 	mov	r2, r5
    8134:	e59f1044 	ldr	r1, [pc, #68]	@ 8180 <notmain+0x148>
    8138:	e59f004c 	ldr	r0, [pc, #76]	@ 818c <notmain+0x154>
    813c:	eb000f75 	bl	bf18 <printk>
    8140:	eb001087 	bl	c364 <clean_reboot>
    8144:	e59f3044 	ldr	r3, [pc, #68]	@ 8190 <notmain+0x158>
    8148:	e58d3000 	str	r3, [sp]
    814c:	e3a03013 	mov	r3, #19
    8150:	e59f200c 	ldr	r2, [pc, #12]	@ 8164 <notmain+0x12c>
    8154:	e59f1024 	ldr	r1, [pc, #36]	@ 8180 <notmain+0x148>
    8158:	e59f002c 	ldr	r0, [pc, #44]	@ 818c <notmain+0x154>
    815c:	eb000f6d 	bl	bf18 <printk>
    8160:	eb00107f 	bl	c364 <clean_reboot>
    8164:	0000e1dc 	.word	0x0000e1dc
    8168:	0000c7b0 	.word	0x0000c7b0
    816c:	0000c7bc 	.word	0x0000c7bc
    8170:	0000c7cc 	.word	0x0000c7cc
    8174:	0000c7d8 	.word	0x0000c7d8
    8178:	0000c7ec 	.word	0x0000c7ec
    817c:	0000c888 	.word	0x0000c888
    8180:	0000c808 	.word	0x0000c808
    8184:	0000c894 	.word	0x0000c894
    8188:	0000c848 	.word	0x0000c848
    818c:	0000c818 	.word	0x0000c818
    8190:	0000c864 	.word	0x0000c864

00008194 <mbr_read>:
    8194:	e92d4010 	push	{r4, lr}
    8198:	e3a00c02 	mov	r0, #512	@ 0x200
    819c:	eb000e00 	bl	b9a4 <kmalloc>
    81a0:	e1a04000 	mov	r4, r0
    81a4:	e3a02001 	mov	r2, #1
    81a8:	e3a01000 	mov	r1, #0
    81ac:	eb0000f9 	bl	8598 <pi_sd_read>
    81b0:	e1a00004 	mov	r0, r4
    81b4:	eb000233 	bl	8a88 <mbr_check>
    81b8:	e1a00004 	mov	r0, r4
    81bc:	e8bd8010 	pop	{r4, pc}

000081c0 <get_dirents>:
    81c0:	e92d4010 	push	{r4, lr}
    81c4:	e3a0308f 	mov	r3, #143	@ 0x8f
    81c8:	e59f200c 	ldr	r2, [pc, #12]	@ 81dc <get_dirents+0x1c>
    81cc:	e59f100c 	ldr	r1, [pc, #12]	@ 81e0 <get_dirents+0x20>
    81d0:	e59f000c 	ldr	r0, [pc, #12]	@ 81e4 <get_dirents+0x24>
    81d4:	eb000f4f 	bl	bf18 <printk>
    81d8:	eb001061 	bl	c364 <clean_reboot>
    81dc:	0000e1e4 	.word	0x0000e1e4
    81e0:	0000c8a0 	.word	0x0000c8a0
    81e4:	0000c8a8 	.word	0x0000c8a8

000081e8 <fat32_mk>:
    81e8:	e92d4010 	push	{r4, lr}
    81ec:	e3a03011 	mov	r3, #17
    81f0:	e59f200c 	ldr	r2, [pc, #12]	@ 8204 <fat32_mk+0x1c>
    81f4:	e59f100c 	ldr	r1, [pc, #12]	@ 8208 <fat32_mk+0x20>
    81f8:	e59f000c 	ldr	r0, [pc, #12]	@ 820c <fat32_mk+0x24>
    81fc:	eb000f45 	bl	bf18 <printk>
    8200:	eb001057 	bl	c364 <clean_reboot>
    8204:	0000e1f0 	.word	0x0000e1f0
    8208:	0000c8a0 	.word	0x0000c8a0
    820c:	0000c8a8 	.word	0x0000c8a8

00008210 <fat32_get_root>:
    8210:	e52de004 	push	{lr}		@ (str lr, [sp, #-4]!)
    8214:	e24dd00c 	sub	sp, sp, #12
    8218:	e59f3018 	ldr	r3, [pc, #24]	@ 8238 <fat32_get_root+0x28>
    821c:	e58d3000 	str	r3, [sp]
    8220:	e3a03058 	mov	r3, #88	@ 0x58
    8224:	e59f2010 	ldr	r2, [pc, #16]	@ 823c <fat32_get_root+0x2c>
    8228:	e59f1010 	ldr	r1, [pc, #16]	@ 8240 <fat32_get_root+0x30>
    822c:	e59f0010 	ldr	r0, [pc, #16]	@ 8244 <fat32_get_root+0x34>
    8230:	eb000f38 	bl	bf18 <printk>
    8234:	eb00104a 	bl	c364 <clean_reboot>
    8238:	0000c918 	.word	0x0000c918
    823c:	0000e1fc 	.word	0x0000e1fc
    8240:	0000c8a0 	.word	0x0000c8a0
    8244:	0000c8d4 	.word	0x0000c8d4

00008248 <fat32_readdir>:
    8248:	e52de004 	push	{lr}		@ (str lr, [sp, #-4]!)
    824c:	e24dd00c 	sub	sp, sp, #12
    8250:	e59f3018 	ldr	r3, [pc, #24]	@ 8270 <fat32_readdir+0x28>
    8254:	e58d3000 	str	r3, [sp]
    8258:	e3a0309a 	mov	r3, #154	@ 0x9a
    825c:	e59f2010 	ldr	r2, [pc, #16]	@ 8274 <fat32_readdir+0x2c>
    8260:	e59f1010 	ldr	r1, [pc, #16]	@ 8278 <fat32_readdir+0x30>
    8264:	e59f0010 	ldr	r0, [pc, #16]	@ 827c <fat32_readdir+0x34>
    8268:	eb000f2a 	bl	bf18 <printk>
    826c:	eb00103c 	bl	c364 <clean_reboot>
    8270:	0000c918 	.word	0x0000c918
    8274:	0000e20c 	.word	0x0000e20c
    8278:	0000c8a0 	.word	0x0000c8a0
    827c:	0000c8d4 	.word	0x0000c8d4

00008280 <fat32_stat>:
    8280:	e52de004 	push	{lr}		@ (str lr, [sp, #-4]!)
    8284:	e24dd00c 	sub	sp, sp, #12
    8288:	e59f3018 	ldr	r3, [pc, #24]	@ 82a8 <fat32_stat+0x28>
    828c:	e58d3000 	str	r3, [sp]
    8290:	e3a030b9 	mov	r3, #185	@ 0xb9
    8294:	e59f2010 	ldr	r2, [pc, #16]	@ 82ac <fat32_stat+0x2c>
    8298:	e59f1010 	ldr	r1, [pc, #16]	@ 82b0 <fat32_stat+0x30>
    829c:	e59f0010 	ldr	r0, [pc, #16]	@ 82b4 <fat32_stat+0x34>
    82a0:	eb000f1c 	bl	bf18 <printk>
    82a4:	eb00102e 	bl	c364 <clean_reboot>
    82a8:	0000c918 	.word	0x0000c918
    82ac:	0000e21c 	.word	0x0000e21c
    82b0:	0000c8a0 	.word	0x0000c8a0
    82b4:	0000c8d4 	.word	0x0000c8d4

000082b8 <fat32_read>:
    82b8:	e52de004 	push	{lr}		@ (str lr, [sp, #-4]!)
    82bc:	e24dd00c 	sub	sp, sp, #12
    82c0:	e59f3018 	ldr	r3, [pc, #24]	@ 82e0 <fat32_read+0x28>
    82c4:	e58d3000 	str	r3, [sp]
    82c8:	e3a030cc 	mov	r3, #204	@ 0xcc
    82cc:	e59f2010 	ldr	r2, [pc, #16]	@ 82e4 <fat32_read+0x2c>
    82d0:	e59f1010 	ldr	r1, [pc, #16]	@ 82e8 <fat32_read+0x30>
    82d4:	e59f0010 	ldr	r0, [pc, #16]	@ 82ec <fat32_read+0x34>
    82d8:	eb000f0e 	bl	bf18 <printk>
    82dc:	eb001020 	bl	c364 <clean_reboot>
    82e0:	0000c918 	.word	0x0000c918
    82e4:	0000e228 	.word	0x0000e228
    82e8:	0000c8a0 	.word	0x0000c8a0
    82ec:	0000c8d4 	.word	0x0000c8d4

000082f0 <fat32_rename>:
    82f0:	e52de004 	push	{lr}		@ (str lr, [sp, #-4]!)
    82f4:	e24dd00c 	sub	sp, sp, #12
    82f8:	e59f3018 	ldr	r3, [pc, #24]	@ 8318 <fat32_rename+0x28>
    82fc:	e58d3000 	str	r3, [sp]
    8300:	e59f3014 	ldr	r3, [pc, #20]	@ 831c <fat32_rename+0x2c>
    8304:	e59f2014 	ldr	r2, [pc, #20]	@ 8320 <fat32_rename+0x30>
    8308:	e59f1014 	ldr	r1, [pc, #20]	@ 8324 <fat32_rename+0x34>
    830c:	e59f0014 	ldr	r0, [pc, #20]	@ 8328 <fat32_rename+0x38>
    8310:	eb000f00 	bl	bf18 <printk>
    8314:	eb001012 	bl	c364 <clean_reboot>
    8318:	0000c918 	.word	0x0000c918
    831c:	0000012b 	.word	0x0000012b
    8320:	0000e234 	.word	0x0000e234
    8324:	0000c8a0 	.word	0x0000c8a0
    8328:	0000c8d4 	.word	0x0000c8d4

0000832c <fat32_create>:
    832c:	e52de004 	push	{lr}		@ (str lr, [sp, #-4]!)
    8330:	e24dd00c 	sub	sp, sp, #12
    8334:	e59f3018 	ldr	r3, [pc, #24]	@ 8354 <fat32_create+0x28>
    8338:	e58d3000 	str	r3, [sp]
    833c:	e59f3014 	ldr	r3, [pc, #20]	@ 8358 <fat32_create+0x2c>
    8340:	e59f2014 	ldr	r2, [pc, #20]	@ 835c <fat32_create+0x30>
    8344:	e59f1014 	ldr	r1, [pc, #20]	@ 8360 <fat32_create+0x34>
    8348:	e59f0014 	ldr	r0, [pc, #20]	@ 8364 <fat32_create+0x38>
    834c:	eb000ef1 	bl	bf18 <printk>
    8350:	eb001003 	bl	c364 <clean_reboot>
    8354:	0000c918 	.word	0x0000c918
    8358:	0000013e 	.word	0x0000013e
    835c:	0000e244 	.word	0x0000e244
    8360:	0000c8a0 	.word	0x0000c8a0
    8364:	0000c8d4 	.word	0x0000c8d4

00008368 <fat32_delete>:
    8368:	e52de004 	push	{lr}		@ (str lr, [sp, #-4]!)
    836c:	e24dd00c 	sub	sp, sp, #12
    8370:	e59f3018 	ldr	r3, [pc, #24]	@ 8390 <fat32_delete+0x28>
    8374:	e58d3000 	str	r3, [sp]
    8378:	e59f3014 	ldr	r3, [pc, #20]	@ 8394 <fat32_delete+0x2c>
    837c:	e59f2014 	ldr	r2, [pc, #20]	@ 8398 <fat32_delete+0x30>
    8380:	e59f1014 	ldr	r1, [pc, #20]	@ 839c <fat32_delete+0x34>
    8384:	e59f0014 	ldr	r0, [pc, #20]	@ 83a0 <fat32_delete+0x38>
    8388:	eb000ee2 	bl	bf18 <printk>
    838c:	eb000ff4 	bl	c364 <clean_reboot>
    8390:	0000c918 	.word	0x0000c918
    8394:	0000015a 	.word	0x0000015a
    8398:	0000e254 	.word	0x0000e254
    839c:	0000c8a0 	.word	0x0000c8a0
    83a0:	0000c8d4 	.word	0x0000c8d4

000083a4 <fat32_truncate>:
    83a4:	e52de004 	push	{lr}		@ (str lr, [sp, #-4]!)
    83a8:	e24dd00c 	sub	sp, sp, #12
    83ac:	e59f3018 	ldr	r3, [pc, #24]	@ 83cc <fat32_truncate+0x28>
    83b0:	e58d3000 	str	r3, [sp]
    83b4:	e59f3014 	ldr	r3, [pc, #20]	@ 83d0 <fat32_truncate+0x2c>
    83b8:	e59f2014 	ldr	r2, [pc, #20]	@ 83d4 <fat32_truncate+0x30>
    83bc:	e59f1014 	ldr	r1, [pc, #20]	@ 83d8 <fat32_truncate+0x34>
    83c0:	e59f0014 	ldr	r0, [pc, #20]	@ 83dc <fat32_truncate+0x38>
    83c4:	eb000ed3 	bl	bf18 <printk>
    83c8:	eb000fe5 	bl	c364 <clean_reboot>
    83cc:	0000c918 	.word	0x0000c918
    83d0:	0000016a 	.word	0x0000016a
    83d4:	0000e264 	.word	0x0000e264
    83d8:	0000c8a0 	.word	0x0000c8a0
    83dc:	0000c8d4 	.word	0x0000c8d4

000083e0 <fat32_write>:
    83e0:	e52de004 	push	{lr}		@ (str lr, [sp, #-4]!)
    83e4:	e24dd00c 	sub	sp, sp, #12
    83e8:	e59f3018 	ldr	r3, [pc, #24]	@ 8408 <fat32_write+0x28>
    83ec:	e58d3000 	str	r3, [sp]
    83f0:	e59f3014 	ldr	r3, [pc, #20]	@ 840c <fat32_write+0x2c>
    83f4:	e59f2014 	ldr	r2, [pc, #20]	@ 8410 <fat32_write+0x30>
    83f8:	e59f1014 	ldr	r1, [pc, #20]	@ 8414 <fat32_write+0x34>
    83fc:	e59f0014 	ldr	r0, [pc, #20]	@ 8418 <fat32_write+0x38>
    8400:	eb000ec4 	bl	bf18 <printk>
    8404:	eb000fd6 	bl	c364 <clean_reboot>
    8408:	0000c918 	.word	0x0000c918
    840c:	0000017b 	.word	0x0000017b
    8410:	0000e274 	.word	0x0000e274
    8414:	0000c8a0 	.word	0x0000c8a0
    8418:	0000c8d4 	.word	0x0000c8d4

0000841c <fat32_flush>:
    841c:	e52de004 	push	{lr}		@ (str lr, [sp, #-4]!)
    8420:	e24dd00c 	sub	sp, sp, #12
    8424:	e59f3018 	ldr	r3, [pc, #24]	@ 8444 <fat32_flush+0x28>
    8428:	e58d3000 	str	r3, [sp]
    842c:	e59f3014 	ldr	r3, [pc, #20]	@ 8448 <fat32_flush+0x2c>
    8430:	e59f2014 	ldr	r2, [pc, #20]	@ 844c <fat32_flush+0x30>
    8434:	e59f1014 	ldr	r1, [pc, #20]	@ 8450 <fat32_flush+0x34>
    8438:	e59f0014 	ldr	r0, [pc, #20]	@ 8454 <fat32_flush+0x38>
    843c:	eb000eb5 	bl	bf18 <printk>
    8440:	eb000fc7 	bl	c364 <clean_reboot>
    8444:	0000c918 	.word	0x0000c918
    8448:	0000018b 	.word	0x0000018b
    844c:	0000e280 	.word	0x0000e280
    8450:	0000c8a0 	.word	0x0000c8a0
    8454:	0000c8d4 	.word	0x0000c8d4

00008458 <fast_hash_inc32>:
    8458:	e3500000 	cmp	r0, #0
    845c:	13510000 	cmpne	r1, #0
    8460:	0a000034 	beq	8538 <fast_hash_inc32+0xe0>
    8464:	e52de004 	push	{lr}		@ (str lr, [sp, #-4]!)
    8468:	e1a0c000 	mov	ip, r0
    846c:	e201e003 	and	lr, r1, #3
    8470:	e1a01121 	lsr	r1, r1, #2
    8474:	ea00000b 	b	84a8 <fast_hash_inc32+0x50>
    8478:	e5dc0001 	ldrb	r0, [ip, #1]
    847c:	e5dc3000 	ldrb	r3, [ip]
    8480:	e1833400 	orr	r3, r3, r0, lsl #8
    8484:	e0823003 	add	r3, r2, r3
    8488:	e5dc0003 	ldrb	r0, [ip, #3]
    848c:	e5dc2002 	ldrb	r2, [ip, #2]
    8490:	e1822400 	orr	r2, r2, r0, lsl #8
    8494:	e0232582 	eor	r2, r3, r2, lsl #11
    8498:	e0222803 	eor	r2, r2, r3, lsl #16
    849c:	e28cc004 	add	ip, ip, #4
    84a0:	e08225a2 	add	r2, r2, r2, lsr #11
    84a4:	e2411001 	sub	r1, r1, #1
    84a8:	e3510000 	cmp	r1, #0
    84ac:	1afffff1 	bne	8478 <fast_hash_inc32+0x20>
    84b0:	e35e0002 	cmp	lr, #2
    84b4:	0a000013 	beq	8508 <fast_hash_inc32+0xb0>
    84b8:	e35e0003 	cmp	lr, #3
    84bc:	0a000008 	beq	84e4 <fast_hash_inc32+0x8c>
    84c0:	e35e0001 	cmp	lr, #1
    84c4:	0a000016 	beq	8524 <fast_hash_inc32+0xcc>
    84c8:	e0220182 	eor	r0, r2, r2, lsl #3
    84cc:	e08002a0 	add	r0, r0, r0, lsr #5
    84d0:	e0200200 	eor	r0, r0, r0, lsl #4
    84d4:	e08008a0 	add	r0, r0, r0, lsr #17
    84d8:	e0200c80 	eor	r0, r0, r0, lsl #25
    84dc:	e0800320 	add	r0, r0, r0, lsr #6
    84e0:	e49df004 	pop	{pc}		@ (ldr pc, [sp], #4)
    84e4:	e5dc1001 	ldrb	r1, [ip, #1]
    84e8:	e5dc3000 	ldrb	r3, [ip]
    84ec:	e1833401 	orr	r3, r3, r1, lsl #8
    84f0:	e0823003 	add	r3, r2, r3
    84f4:	e0233803 	eor	r3, r3, r3, lsl #16
    84f8:	e1dc20d2 	ldrsb	r2, [ip, #2]
    84fc:	e0233902 	eor	r3, r3, r2, lsl #18
    8500:	e08325a3 	add	r2, r3, r3, lsr #11
    8504:	eaffffef 	b	84c8 <fast_hash_inc32+0x70>
    8508:	e5dc1001 	ldrb	r1, [ip, #1]
    850c:	e5dc3000 	ldrb	r3, [ip]
    8510:	e1833401 	orr	r3, r3, r1, lsl #8
    8514:	e0823003 	add	r3, r2, r3
    8518:	e0233583 	eor	r3, r3, r3, lsl #11
    851c:	e08328a3 	add	r2, r3, r3, lsr #17
    8520:	eaffffe8 	b	84c8 <fast_hash_inc32+0x70>
    8524:	e1dc30d0 	ldrsb	r3, [ip]
    8528:	e0833002 	add	r3, r3, r2
    852c:	e0233503 	eor	r3, r3, r3, lsl #10
    8530:	e08320a3 	add	r2, r3, r3, lsr #1
    8534:	eaffffe3 	b	84c8 <fast_hash_inc32+0x70>
    8538:	e3a00000 	mov	r0, #0
    853c:	e12fff1e 	bx	lr

00008540 <pi_sd_trace>:
    8540:	e59f3004 	ldr	r3, [pc, #4]	@ 854c <pi_sd_trace+0xc>
    8544:	e5830000 	str	r0, [r3]
    8548:	e12fff1e 	bx	lr
    854c:	0000ed58 	.word	0x0000ed58

00008550 <pi_sd_init>:
    8550:	e92d4010 	push	{r4, lr}
    8554:	eb000c50 	bl	b69c <emmc_init>
    8558:	e3500000 	cmp	r0, #0
    855c:	0a000003 	beq	8570 <pi_sd_init+0x20>
    8560:	e3a00001 	mov	r0, #1
    8564:	e59f301c 	ldr	r3, [pc, #28]	@ 8588 <pi_sd_init+0x38>
    8568:	e5830004 	str	r0, [r3, #4]
    856c:	e8bd8010 	pop	{r4, pc}
    8570:	e3a0301d 	mov	r3, #29
    8574:	e59f2010 	ldr	r2, [pc, #16]	@ 858c <pi_sd_init+0x3c>
    8578:	e59f1010 	ldr	r1, [pc, #16]	@ 8590 <pi_sd_init+0x40>
    857c:	e59f0010 	ldr	r0, [pc, #16]	@ 8594 <pi_sd_init+0x44>
    8580:	eb000e64 	bl	bf18 <printk>
    8584:	eb000f76 	bl	c364 <clean_reboot>
    8588:	0000ed58 	.word	0x0000ed58
    858c:	0000e28c 	.word	0x0000e28c
    8590:	0000c920 	.word	0x0000c920
    8594:	0000c928 	.word	0x0000c928

00008598 <pi_sd_read>:
    8598:	e92d4070 	push	{r4, r5, r6, lr}
    859c:	e24dd008 	sub	sp, sp, #8
    85a0:	e59f30b4 	ldr	r3, [pc, #180]	@ 865c <pi_sd_read+0xc4>
    85a4:	e5933004 	ldr	r3, [r3, #4]
    85a8:	e3530000 	cmp	r3, #0
    85ac:	0a00000f 	beq	85f0 <pi_sd_read+0x58>
    85b0:	e1a06000 	mov	r6, r0
    85b4:	e1a05001 	mov	r5, r1
    85b8:	e1a04482 	lsl	r4, r2, #9
    85bc:	e1a02004 	mov	r2, r4
    85c0:	e1a01000 	mov	r1, r0
    85c4:	e1a00005 	mov	r0, r5
    85c8:	eb000bed 	bl	b584 <emmc_read>
    85cc:	e1500004 	cmp	r0, r4
    85d0:	1a00000e 	bne	8610 <pi_sd_read+0x78>
    85d4:	e59f3080 	ldr	r3, [pc, #128]	@ 865c <pi_sd_read+0xc4>
    85d8:	e5933000 	ldr	r3, [r3]
    85dc:	e3530000 	cmp	r3, #0
    85e0:	1a000011 	bne	862c <pi_sd_read+0x94>
    85e4:	e3a00001 	mov	r0, #1
    85e8:	e28dd008 	add	sp, sp, #8
    85ec:	e8bd8070 	pop	{r4, r5, r6, pc}
    85f0:	e59f3068 	ldr	r3, [pc, #104]	@ 8660 <pi_sd_read+0xc8>
    85f4:	e58d3000 	str	r3, [sp]
    85f8:	e3a03023 	mov	r3, #35	@ 0x23
    85fc:	e59f2060 	ldr	r2, [pc, #96]	@ 8664 <pi_sd_read+0xcc>
    8600:	e59f1060 	ldr	r1, [pc, #96]	@ 8668 <pi_sd_read+0xd0>
    8604:	e59f0060 	ldr	r0, [pc, #96]	@ 866c <pi_sd_read+0xd4>
    8608:	eb000e42 	bl	bf18 <printk>
    860c:	eb000f54 	bl	c364 <clean_reboot>
    8610:	e58d0000 	str	r0, [sp]
    8614:	e3a03026 	mov	r3, #38	@ 0x26
    8618:	e59f2044 	ldr	r2, [pc, #68]	@ 8664 <pi_sd_read+0xcc>
    861c:	e59f1044 	ldr	r1, [pc, #68]	@ 8668 <pi_sd_read+0xd0>
    8620:	e59f0048 	ldr	r0, [pc, #72]	@ 8670 <pi_sd_read+0xd8>
    8624:	eb000e3b 	bl	bf18 <printk>
    8628:	eb000f4d 	bl	c364 <clean_reboot>
    862c:	e59f1030 	ldr	r1, [pc, #48]	@ 8664 <pi_sd_read+0xcc>
    8630:	e59f003c 	ldr	r0, [pc, #60]	@ 8674 <pi_sd_read+0xdc>
    8634:	eb000e37 	bl	bf18 <printk>
    8638:	e1a02004 	mov	r2, r4
    863c:	e1a01004 	mov	r1, r4
    8640:	e1a00006 	mov	r0, r6
    8644:	ebffff83 	bl	8458 <fast_hash_inc32>
    8648:	e1a02000 	mov	r2, r0
    864c:	e1a01005 	mov	r1, r5
    8650:	e59f0020 	ldr	r0, [pc, #32]	@ 8678 <pi_sd_read+0xe0>
    8654:	eb000e2f 	bl	bf18 <printk>
    8658:	eaffffe1 	b	85e4 <pi_sd_read+0x4c>
    865c:	0000ed58 	.word	0x0000ed58
    8660:	0000c918 	.word	0x0000c918
    8664:	0000e298 	.word	0x0000e298
    8668:	0000c920 	.word	0x0000c920
    866c:	0000c948 	.word	0x0000c948
    8670:	0000c990 	.word	0x0000c990
    8674:	0000c7b0 	.word	0x0000c7b0
    8678:	0000c9cc 	.word	0x0000c9cc

0000867c <pi_sec_read>:
    867c:	e92d4070 	push	{r4, r5, r6, lr}
    8680:	e24dd008 	sub	sp, sp, #8
    8684:	e59f3074 	ldr	r3, [pc, #116]	@ 8700 <pi_sec_read+0x84>
    8688:	e5933004 	ldr	r3, [r3, #4]
    868c:	e3530000 	cmp	r3, #0
    8690:	0a00000c 	beq	86c8 <pi_sec_read+0x4c>
    8694:	e1a05000 	mov	r5, r0
    8698:	e1a04001 	mov	r4, r1
    869c:	e1a00481 	lsl	r0, r1, #9
    86a0:	eb000cbf 	bl	b9a4 <kmalloc>
    86a4:	e1a06000 	mov	r6, r0
    86a8:	e1a02004 	mov	r2, r4
    86ac:	e1a01005 	mov	r1, r5
    86b0:	ebffffb8 	bl	8598 <pi_sd_read>
    86b4:	e3500000 	cmp	r0, #0
    86b8:	0a00000a 	beq	86e8 <pi_sec_read+0x6c>
    86bc:	e1a00006 	mov	r0, r6
    86c0:	e28dd008 	add	sp, sp, #8
    86c4:	e8bd8070 	pop	{r4, r5, r6, pc}
    86c8:	e59f3034 	ldr	r3, [pc, #52]	@ 8704 <pi_sec_read+0x88>
    86cc:	e58d3000 	str	r3, [sp]
    86d0:	e3a03030 	mov	r3, #48	@ 0x30
    86d4:	e59f202c 	ldr	r2, [pc, #44]	@ 8708 <pi_sec_read+0x8c>
    86d8:	e59f102c 	ldr	r1, [pc, #44]	@ 870c <pi_sec_read+0x90>
    86dc:	e59f002c 	ldr	r0, [pc, #44]	@ 8710 <pi_sec_read+0x94>
    86e0:	eb000e0c 	bl	bf18 <printk>
    86e4:	eb000f1e 	bl	c364 <clean_reboot>
    86e8:	e3a03034 	mov	r3, #52	@ 0x34
    86ec:	e59f2014 	ldr	r2, [pc, #20]	@ 8708 <pi_sec_read+0x8c>
    86f0:	e59f1014 	ldr	r1, [pc, #20]	@ 870c <pi_sec_read+0x90>
    86f4:	e59f0018 	ldr	r0, [pc, #24]	@ 8714 <pi_sec_read+0x98>
    86f8:	eb000e06 	bl	bf18 <printk>
    86fc:	eb000f18 	bl	c364 <clean_reboot>
    8700:	0000ed58 	.word	0x0000ed58
    8704:	0000c918 	.word	0x0000c918
    8708:	0000e2a4 	.word	0x0000e2a4
    870c:	0000c920 	.word	0x0000c920
    8710:	0000c948 	.word	0x0000c948
    8714:	0000c9ec 	.word	0x0000c9ec

00008718 <pi_sd_write>:
    8718:	e92d4070 	push	{r4, r5, r6, lr}
    871c:	e24dd008 	sub	sp, sp, #8
    8720:	e59f30b0 	ldr	r3, [pc, #176]	@ 87d8 <pi_sd_write+0xc0>
    8724:	e5933004 	ldr	r3, [r3, #4]
    8728:	e3530000 	cmp	r3, #0
    872c:	0a00000f 	beq	8770 <pi_sd_write+0x58>
    8730:	e1a06000 	mov	r6, r0
    8734:	e1a05001 	mov	r5, r1
    8738:	e1a04482 	lsl	r4, r2, #9
    873c:	e1a02004 	mov	r2, r4
    8740:	e1a01000 	mov	r1, r0
    8744:	e1a00005 	mov	r0, r5
    8748:	eb000bb1 	bl	b614 <emmc_write>
    874c:	e1500004 	cmp	r0, r4
    8750:	1a00000e 	bne	8790 <pi_sd_write+0x78>
    8754:	e59f307c 	ldr	r3, [pc, #124]	@ 87d8 <pi_sd_write+0xc0>
    8758:	e5933000 	ldr	r3, [r3]
    875c:	e3530000 	cmp	r3, #0
    8760:	1a000011 	bne	87ac <pi_sd_write+0x94>
    8764:	e3a00001 	mov	r0, #1
    8768:	e28dd008 	add	sp, sp, #8
    876c:	e8bd8070 	pop	{r4, r5, r6, pc}
    8770:	e59f3064 	ldr	r3, [pc, #100]	@ 87dc <pi_sd_write+0xc4>
    8774:	e58d3000 	str	r3, [sp]
    8778:	e3a0303b 	mov	r3, #59	@ 0x3b
    877c:	e59f205c 	ldr	r2, [pc, #92]	@ 87e0 <pi_sd_write+0xc8>
    8780:	e59f105c 	ldr	r1, [pc, #92]	@ 87e4 <pi_sd_write+0xcc>
    8784:	e59f005c 	ldr	r0, [pc, #92]	@ 87e8 <pi_sd_write+0xd0>
    8788:	eb000de2 	bl	bf18 <printk>
    878c:	eb000ef4 	bl	c364 <clean_reboot>
    8790:	e58d0000 	str	r0, [sp]
    8794:	e3a0303e 	mov	r3, #62	@ 0x3e
    8798:	e59f2040 	ldr	r2, [pc, #64]	@ 87e0 <pi_sd_write+0xc8>
    879c:	e59f1040 	ldr	r1, [pc, #64]	@ 87e4 <pi_sd_write+0xcc>
    87a0:	e59f0044 	ldr	r0, [pc, #68]	@ 87ec <pi_sd_write+0xd4>
    87a4:	eb000ddb 	bl	bf18 <printk>
    87a8:	eb000eed 	bl	c364 <clean_reboot>
    87ac:	e59f102c 	ldr	r1, [pc, #44]	@ 87e0 <pi_sd_write+0xc8>
    87b0:	e59f0038 	ldr	r0, [pc, #56]	@ 87f0 <pi_sd_write+0xd8>
    87b4:	eb000dd7 	bl	bf18 <printk>
    87b8:	e1a01004 	mov	r1, r4
    87bc:	e1a00006 	mov	r0, r6
    87c0:	eb000d47 	bl	bce4 <our_crc32>
    87c4:	e1a02000 	mov	r2, r0
    87c8:	e1a01005 	mov	r1, r5
    87cc:	e59f0020 	ldr	r0, [pc, #32]	@ 87f4 <pi_sd_write+0xdc>
    87d0:	eb000dd0 	bl	bf18 <printk>
    87d4:	eaffffe2 	b	8764 <pi_sd_write+0x4c>
    87d8:	0000ed58 	.word	0x0000ed58
    87dc:	0000c918 	.word	0x0000c918
    87e0:	0000e2b0 	.word	0x0000e2b0
    87e4:	0000c920 	.word	0x0000c920
    87e8:	0000c948 	.word	0x0000c948
    87ec:	0000ca1c 	.word	0x0000ca1c
    87f0:	0000c7b0 	.word	0x0000c7b0
    87f4:	0000ca58 	.word	0x0000ca58

000087f8 <mbr_get_partition>:
    87f8:	e92d4030 	push	{r4, r5, lr}
    87fc:	e24dd01c 	sub	sp, sp, #28
    8800:	e3520003 	cmp	r2, #3
    8804:	8a00000f 	bhi	8848 <mbr_get_partition+0x50>
    8808:	e1a04000 	mov	r4, r0
    880c:	e1a03002 	mov	r3, r2
    8810:	e2811f6f 	add	r1, r1, #444	@ 0x1bc
    8814:	e2811002 	add	r1, r1, #2
    8818:	e28d5008 	add	r5, sp, #8
    881c:	e3a02010 	mov	r2, #16
    8820:	e0811203 	add	r1, r1, r3, lsl #4
    8824:	e1a00005 	mov	r0, r5
    8828:	eb000d5d 	bl	bda4 <memcpy>
    882c:	e3a02010 	mov	r2, #16
    8830:	e1a01005 	mov	r1, r5
    8834:	e1a00004 	mov	r0, r4
    8838:	eb000d59 	bl	bda4 <memcpy>
    883c:	e1a00004 	mov	r0, r4
    8840:	e28dd01c 	add	sp, sp, #28
    8844:	e8bd8030 	pop	{r4, r5, pc}
    8848:	e59f3018 	ldr	r3, [pc, #24]	@ 8868 <mbr_get_partition+0x70>
    884c:	e58d3000 	str	r3, [sp]
    8850:	e3a0301c 	mov	r3, #28
    8854:	e59f2010 	ldr	r2, [pc, #16]	@ 886c <mbr_get_partition+0x74>
    8858:	e59f1010 	ldr	r1, [pc, #16]	@ 8870 <mbr_get_partition+0x78>
    885c:	e59f0010 	ldr	r0, [pc, #16]	@ 8874 <mbr_get_partition+0x7c>
    8860:	eb000dac 	bl	bf18 <printk>
    8864:	eb000ebe 	bl	c364 <clean_reboot>
    8868:	0000ca88 	.word	0x0000ca88
    886c:	0000e3bc 	.word	0x0000e3bc
    8870:	0000ca78 	.word	0x0000ca78
    8874:	0000c818 	.word	0x0000c818

00008878 <mbr_part_str>:
    8878:	e59f3154 	ldr	r3, [pc, #340]	@ 89d4 <mbr_part_str+0x15c>
    887c:	e35000fc 	cmp	r0, #252	@ 0xfc
    8880:	8a000046 	bhi	89a0 <mbr_part_str+0x128>
    8884:	e7d33000 	ldrb	r3, [r3, r0]
    8888:	e08ff103 	add	pc, pc, r3, lsl #2
    888c:	e320f000 	nop	{0}
    8890:	e59f0140 	ldr	r0, [pc, #320]	@ 89d8 <mbr_part_str+0x160>
    8894:	e12fff1e 	bx	lr
    8898:	e59f013c 	ldr	r0, [pc, #316]	@ 89dc <mbr_part_str+0x164>
    889c:	e12fff1e 	bx	lr
    88a0:	e59f0138 	ldr	r0, [pc, #312]	@ 89e0 <mbr_part_str+0x168>
    88a4:	e12fff1e 	bx	lr
    88a8:	e59f0134 	ldr	r0, [pc, #308]	@ 89e4 <mbr_part_str+0x16c>
    88ac:	e12fff1e 	bx	lr
    88b0:	e59f0130 	ldr	r0, [pc, #304]	@ 89e8 <mbr_part_str+0x170>
    88b4:	e12fff1e 	bx	lr
    88b8:	e59f012c 	ldr	r0, [pc, #300]	@ 89ec <mbr_part_str+0x174>
    88bc:	e12fff1e 	bx	lr
    88c0:	e59f0128 	ldr	r0, [pc, #296]	@ 89f0 <mbr_part_str+0x178>
    88c4:	e12fff1e 	bx	lr
    88c8:	e59f0124 	ldr	r0, [pc, #292]	@ 89f4 <mbr_part_str+0x17c>
    88cc:	e12fff1e 	bx	lr
    88d0:	e59f0120 	ldr	r0, [pc, #288]	@ 89f8 <mbr_part_str+0x180>
    88d4:	e12fff1e 	bx	lr
    88d8:	e59f011c 	ldr	r0, [pc, #284]	@ 89fc <mbr_part_str+0x184>
    88dc:	e12fff1e 	bx	lr
    88e0:	e59f0118 	ldr	r0, [pc, #280]	@ 8a00 <mbr_part_str+0x188>
    88e4:	e12fff1e 	bx	lr
    88e8:	e59f0114 	ldr	r0, [pc, #276]	@ 8a04 <mbr_part_str+0x18c>
    88ec:	e12fff1e 	bx	lr
    88f0:	e59f0110 	ldr	r0, [pc, #272]	@ 8a08 <mbr_part_str+0x190>
    88f4:	e12fff1e 	bx	lr
    88f8:	e59f010c 	ldr	r0, [pc, #268]	@ 8a0c <mbr_part_str+0x194>
    88fc:	e12fff1e 	bx	lr
    8900:	e59f0108 	ldr	r0, [pc, #264]	@ 8a10 <mbr_part_str+0x198>
    8904:	e12fff1e 	bx	lr
    8908:	e59f0104 	ldr	r0, [pc, #260]	@ 8a14 <mbr_part_str+0x19c>
    890c:	e12fff1e 	bx	lr
    8910:	e59f0100 	ldr	r0, [pc, #256]	@ 8a18 <mbr_part_str+0x1a0>
    8914:	e12fff1e 	bx	lr
    8918:	e59f00fc 	ldr	r0, [pc, #252]	@ 8a1c <mbr_part_str+0x1a4>
    891c:	e12fff1e 	bx	lr
    8920:	e59f00f8 	ldr	r0, [pc, #248]	@ 8a20 <mbr_part_str+0x1a8>
    8924:	e12fff1e 	bx	lr
    8928:	e59f00f4 	ldr	r0, [pc, #244]	@ 8a24 <mbr_part_str+0x1ac>
    892c:	e12fff1e 	bx	lr
    8930:	e59f00ec 	ldr	r0, [pc, #236]	@ 8a24 <mbr_part_str+0x1ac>
    8934:	e12fff1e 	bx	lr
    8938:	e59f00dc 	ldr	r0, [pc, #220]	@ 8a1c <mbr_part_str+0x1a4>
    893c:	e12fff1e 	bx	lr
    8940:	e59f00d4 	ldr	r0, [pc, #212]	@ 8a1c <mbr_part_str+0x1a4>
    8944:	e12fff1e 	bx	lr
    8948:	e59f00d8 	ldr	r0, [pc, #216]	@ 8a28 <mbr_part_str+0x1b0>
    894c:	e12fff1e 	bx	lr
    8950:	e59f00d4 	ldr	r0, [pc, #212]	@ 8a2c <mbr_part_str+0x1b4>
    8954:	e12fff1e 	bx	lr
    8958:	e59f00d0 	ldr	r0, [pc, #208]	@ 8a30 <mbr_part_str+0x1b8>
    895c:	e12fff1e 	bx	lr
    8960:	e59f00cc 	ldr	r0, [pc, #204]	@ 8a34 <mbr_part_str+0x1bc>
    8964:	e12fff1e 	bx	lr
    8968:	e59f00c8 	ldr	r0, [pc, #200]	@ 8a38 <mbr_part_str+0x1c0>
    896c:	e12fff1e 	bx	lr
    8970:	e59f00c4 	ldr	r0, [pc, #196]	@ 8a3c <mbr_part_str+0x1c4>
    8974:	e12fff1e 	bx	lr
    8978:	e59f00c0 	ldr	r0, [pc, #192]	@ 8a40 <mbr_part_str+0x1c8>
    897c:	e12fff1e 	bx	lr
    8980:	e59f00bc 	ldr	r0, [pc, #188]	@ 8a44 <mbr_part_str+0x1cc>
    8984:	e12fff1e 	bx	lr
    8988:	e59f00b8 	ldr	r0, [pc, #184]	@ 8a48 <mbr_part_str+0x1d0>
    898c:	e12fff1e 	bx	lr
    8990:	e59f00b4 	ldr	r0, [pc, #180]	@ 8a4c <mbr_part_str+0x1d4>
    8994:	e12fff1e 	bx	lr
    8998:	e59f00b0 	ldr	r0, [pc, #176]	@ 8a50 <mbr_part_str+0x1d8>
    899c:	e12fff1e 	bx	lr
    89a0:	e52de004 	push	{lr}		@ (str lr, [sp, #-4]!)
    89a4:	e24dd00c 	sub	sp, sp, #12
    89a8:	e58d0000 	str	r0, [sp]
    89ac:	e3a0304d 	mov	r3, #77	@ 0x4d
    89b0:	e59f209c 	ldr	r2, [pc, #156]	@ 8a54 <mbr_part_str+0x1dc>
    89b4:	e59f109c 	ldr	r1, [pc, #156]	@ 8a58 <mbr_part_str+0x1e0>
    89b8:	e59f009c 	ldr	r0, [pc, #156]	@ 8a5c <mbr_part_str+0x1e4>
    89bc:	eb000d55 	bl	bf18 <printk>
    89c0:	eb000e67 	bl	c364 <clean_reboot>
    89c4:	e59f0094 	ldr	r0, [pc, #148]	@ 8a60 <mbr_part_str+0x1e8>
    89c8:	e12fff1e 	bx	lr
    89cc:	e59f0090 	ldr	r0, [pc, #144]	@ 8a64 <mbr_part_str+0x1ec>
    89d0:	e12fff1e 	bx	lr
    89d4:	0000e2bc 	.word	0x0000e2bc
    89d8:	0000caa8 	.word	0x0000caa8
    89dc:	0000cac0 	.word	0x0000cac0
    89e0:	0000cadc 	.word	0x0000cadc
    89e4:	0000caf8 	.word	0x0000caf8
    89e8:	0000cb00 	.word	0x0000cb00
    89ec:	0000cb0c 	.word	0x0000cb0c
    89f0:	0000cb18 	.word	0x0000cb18
    89f4:	0000cb34 	.word	0x0000cb34
    89f8:	0000cb50 	.word	0x0000cb50
    89fc:	0000cb64 	.word	0x0000cb64
    8a00:	0000cb84 	.word	0x0000cb84
    8a04:	0000cba4 	.word	0x0000cba4
    8a08:	0000cbb8 	.word	0x0000cbb8
    8a0c:	0000cbcc 	.word	0x0000cbcc
    8a10:	0000cbec 	.word	0x0000cbec
    8a14:	0000cc0c 	.word	0x0000cc0c
    8a18:	0000cc28 	.word	0x0000cc28
    8a1c:	0000cc30 	.word	0x0000cc30
    8a20:	0000cc3c 	.word	0x0000cc3c
    8a24:	0000cc4c 	.word	0x0000cc4c
    8a28:	0000cc5c 	.word	0x0000cc5c
    8a2c:	0000cc64 	.word	0x0000cc64
    8a30:	0000cc6c 	.word	0x0000cc6c
    8a34:	0000cc74 	.word	0x0000cc74
    8a38:	0000cc7c 	.word	0x0000cc7c
    8a3c:	0000cc8c 	.word	0x0000cc8c
    8a40:	0000cc94 	.word	0x0000cc94
    8a44:	0000cca0 	.word	0x0000cca0
    8a48:	0000ccb0 	.word	0x0000ccb0
    8a4c:	0000ccc8 	.word	0x0000ccc8
    8a50:	0000ccdc 	.word	0x0000ccdc
    8a54:	0000e3d0 	.word	0x0000e3d0
    8a58:	0000ca78 	.word	0x0000ca78
    8a5c:	0000cce8 	.word	0x0000cce8
    8a60:	0000ca94 	.word	0x0000ca94
    8a64:	0000ca9c 	.word	0x0000ca9c

00008a68 <mbr_partition_empty>:
    8a68:	e92d4010 	push	{r4, lr}
    8a6c:	e3a01010 	mov	r1, #16
    8a70:	eb000cf6 	bl	be50 <memiszero>
    8a74:	e8bd8010 	pop	{r4, pc}

00008a78 <mbr_partition_empty_raw>:
    8a78:	e92d4010 	push	{r4, lr}
    8a7c:	e3a01010 	mov	r1, #16
    8a80:	eb000cf2 	bl	be50 <memiszero>
    8a84:	e8bd8010 	pop	{r4, pc}

00008a88 <mbr_check>:
    8a88:	e92d4030 	push	{r4, r5, lr}
    8a8c:	e24dd01c 	sub	sp, sp, #28
    8a90:	e2803f7f 	add	r3, r0, #508	@ 0x1fc
    8a94:	e1d320b2 	ldrh	r2, [r3, #2]
    8a98:	e59f3144 	ldr	r3, [pc, #324]	@ 8be4 <mbr_check+0x15c>
    8a9c:	e1520003 	cmp	r2, r3
    8aa0:	1a00001f 	bne	8b24 <mbr_check+0x9c>
    8aa4:	e1a04000 	mov	r4, r0
    8aa8:	e2805f6f 	add	r5, r0, #444	@ 0x1bc
    8aac:	e2855002 	add	r5, r5, #2
    8ab0:	e3a02010 	mov	r2, #16
    8ab4:	e1a01005 	mov	r1, r5
    8ab8:	e28d0008 	add	r0, sp, #8
    8abc:	eb000cb8 	bl	bda4 <memcpy>
    8ac0:	e5dd300c 	ldrb	r3, [sp, #12]
    8ac4:	e243300b 	sub	r3, r3, #11
    8ac8:	e3530001 	cmp	r3, #1
    8acc:	8a00001c 	bhi	8b44 <mbr_check+0xbc>
    8ad0:	e1a00005 	mov	r0, r5
    8ad4:	ebffffe7 	bl	8a78 <mbr_partition_empty_raw>
    8ad8:	e3500000 	cmp	r0, #0
    8adc:	1a000020 	bne	8b64 <mbr_check+0xdc>
    8ae0:	e2840f73 	add	r0, r4, #460	@ 0x1cc
    8ae4:	e2800002 	add	r0, r0, #2
    8ae8:	ebffffe2 	bl	8a78 <mbr_partition_empty_raw>
    8aec:	e3500000 	cmp	r0, #0
    8af0:	0a000023 	beq	8b84 <mbr_check+0xfc>
    8af4:	e2840f77 	add	r0, r4, #476	@ 0x1dc
    8af8:	e2800002 	add	r0, r0, #2
    8afc:	ebffffdd 	bl	8a78 <mbr_partition_empty_raw>
    8b00:	e3500000 	cmp	r0, #0
    8b04:	0a000026 	beq	8ba4 <mbr_check+0x11c>
    8b08:	e2840f7b 	add	r0, r4, #492	@ 0x1ec
    8b0c:	e2800002 	add	r0, r0, #2
    8b10:	ebffffd8 	bl	8a78 <mbr_partition_empty_raw>
    8b14:	e3500000 	cmp	r0, #0
    8b18:	0a000029 	beq	8bc4 <mbr_check+0x13c>
    8b1c:	e28dd01c 	add	sp, sp, #28
    8b20:	e8bd8030 	pop	{r4, r5, pc}
    8b24:	e59f30bc 	ldr	r3, [pc, #188]	@ 8be8 <mbr_check+0x160>
    8b28:	e58d3000 	str	r3, [sp]
    8b2c:	e3a03009 	mov	r3, #9
    8b30:	e59f20b4 	ldr	r2, [pc, #180]	@ 8bec <mbr_check+0x164>
    8b34:	e59f10b4 	ldr	r1, [pc, #180]	@ 8bf0 <mbr_check+0x168>
    8b38:	e59f00b4 	ldr	r0, [pc, #180]	@ 8bf4 <mbr_check+0x16c>
    8b3c:	eb000cf5 	bl	bf18 <printk>
    8b40:	eb000e07 	bl	c364 <clean_reboot>
    8b44:	e59f30ac 	ldr	r3, [pc, #172]	@ 8bf8 <mbr_check+0x170>
    8b48:	e58d3000 	str	r3, [sp]
    8b4c:	e3a0300f 	mov	r3, #15
    8b50:	e59f2094 	ldr	r2, [pc, #148]	@ 8bec <mbr_check+0x164>
    8b54:	e59f1094 	ldr	r1, [pc, #148]	@ 8bf0 <mbr_check+0x168>
    8b58:	e59f0094 	ldr	r0, [pc, #148]	@ 8bf4 <mbr_check+0x16c>
    8b5c:	eb000ced 	bl	bf18 <printk>
    8b60:	eb000dff 	bl	c364 <clean_reboot>
    8b64:	e59f3090 	ldr	r3, [pc, #144]	@ 8bfc <mbr_check+0x174>
    8b68:	e58d3000 	str	r3, [sp]
    8b6c:	e3a03015 	mov	r3, #21
    8b70:	e59f2074 	ldr	r2, [pc, #116]	@ 8bec <mbr_check+0x164>
    8b74:	e59f1074 	ldr	r1, [pc, #116]	@ 8bf0 <mbr_check+0x168>
    8b78:	e59f0074 	ldr	r0, [pc, #116]	@ 8bf4 <mbr_check+0x16c>
    8b7c:	eb000ce5 	bl	bf18 <printk>
    8b80:	eb000df7 	bl	c364 <clean_reboot>
    8b84:	e59f3074 	ldr	r3, [pc, #116]	@ 8c00 <mbr_check+0x178>
    8b88:	e58d3000 	str	r3, [sp]
    8b8c:	e3a03016 	mov	r3, #22
    8b90:	e59f2054 	ldr	r2, [pc, #84]	@ 8bec <mbr_check+0x164>
    8b94:	e59f1054 	ldr	r1, [pc, #84]	@ 8bf0 <mbr_check+0x168>
    8b98:	e59f0054 	ldr	r0, [pc, #84]	@ 8bf4 <mbr_check+0x16c>
    8b9c:	eb000cdd 	bl	bf18 <printk>
    8ba0:	eb000def 	bl	c364 <clean_reboot>
    8ba4:	e59f3058 	ldr	r3, [pc, #88]	@ 8c04 <mbr_check+0x17c>
    8ba8:	e58d3000 	str	r3, [sp]
    8bac:	e3a03017 	mov	r3, #23
    8bb0:	e59f2034 	ldr	r2, [pc, #52]	@ 8bec <mbr_check+0x164>
    8bb4:	e59f1034 	ldr	r1, [pc, #52]	@ 8bf0 <mbr_check+0x168>
    8bb8:	e59f0034 	ldr	r0, [pc, #52]	@ 8bf4 <mbr_check+0x16c>
    8bbc:	eb000cd5 	bl	bf18 <printk>
    8bc0:	eb000de7 	bl	c364 <clean_reboot>
    8bc4:	e59f303c 	ldr	r3, [pc, #60]	@ 8c08 <mbr_check+0x180>
    8bc8:	e58d3000 	str	r3, [sp]
    8bcc:	e3a03018 	mov	r3, #24
    8bd0:	e59f2014 	ldr	r2, [pc, #20]	@ 8bec <mbr_check+0x164>
    8bd4:	e59f1014 	ldr	r1, [pc, #20]	@ 8bf0 <mbr_check+0x168>
    8bd8:	e59f0014 	ldr	r0, [pc, #20]	@ 8bf4 <mbr_check+0x16c>
    8bdc:	eb000ccd 	bl	bf18 <printk>
    8be0:	eb000ddf 	bl	c364 <clean_reboot>
    8be4:	0000aa55 	.word	0x0000aa55
    8be8:	0000cd0c 	.word	0x0000cd0c
    8bec:	0000e3e0 	.word	0x0000e3e0
    8bf0:	0000ca78 	.word	0x0000ca78
    8bf4:	0000c818 	.word	0x0000c818
    8bf8:	0000cd24 	.word	0x0000cd24
    8bfc:	0000cd44 	.word	0x0000cd44
    8c00:	0000cd70 	.word	0x0000cd70
    8c04:	0000cd98 	.word	0x0000cd98
    8c08:	0000cdc0 	.word	0x0000cdc0

00008c0c <mbr_partition_print>:
    8c0c:	e92d4030 	push	{r4, r5, lr}
    8c10:	e24dd00c 	sub	sp, sp, #12
    8c14:	e1a04001 	mov	r4, r1
    8c18:	e1a01000 	mov	r1, r0
    8c1c:	e59f00fc 	ldr	r0, [pc, #252]	@ 8d20 <mbr_partition_print+0x114>
    8c20:	eb000cbc 	bl	bf18 <printk>
    8c24:	e5d43000 	ldrb	r3, [r4]
    8c28:	e3530000 	cmp	r3, #0
    8c2c:	0a000031 	beq	8cf8 <mbr_partition_print+0xec>
    8c30:	e59f10ec 	ldr	r1, [pc, #236]	@ 8d24 <mbr_partition_print+0x118>
    8c34:	e59f00ec 	ldr	r0, [pc, #236]	@ 8d28 <mbr_partition_print+0x11c>
    8c38:	eb000cb6 	bl	bf18 <printk>
    8c3c:	e5d43001 	ldrb	r3, [r4, #1]
    8c40:	e5d42002 	ldrb	r2, [r4, #2]
    8c44:	e1833402 	orr	r3, r3, r2, lsl #8
    8c48:	e5d41003 	ldrb	r1, [r4, #3]
    8c4c:	e1831801 	orr	r1, r3, r1, lsl #16
    8c50:	e59f00d4 	ldr	r0, [pc, #212]	@ 8d2c <mbr_partition_print+0x120>
    8c54:	eb000caf 	bl	bf18 <printk>
    8c58:	e5d45004 	ldrb	r5, [r4, #4]
    8c5c:	e1a00005 	mov	r0, r5
    8c60:	ebffff04 	bl	8878 <mbr_part_str>
    8c64:	e1a02000 	mov	r2, r0
    8c68:	e1a01005 	mov	r1, r5
    8c6c:	e59f00bc 	ldr	r0, [pc, #188]	@ 8d30 <mbr_partition_print+0x124>
    8c70:	eb000ca8 	bl	bf18 <printk>
    8c74:	e5d43005 	ldrb	r3, [r4, #5]
    8c78:	e5d42006 	ldrb	r2, [r4, #6]
    8c7c:	e1833402 	orr	r3, r3, r2, lsl #8
    8c80:	e5d41007 	ldrb	r1, [r4, #7]
    8c84:	e1831801 	orr	r1, r3, r1, lsl #16
    8c88:	e59f00a4 	ldr	r0, [pc, #164]	@ 8d34 <mbr_partition_print+0x128>
    8c8c:	eb000ca1 	bl	bf18 <printk>
    8c90:	e5d43008 	ldrb	r3, [r4, #8]
    8c94:	e5d42009 	ldrb	r2, [r4, #9]
    8c98:	e1833402 	orr	r3, r3, r2, lsl #8
    8c9c:	e5d4200a 	ldrb	r2, [r4, #10]
    8ca0:	e1833802 	orr	r3, r3, r2, lsl #16
    8ca4:	e5d4100b 	ldrb	r1, [r4, #11]
    8ca8:	e1831c01 	orr	r1, r3, r1, lsl #24
    8cac:	e59f0084 	ldr	r0, [pc, #132]	@ 8d38 <mbr_partition_print+0x12c>
    8cb0:	eb000c98 	bl	bf18 <printk>
    8cb4:	e5d4100c 	ldrb	r1, [r4, #12]
    8cb8:	e5d4300d 	ldrb	r3, [r4, #13]
    8cbc:	e1811403 	orr	r1, r1, r3, lsl #8
    8cc0:	e5d4300e 	ldrb	r3, [r4, #14]
    8cc4:	e1811803 	orr	r1, r1, r3, lsl #16
    8cc8:	e5d4300f 	ldrb	r3, [r4, #15]
    8ccc:	e1811c03 	orr	r1, r1, r3, lsl #24
    8cd0:	e1a02aa1 	lsr	r2, r1, #21
    8cd4:	e59f0060 	ldr	r0, [pc, #96]	@ 8d3c <mbr_partition_print+0x130>
    8cd8:	eb000c8e 	bl	bf18 <printk>
    8cdc:	e5d43004 	ldrb	r3, [r4, #4]
    8ce0:	e243300b 	sub	r3, r3, #11
    8ce4:	e6ef3073 	uxtb	r3, r3
    8ce8:	e3530001 	cmp	r3, #1
    8cec:	8a000003 	bhi	8d00 <mbr_partition_print+0xf4>
    8cf0:	e28dd00c 	add	sp, sp, #12
    8cf4:	e8bd8030 	pop	{r4, r5, pc}
    8cf8:	e59f1040 	ldr	r1, [pc, #64]	@ 8d40 <mbr_partition_print+0x134>
    8cfc:	eaffffcc 	b	8c34 <mbr_partition_print+0x28>
    8d00:	e59f303c 	ldr	r3, [pc, #60]	@ 8d44 <mbr_partition_print+0x138>
    8d04:	e58d3000 	str	r3, [sp]
    8d08:	e3a03061 	mov	r3, #97	@ 0x61
    8d0c:	e59f2034 	ldr	r2, [pc, #52]	@ 8d48 <mbr_partition_print+0x13c>
    8d10:	e59f1034 	ldr	r1, [pc, #52]	@ 8d4c <mbr_partition_print+0x140>
    8d14:	e59f0034 	ldr	r0, [pc, #52]	@ 8d50 <mbr_partition_print+0x144>
    8d18:	eb000c7e 	bl	bf18 <printk>
    8d1c:	eb000d90 	bl	c364 <clean_reboot>
    8d20:	0000cdf8 	.word	0x0000cdf8
    8d24:	0000cde8 	.word	0x0000cde8
    8d28:	0000ce00 	.word	0x0000ce00
    8d2c:	0000ce14 	.word	0x0000ce14
    8d30:	0000ce28 	.word	0x0000ce28
    8d34:	0000ce40 	.word	0x0000ce40
    8d38:	0000ce54 	.word	0x0000ce54
    8d3c:	0000ce68 	.word	0x0000ce68
    8d40:	0000cdf0 	.word	0x0000cdf0
    8d44:	0000ce80 	.word	0x0000ce80
    8d48:	0000e3ec 	.word	0x0000e3ec
    8d4c:	0000ca78 	.word	0x0000ca78
    8d50:	0000c818 	.word	0x0000c818

00008d54 <to_8dot3>:
    8d54:	e92d4010 	push	{r4, lr}
    8d58:	e1a04000 	mov	r4, r0
    8d5c:	e3a02008 	mov	r2, #8
    8d60:	e1a01000 	mov	r1, r0
    8d64:	e59f006c 	ldr	r0, [pc, #108]	@ 8dd8 <to_8dot3+0x84>
    8d68:	eb000c0d 	bl	bda4 <memcpy>
    8d6c:	e3a03007 	mov	r3, #7
    8d70:	e3530000 	cmp	r3, #0
    8d74:	ba000005 	blt	8d90 <to_8dot3+0x3c>
    8d78:	e59f2058 	ldr	r2, [pc, #88]	@ 8dd8 <to_8dot3+0x84>
    8d7c:	e7d22003 	ldrb	r2, [r2, r3]
    8d80:	e3520020 	cmp	r2, #32
    8d84:	02433001 	subeq	r3, r3, #1
    8d88:	0afffff8 	beq	8d70 <to_8dot3+0x1c>
    8d8c:	e2833001 	add	r3, r3, #1
    8d90:	e2832001 	add	r2, r3, #1
    8d94:	e59f103c 	ldr	r1, [pc, #60]	@ 8dd8 <to_8dot3+0x84>
    8d98:	e3a0002e 	mov	r0, #46	@ 0x2e
    8d9c:	e7c10003 	strb	r0, [r1, r3]
    8da0:	e3a03000 	mov	r3, #0
    8da4:	ea000005 	b	8dc0 <to_8dot3+0x6c>
    8da8:	e0841003 	add	r1, r4, r3
    8dac:	e5d10008 	ldrb	r0, [r1, #8]
    8db0:	e59f1020 	ldr	r1, [pc, #32]	@ 8dd8 <to_8dot3+0x84>
    8db4:	e7c10002 	strb	r0, [r1, r2]
    8db8:	e2833001 	add	r3, r3, #1
    8dbc:	e2822001 	add	r2, r2, #1
    8dc0:	e3530002 	cmp	r3, #2
    8dc4:	dafffff7 	ble	8da8 <to_8dot3+0x54>
    8dc8:	e59f0008 	ldr	r0, [pc, #8]	@ 8dd8 <to_8dot3+0x84>
    8dcc:	e3a03000 	mov	r3, #0
    8dd0:	e7c03002 	strb	r3, [r0, r2]
    8dd4:	e8bd8010 	pop	{r4, pc}
    8dd8:	0000ed60 	.word	0x0000ed60

00008ddc <add_nul>:
    8ddc:	e92d4070 	push	{r4, r5, r6, lr}
    8de0:	e1a01000 	mov	r1, r0
    8de4:	e59f501c 	ldr	r5, [pc, #28]	@ 8e08 <add_nul+0x2c>
    8de8:	e2854010 	add	r4, r5, #16
    8dec:	e3a0200b 	mov	r2, #11
    8df0:	e1a00004 	mov	r0, r4
    8df4:	eb000bea 	bl	bda4 <memcpy>
    8df8:	e3a03000 	mov	r3, #0
    8dfc:	e5c5301b 	strb	r3, [r5, #27]
    8e00:	e1a00004 	mov	r0, r4
    8e04:	e8bd8070 	pop	{r4, r5, r6, pc}
    8e08:	0000ed60 	.word	0x0000ed60

00008e0c <fat32_volume_id_check>:
    8e0c:	e52de004 	push	{lr}		@ (str lr, [sp, #-4]!)
    8e10:	e24dd00c 	sub	sp, sp, #12
    8e14:	e5d0300b 	ldrb	r3, [r0, #11]
    8e18:	e5d0200c 	ldrb	r2, [r0, #12]
    8e1c:	e1833402 	orr	r3, r3, r2, lsl #8
    8e20:	e3530c02 	cmp	r3, #512	@ 0x200
    8e24:	1a000035 	bne	8f00 <fat32_volume_id_check+0xf4>
    8e28:	e5d02010 	ldrb	r2, [r0, #16]
    8e2c:	e3520002 	cmp	r2, #2
    8e30:	1a00003a 	bne	8f20 <fat32_volume_id_check+0x114>
    8e34:	e5d021fe 	ldrb	r2, [r0, #510]	@ 0x1fe
    8e38:	e5d011ff 	ldrb	r1, [r0, #511]	@ 0x1ff
    8e3c:	e1822401 	orr	r2, r2, r1, lsl #8
    8e40:	e59f1238 	ldr	r1, [pc, #568]	@ 9080 <fat32_volume_id_check+0x274>
    8e44:	e1520001 	cmp	r2, r1
    8e48:	1a00003c 	bne	8f40 <fat32_volume_id_check+0x134>
    8e4c:	e5d0200d 	ldrb	r2, [r0, #13]
    8e50:	e2621000 	rsb	r1, r2, #0
    8e54:	e1d22001 	bics	r2, r2, r1
    8e58:	1a000040 	bne	8f60 <fat32_volume_id_check+0x154>
    8e5c:	e3530b01 	cmp	r3, #1024	@ 0x400
    8e60:	13530c02 	cmpne	r3, #512	@ 0x200
    8e64:	0a000002 	beq	8e74 <fat32_volume_id_check+0x68>
    8e68:	e3530a01 	cmp	r3, #4096	@ 0x1000
    8e6c:	13530b02 	cmpne	r3, #2048	@ 0x800
    8e70:	1a000042 	bne	8f80 <fat32_volume_id_check+0x174>
    8e74:	e5d03011 	ldrb	r3, [r0, #17]
    8e78:	e5d02012 	ldrb	r2, [r0, #18]
    8e7c:	e1933402 	orrs	r3, r3, r2, lsl #8
    8e80:	1a000046 	bne	8fa0 <fat32_volume_id_check+0x194>
    8e84:	e5d03013 	ldrb	r3, [r0, #19]
    8e88:	e5d02014 	ldrb	r2, [r0, #20]
    8e8c:	e1933402 	orrs	r3, r3, r2, lsl #8
    8e90:	1a00004a 	bne	8fc0 <fat32_volume_id_check+0x1b4>
    8e94:	e5d03016 	ldrb	r3, [r0, #22]
    8e98:	e5d02017 	ldrb	r2, [r0, #23]
    8e9c:	e1933402 	orrs	r3, r3, r2, lsl #8
    8ea0:	1a00004e 	bne	8fe0 <fat32_volume_id_check+0x1d4>
    8ea4:	e5d03020 	ldrb	r3, [r0, #32]
    8ea8:	e5d02021 	ldrb	r2, [r0, #33]	@ 0x21
    8eac:	e1833402 	orr	r3, r3, r2, lsl #8
    8eb0:	e5d02022 	ldrb	r2, [r0, #34]	@ 0x22
    8eb4:	e1833802 	orr	r3, r3, r2, lsl #16
    8eb8:	e5d02023 	ldrb	r2, [r0, #35]	@ 0x23
    8ebc:	e1933c02 	orrs	r3, r3, r2, lsl #24
    8ec0:	0a00004e 	beq	9000 <fat32_volume_id_check+0x1f4>
    8ec4:	e5d03030 	ldrb	r3, [r0, #48]	@ 0x30
    8ec8:	e5d02031 	ldrb	r2, [r0, #49]	@ 0x31
    8ecc:	e1833402 	orr	r3, r3, r2, lsl #8
    8ed0:	e3530001 	cmp	r3, #1
    8ed4:	1a000051 	bne	9020 <fat32_volume_id_check+0x214>
    8ed8:	e5d03032 	ldrb	r3, [r0, #50]	@ 0x32
    8edc:	e5d02033 	ldrb	r2, [r0, #51]	@ 0x33
    8ee0:	e1833402 	orr	r3, r3, r2, lsl #8
    8ee4:	e3530006 	cmp	r3, #6
    8ee8:	1a000054 	bne	9040 <fat32_volume_id_check+0x234>
    8eec:	e5d03042 	ldrb	r3, [r0, #66]	@ 0x42
    8ef0:	e3530029 	cmp	r3, #41	@ 0x29
    8ef4:	1a000059 	bne	9060 <fat32_volume_id_check+0x254>
    8ef8:	e28dd00c 	add	sp, sp, #12
    8efc:	e49df004 	pop	{pc}		@ (ldr pc, [sp], #4)
    8f00:	e59f317c 	ldr	r3, [pc, #380]	@ 9084 <fat32_volume_id_check+0x278>
    8f04:	e58d3000 	str	r3, [sp]
    8f08:	e3a0300f 	mov	r3, #15
    8f0c:	e59f2174 	ldr	r2, [pc, #372]	@ 9088 <fat32_volume_id_check+0x27c>
    8f10:	e59f1174 	ldr	r1, [pc, #372]	@ 908c <fat32_volume_id_check+0x280>
    8f14:	e59f0174 	ldr	r0, [pc, #372]	@ 9090 <fat32_volume_id_check+0x284>
    8f18:	eb000bfe 	bl	bf18 <printk>
    8f1c:	eb000d10 	bl	c364 <clean_reboot>
    8f20:	e59f316c 	ldr	r3, [pc, #364]	@ 9094 <fat32_volume_id_check+0x288>
    8f24:	e58d3000 	str	r3, [sp]
    8f28:	e3a03010 	mov	r3, #16
    8f2c:	e59f2154 	ldr	r2, [pc, #340]	@ 9088 <fat32_volume_id_check+0x27c>
    8f30:	e59f1154 	ldr	r1, [pc, #340]	@ 908c <fat32_volume_id_check+0x280>
    8f34:	e59f0154 	ldr	r0, [pc, #340]	@ 9090 <fat32_volume_id_check+0x284>
    8f38:	eb000bf6 	bl	bf18 <printk>
    8f3c:	eb000d08 	bl	c364 <clean_reboot>
    8f40:	e59f3150 	ldr	r3, [pc, #336]	@ 9098 <fat32_volume_id_check+0x28c>
    8f44:	e58d3000 	str	r3, [sp]
    8f48:	e3a03011 	mov	r3, #17
    8f4c:	e59f2134 	ldr	r2, [pc, #308]	@ 9088 <fat32_volume_id_check+0x27c>
    8f50:	e59f1134 	ldr	r1, [pc, #308]	@ 908c <fat32_volume_id_check+0x280>
    8f54:	e59f0134 	ldr	r0, [pc, #308]	@ 9090 <fat32_volume_id_check+0x284>
    8f58:	eb000bee 	bl	bf18 <printk>
    8f5c:	eb000d00 	bl	c364 <clean_reboot>
    8f60:	e59f3134 	ldr	r3, [pc, #308]	@ 909c <fat32_volume_id_check+0x290>
    8f64:	e58d3000 	str	r3, [sp]
    8f68:	e3a03013 	mov	r3, #19
    8f6c:	e59f2114 	ldr	r2, [pc, #276]	@ 9088 <fat32_volume_id_check+0x27c>
    8f70:	e59f1114 	ldr	r1, [pc, #276]	@ 908c <fat32_volume_id_check+0x280>
    8f74:	e59f0114 	ldr	r0, [pc, #276]	@ 9090 <fat32_volume_id_check+0x284>
    8f78:	eb000be6 	bl	bf18 <printk>
    8f7c:	eb000cf8 	bl	c364 <clean_reboot>
    8f80:	e59f3118 	ldr	r3, [pc, #280]	@ 90a0 <fat32_volume_id_check+0x294>
    8f84:	e58d3000 	str	r3, [sp]
    8f88:	e3a03015 	mov	r3, #21
    8f8c:	e59f20f4 	ldr	r2, [pc, #244]	@ 9088 <fat32_volume_id_check+0x27c>
    8f90:	e59f10f4 	ldr	r1, [pc, #244]	@ 908c <fat32_volume_id_check+0x280>
    8f94:	e59f00f4 	ldr	r0, [pc, #244]	@ 9090 <fat32_volume_id_check+0x284>
    8f98:	eb000bde 	bl	bf18 <printk>
    8f9c:	eb000cf0 	bl	c364 <clean_reboot>
    8fa0:	e59f30fc 	ldr	r3, [pc, #252]	@ 90a4 <fat32_volume_id_check+0x298>
    8fa4:	e58d3000 	str	r3, [sp]
    8fa8:	e3a03016 	mov	r3, #22
    8fac:	e59f20d4 	ldr	r2, [pc, #212]	@ 9088 <fat32_volume_id_check+0x27c>
    8fb0:	e59f10d4 	ldr	r1, [pc, #212]	@ 908c <fat32_volume_id_check+0x280>
    8fb4:	e59f00d4 	ldr	r0, [pc, #212]	@ 9090 <fat32_volume_id_check+0x284>
    8fb8:	eb000bd6 	bl	bf18 <printk>
    8fbc:	eb000ce8 	bl	c364 <clean_reboot>
    8fc0:	e59f30e0 	ldr	r3, [pc, #224]	@ 90a8 <fat32_volume_id_check+0x29c>
    8fc4:	e58d3000 	str	r3, [sp]
    8fc8:	e3a03018 	mov	r3, #24
    8fcc:	e59f20b4 	ldr	r2, [pc, #180]	@ 9088 <fat32_volume_id_check+0x27c>
    8fd0:	e59f10b4 	ldr	r1, [pc, #180]	@ 908c <fat32_volume_id_check+0x280>
    8fd4:	e59f00b4 	ldr	r0, [pc, #180]	@ 9090 <fat32_volume_id_check+0x284>
    8fd8:	eb000bce 	bl	bf18 <printk>
    8fdc:	eb000ce0 	bl	c364 <clean_reboot>
    8fe0:	e59f30c4 	ldr	r3, [pc, #196]	@ 90ac <fat32_volume_id_check+0x2a0>
    8fe4:	e58d3000 	str	r3, [sp]
    8fe8:	e3a0301b 	mov	r3, #27
    8fec:	e59f2094 	ldr	r2, [pc, #148]	@ 9088 <fat32_volume_id_check+0x27c>
    8ff0:	e59f1094 	ldr	r1, [pc, #148]	@ 908c <fat32_volume_id_check+0x280>
    8ff4:	e59f0094 	ldr	r0, [pc, #148]	@ 9090 <fat32_volume_id_check+0x284>
    8ff8:	eb000bc6 	bl	bf18 <printk>
    8ffc:	eb000cd8 	bl	c364 <clean_reboot>
    9000:	e59f30a8 	ldr	r3, [pc, #168]	@ 90b0 <fat32_volume_id_check+0x2a4>
    9004:	e58d3000 	str	r3, [sp]
    9008:	e3a0301c 	mov	r3, #28
    900c:	e59f2074 	ldr	r2, [pc, #116]	@ 9088 <fat32_volume_id_check+0x27c>
    9010:	e59f1074 	ldr	r1, [pc, #116]	@ 908c <fat32_volume_id_check+0x280>
    9014:	e59f0074 	ldr	r0, [pc, #116]	@ 9090 <fat32_volume_id_check+0x284>
    9018:	eb000bbe 	bl	bf18 <printk>
    901c:	eb000cd0 	bl	c364 <clean_reboot>
    9020:	e59f308c 	ldr	r3, [pc, #140]	@ 90b4 <fat32_volume_id_check+0x2a8>
    9024:	e58d3000 	str	r3, [sp]
    9028:	e3a0301f 	mov	r3, #31
    902c:	e59f2054 	ldr	r2, [pc, #84]	@ 9088 <fat32_volume_id_check+0x27c>
    9030:	e59f1054 	ldr	r1, [pc, #84]	@ 908c <fat32_volume_id_check+0x280>
    9034:	e59f0054 	ldr	r0, [pc, #84]	@ 9090 <fat32_volume_id_check+0x284>
    9038:	eb000bb6 	bl	bf18 <printk>
    903c:	eb000cc8 	bl	c364 <clean_reboot>
    9040:	e59f3070 	ldr	r3, [pc, #112]	@ 90b8 <fat32_volume_id_check+0x2ac>
    9044:	e58d3000 	str	r3, [sp]
    9048:	e3a03020 	mov	r3, #32
    904c:	e59f2034 	ldr	r2, [pc, #52]	@ 9088 <fat32_volume_id_check+0x27c>
    9050:	e59f1034 	ldr	r1, [pc, #52]	@ 908c <fat32_volume_id_check+0x280>
    9054:	e59f0034 	ldr	r0, [pc, #52]	@ 9090 <fat32_volume_id_check+0x284>
    9058:	eb000bae 	bl	bf18 <printk>
    905c:	eb000cc0 	bl	c364 <clean_reboot>
    9060:	e59f3054 	ldr	r3, [pc, #84]	@ 90bc <fat32_volume_id_check+0x2b0>
    9064:	e58d3000 	str	r3, [sp]
    9068:	e3a03021 	mov	r3, #33	@ 0x21
    906c:	e59f2014 	ldr	r2, [pc, #20]	@ 9088 <fat32_volume_id_check+0x27c>
    9070:	e59f1014 	ldr	r1, [pc, #20]	@ 908c <fat32_volume_id_check+0x280>
    9074:	e59f0014 	ldr	r0, [pc, #20]	@ 9090 <fat32_volume_id_check+0x284>
    9078:	eb000ba6 	bl	bf18 <printk>
    907c:	eb000cb8 	bl	c364 <clean_reboot>
    9080:	0000aa55 	.word	0x0000aa55
    9084:	0000cebc 	.word	0x0000cebc
    9088:	0000e420 	.word	0x0000e420
    908c:	0000ceac 	.word	0x0000ceac
    9090:	0000c818 	.word	0x0000c818
    9094:	0000ced4 	.word	0x0000ced4
    9098:	0000cee4 	.word	0x0000cee4
    909c:	0000cef8 	.word	0x0000cef8
    90a0:	0000cf14 	.word	0x0000cf14
    90a4:	0000cf44 	.word	0x0000cf44
    90a8:	0000cf54 	.word	0x0000cf54
    90ac:	0000cf64 	.word	0x0000cf64
    90b0:	0000cf74 	.word	0x0000cf74
    90b4:	0000cf88 	.word	0x0000cf88
    90b8:	0000cfa0 	.word	0x0000cfa0
    90bc:	0000cfb8 	.word	0x0000cfb8

000090c0 <fat32_volume_id_print>:
    90c0:	e92d41f0 	push	{r4, r5, r6, r7, r8, lr}
    90c4:	e24dd028 	sub	sp, sp, #40	@ 0x28
    90c8:	e1a04001 	mov	r4, r1
    90cc:	e1a01000 	mov	r1, r0
    90d0:	e59f024c 	ldr	r0, [pc, #588]	@ 9324 <fat32_volume_id_print+0x264>
    90d4:	eb000b8f 	bl	bf18 <printk>
    90d8:	e28d801c 	add	r8, sp, #28
    90dc:	e3a02008 	mov	r2, #8
    90e0:	e2841003 	add	r1, r4, #3
    90e4:	e1a00008 	mov	r0, r8
    90e8:	eb000b2d 	bl	bda4 <memcpy>
    90ec:	e3a07000 	mov	r7, #0
    90f0:	e5cd7024 	strb	r7, [sp, #36]	@ 0x24
    90f4:	e28d6010 	add	r6, sp, #16
    90f8:	e3a0200b 	mov	r2, #11
    90fc:	e2841047 	add	r1, r4, #71	@ 0x47
    9100:	e1a00006 	mov	r0, r6
    9104:	eb000b26 	bl	bda4 <memcpy>
    9108:	e5cd7027 	strb	r7, [sp, #39]	@ 0x27
    910c:	e28d5004 	add	r5, sp, #4
    9110:	e3a02008 	mov	r2, #8
    9114:	e2841052 	add	r1, r4, #82	@ 0x52
    9118:	e1a00005 	mov	r0, r5
    911c:	eb000b20 	bl	bda4 <memcpy>
    9120:	e5cd700c 	strb	r7, [sp, #12]
    9124:	e1a01008 	mov	r1, r8
    9128:	e59f01f8 	ldr	r0, [pc, #504]	@ 9328 <fat32_volume_id_print+0x268>
    912c:	eb000b79 	bl	bf18 <printk>
    9130:	e5d4300b 	ldrb	r3, [r4, #11]
    9134:	e5d4100c 	ldrb	r1, [r4, #12]
    9138:	e1831401 	orr	r1, r3, r1, lsl #8
    913c:	e59f01e8 	ldr	r0, [pc, #488]	@ 932c <fat32_volume_id_print+0x26c>
    9140:	eb000b74 	bl	bf18 <printk>
    9144:	e5d4100d 	ldrb	r1, [r4, #13]
    9148:	e59f01e0 	ldr	r0, [pc, #480]	@ 9330 <fat32_volume_id_print+0x270>
    914c:	eb000b71 	bl	bf18 <printk>
    9150:	e5d4300e 	ldrb	r3, [r4, #14]
    9154:	e5d4100f 	ldrb	r1, [r4, #15]
    9158:	e1831401 	orr	r1, r3, r1, lsl #8
    915c:	e59f01d0 	ldr	r0, [pc, #464]	@ 9334 <fat32_volume_id_print+0x274>
    9160:	eb000b6c 	bl	bf18 <printk>
    9164:	e5d41010 	ldrb	r1, [r4, #16]
    9168:	e59f01c8 	ldr	r0, [pc, #456]	@ 9338 <fat32_volume_id_print+0x278>
    916c:	eb000b69 	bl	bf18 <printk>
    9170:	e5d43011 	ldrb	r3, [r4, #17]
    9174:	e5d41012 	ldrb	r1, [r4, #18]
    9178:	e1831401 	orr	r1, r3, r1, lsl #8
    917c:	e59f01b8 	ldr	r0, [pc, #440]	@ 933c <fat32_volume_id_print+0x27c>
    9180:	eb000b64 	bl	bf18 <printk>
    9184:	e5d43013 	ldrb	r3, [r4, #19]
    9188:	e5d41014 	ldrb	r1, [r4, #20]
    918c:	e1831401 	orr	r1, r3, r1, lsl #8
    9190:	e59f01a8 	ldr	r0, [pc, #424]	@ 9340 <fat32_volume_id_print+0x280>
    9194:	eb000b5f 	bl	bf18 <printk>
    9198:	e5d41015 	ldrb	r1, [r4, #21]
    919c:	e59f01a0 	ldr	r0, [pc, #416]	@ 9344 <fat32_volume_id_print+0x284>
    91a0:	eb000b5c 	bl	bf18 <printk>
    91a4:	e5d43018 	ldrb	r3, [r4, #24]
    91a8:	e5d41019 	ldrb	r1, [r4, #25]
    91ac:	e1831401 	orr	r1, r3, r1, lsl #8
    91b0:	e59f0190 	ldr	r0, [pc, #400]	@ 9348 <fat32_volume_id_print+0x288>
    91b4:	eb000b57 	bl	bf18 <printk>
    91b8:	e5d4301a 	ldrb	r3, [r4, #26]
    91bc:	e5d4101b 	ldrb	r1, [r4, #27]
    91c0:	e1831401 	orr	r1, r3, r1, lsl #8
    91c4:	e59f0180 	ldr	r0, [pc, #384]	@ 934c <fat32_volume_id_print+0x28c>
    91c8:	eb000b52 	bl	bf18 <printk>
    91cc:	e5d4301c 	ldrb	r3, [r4, #28]
    91d0:	e5d4201d 	ldrb	r2, [r4, #29]
    91d4:	e1833402 	orr	r3, r3, r2, lsl #8
    91d8:	e5d4201e 	ldrb	r2, [r4, #30]
    91dc:	e1833802 	orr	r3, r3, r2, lsl #16
    91e0:	e5d4101f 	ldrb	r1, [r4, #31]
    91e4:	e1831c01 	orr	r1, r3, r1, lsl #24
    91e8:	e59f0160 	ldr	r0, [pc, #352]	@ 9350 <fat32_volume_id_print+0x290>
    91ec:	eb000b49 	bl	bf18 <printk>
    91f0:	e5d43020 	ldrb	r3, [r4, #32]
    91f4:	e5d42021 	ldrb	r2, [r4, #33]	@ 0x21
    91f8:	e1833402 	orr	r3, r3, r2, lsl #8
    91fc:	e5d42022 	ldrb	r2, [r4, #34]	@ 0x22
    9200:	e1833802 	orr	r3, r3, r2, lsl #16
    9204:	e5d41023 	ldrb	r1, [r4, #35]	@ 0x23
    9208:	e1831c01 	orr	r1, r3, r1, lsl #24
    920c:	e59f0140 	ldr	r0, [pc, #320]	@ 9354 <fat32_volume_id_print+0x294>
    9210:	eb000b40 	bl	bf18 <printk>
    9214:	e5d43024 	ldrb	r3, [r4, #36]	@ 0x24
    9218:	e5d42025 	ldrb	r2, [r4, #37]	@ 0x25
    921c:	e1833402 	orr	r3, r3, r2, lsl #8
    9220:	e5d42026 	ldrb	r2, [r4, #38]	@ 0x26
    9224:	e1833802 	orr	r3, r3, r2, lsl #16
    9228:	e5d41027 	ldrb	r1, [r4, #39]	@ 0x27
    922c:	e1831c01 	orr	r1, r3, r1, lsl #24
    9230:	e59f0120 	ldr	r0, [pc, #288]	@ 9358 <fat32_volume_id_print+0x298>
    9234:	eb000b37 	bl	bf18 <printk>
    9238:	e5d43028 	ldrb	r3, [r4, #40]	@ 0x28
    923c:	e5d41029 	ldrb	r1, [r4, #41]	@ 0x29
    9240:	e1831401 	orr	r1, r3, r1, lsl #8
    9244:	e59f0110 	ldr	r0, [pc, #272]	@ 935c <fat32_volume_id_print+0x29c>
    9248:	eb000b32 	bl	bf18 <printk>
    924c:	e5d4302a 	ldrb	r3, [r4, #42]	@ 0x2a
    9250:	e5d4102b 	ldrb	r1, [r4, #43]	@ 0x2b
    9254:	e1831401 	orr	r1, r3, r1, lsl #8
    9258:	e59f0100 	ldr	r0, [pc, #256]	@ 9360 <fat32_volume_id_print+0x2a0>
    925c:	eb000b2d 	bl	bf18 <printk>
    9260:	e5d4302c 	ldrb	r3, [r4, #44]	@ 0x2c
    9264:	e5d4202d 	ldrb	r2, [r4, #45]	@ 0x2d
    9268:	e1833402 	orr	r3, r3, r2, lsl #8
    926c:	e5d4202e 	ldrb	r2, [r4, #46]	@ 0x2e
    9270:	e1833802 	orr	r3, r3, r2, lsl #16
    9274:	e5d4102f 	ldrb	r1, [r4, #47]	@ 0x2f
    9278:	e1831c01 	orr	r1, r3, r1, lsl #24
    927c:	e59f00e0 	ldr	r0, [pc, #224]	@ 9364 <fat32_volume_id_print+0x2a4>
    9280:	eb000b24 	bl	bf18 <printk>
    9284:	e5d43030 	ldrb	r3, [r4, #48]	@ 0x30
    9288:	e5d41031 	ldrb	r1, [r4, #49]	@ 0x31
    928c:	e1831401 	orr	r1, r3, r1, lsl #8
    9290:	e59f00d0 	ldr	r0, [pc, #208]	@ 9368 <fat32_volume_id_print+0x2a8>
    9294:	eb000b1f 	bl	bf18 <printk>
    9298:	e5d43032 	ldrb	r3, [r4, #50]	@ 0x32
    929c:	e5d41033 	ldrb	r1, [r4, #51]	@ 0x33
    92a0:	e1831401 	orr	r1, r3, r1, lsl #8
    92a4:	e59f00c0 	ldr	r0, [pc, #192]	@ 936c <fat32_volume_id_print+0x2ac>
    92a8:	eb000b1a 	bl	bf18 <printk>
    92ac:	e5d41040 	ldrb	r1, [r4, #64]	@ 0x40
    92b0:	e59f00b8 	ldr	r0, [pc, #184]	@ 9370 <fat32_volume_id_print+0x2b0>
    92b4:	eb000b17 	bl	bf18 <printk>
    92b8:	e5d41042 	ldrb	r1, [r4, #66]	@ 0x42
    92bc:	e59f00b0 	ldr	r0, [pc, #176]	@ 9374 <fat32_volume_id_print+0x2b4>
    92c0:	eb000b14 	bl	bf18 <printk>
    92c4:	e5d43043 	ldrb	r3, [r4, #67]	@ 0x43
    92c8:	e5d42044 	ldrb	r2, [r4, #68]	@ 0x44
    92cc:	e1833402 	orr	r3, r3, r2, lsl #8
    92d0:	e5d42045 	ldrb	r2, [r4, #69]	@ 0x45
    92d4:	e1833802 	orr	r3, r3, r2, lsl #16
    92d8:	e5d41046 	ldrb	r1, [r4, #70]	@ 0x46
    92dc:	e1831c01 	orr	r1, r3, r1, lsl #24
    92e0:	e59f0090 	ldr	r0, [pc, #144]	@ 9378 <fat32_volume_id_print+0x2b8>
    92e4:	eb000b0b 	bl	bf18 <printk>
    92e8:	e1a01006 	mov	r1, r6
    92ec:	e59f0088 	ldr	r0, [pc, #136]	@ 937c <fat32_volume_id_print+0x2bc>
    92f0:	eb000b08 	bl	bf18 <printk>
    92f4:	e1a01005 	mov	r1, r5
    92f8:	e59f0080 	ldr	r0, [pc, #128]	@ 9380 <fat32_volume_id_print+0x2c0>
    92fc:	eb000b05 	bl	bf18 <printk>
    9300:	e5d431fe 	ldrb	r3, [r4, #510]	@ 0x1fe
    9304:	e5d411ff 	ldrb	r1, [r4, #511]	@ 0x1ff
    9308:	e1831401 	orr	r1, r3, r1, lsl #8
    930c:	e59f0070 	ldr	r0, [pc, #112]	@ 9384 <fat32_volume_id_print+0x2c4>
    9310:	eb000b00 	bl	bf18 <printk>
    9314:	e1a00004 	mov	r0, r4
    9318:	ebfffebb 	bl	8e0c <fat32_volume_id_check>
    931c:	e28dd028 	add	sp, sp, #40	@ 0x28
    9320:	e8bd81f0 	pop	{r4, r5, r6, r7, r8, pc}
    9324:	0000cdf8 	.word	0x0000cdf8
    9328:	0000cfd0 	.word	0x0000cfd0
    932c:	0000cfec 	.word	0x0000cfec
    9330:	0000d008 	.word	0x0000d008
    9334:	0000d024 	.word	0x0000d024
    9338:	0000d040 	.word	0x0000d040
    933c:	0000d05c 	.word	0x0000d05c
    9340:	0000d078 	.word	0x0000d078
    9344:	0000d094 	.word	0x0000d094
    9348:	0000d0b0 	.word	0x0000d0b0
    934c:	0000d0cc 	.word	0x0000d0cc
    9350:	0000d0e8 	.word	0x0000d0e8
    9354:	0000d104 	.word	0x0000d104
    9358:	0000d120 	.word	0x0000d120
    935c:	0000d13c 	.word	0x0000d13c
    9360:	0000d158 	.word	0x0000d158
    9364:	0000d174 	.word	0x0000d174
    9368:	0000d190 	.word	0x0000d190
    936c:	0000d1ac 	.word	0x0000d1ac
    9370:	0000d1c8 	.word	0x0000d1c8
    9374:	0000d1e4 	.word	0x0000d1e4
    9378:	0000d200 	.word	0x0000d200
    937c:	0000d21c 	.word	0x0000d21c
    9380:	0000d238 	.word	0x0000d238
    9384:	0000d254 	.word	0x0000d254

00009388 <fat32_fsinfo_print>:
    9388:	e92d4010 	push	{r4, lr}
    938c:	e1a04001 	mov	r4, r1
    9390:	e1a01000 	mov	r1, r0
    9394:	e59f0040 	ldr	r0, [pc, #64]	@ 93dc <fat32_fsinfo_print+0x54>
    9398:	eb000ade 	bl	bf18 <printk>
    939c:	e5941000 	ldr	r1, [r4]
    93a0:	e59f0038 	ldr	r0, [pc, #56]	@ 93e0 <fat32_fsinfo_print+0x58>
    93a4:	eb000adb 	bl	bf18 <printk>
    93a8:	e59411e4 	ldr	r1, [r4, #484]	@ 0x1e4
    93ac:	e59f0030 	ldr	r0, [pc, #48]	@ 93e4 <fat32_fsinfo_print+0x5c>
    93b0:	eb000ad8 	bl	bf18 <printk>
    93b4:	e59411fc 	ldr	r1, [r4, #508]	@ 0x1fc
    93b8:	e59f0028 	ldr	r0, [pc, #40]	@ 93e8 <fat32_fsinfo_print+0x60>
    93bc:	eb000ad5 	bl	bf18 <printk>
    93c0:	e59411e8 	ldr	r1, [r4, #488]	@ 0x1e8
    93c4:	e59f0020 	ldr	r0, [pc, #32]	@ 93ec <fat32_fsinfo_print+0x64>
    93c8:	eb000ad2 	bl	bf18 <printk>
    93cc:	e59411ec 	ldr	r1, [r4, #492]	@ 0x1ec
    93d0:	e59f0018 	ldr	r0, [pc, #24]	@ 93f0 <fat32_fsinfo_print+0x68>
    93d4:	eb000acf 	bl	bf18 <printk>
    93d8:	e8bd8010 	pop	{r4, pc}
    93dc:	0000cdf8 	.word	0x0000cdf8
    93e0:	0000d270 	.word	0x0000d270
    93e4:	0000d28c 	.word	0x0000d28c
    93e8:	0000d2a8 	.word	0x0000d2a8
    93ec:	0000d2c4 	.word	0x0000d2c4
    93f0:	0000d2e0 	.word	0x0000d2e0

000093f4 <fat32_fsinfo_check>:
    93f4:	e52de004 	push	{lr}		@ (str lr, [sp, #-4]!)
    93f8:	e24dd00c 	sub	sp, sp, #12
    93fc:	e5902000 	ldr	r2, [r0]
    9400:	e59f308c 	ldr	r3, [pc, #140]	@ 9494 <fat32_fsinfo_check+0xa0>
    9404:	e1520003 	cmp	r2, r3
    9408:	1a000009 	bne	9434 <fat32_fsinfo_check+0x40>
    940c:	e59021e4 	ldr	r2, [r0, #484]	@ 0x1e4
    9410:	e59f3080 	ldr	r3, [pc, #128]	@ 9498 <fat32_fsinfo_check+0xa4>
    9414:	e1520003 	cmp	r2, r3
    9418:	1a00000d 	bne	9454 <fat32_fsinfo_check+0x60>
    941c:	e59021fc 	ldr	r2, [r0, #508]	@ 0x1fc
    9420:	e59f3074 	ldr	r3, [pc, #116]	@ 949c <fat32_fsinfo_check+0xa8>
    9424:	e1520003 	cmp	r2, r3
    9428:	1a000011 	bne	9474 <fat32_fsinfo_check+0x80>
    942c:	e28dd00c 	add	sp, sp, #12
    9430:	e49df004 	pop	{pc}		@ (ldr pc, [sp], #4)
    9434:	e59f3064 	ldr	r3, [pc, #100]	@ 94a0 <fat32_fsinfo_check+0xac>
    9438:	e58d3000 	str	r3, [sp]
    943c:	e3a03057 	mov	r3, #87	@ 0x57
    9440:	e59f205c 	ldr	r2, [pc, #92]	@ 94a4 <fat32_fsinfo_check+0xb0>
    9444:	e59f105c 	ldr	r1, [pc, #92]	@ 94a8 <fat32_fsinfo_check+0xb4>
    9448:	e59f005c 	ldr	r0, [pc, #92]	@ 94ac <fat32_fsinfo_check+0xb8>
    944c:	eb000ab1 	bl	bf18 <printk>
    9450:	eb000bc3 	bl	c364 <clean_reboot>
    9454:	e59f3054 	ldr	r3, [pc, #84]	@ 94b0 <fat32_fsinfo_check+0xbc>
    9458:	e58d3000 	str	r3, [sp]
    945c:	e3a03058 	mov	r3, #88	@ 0x58
    9460:	e59f203c 	ldr	r2, [pc, #60]	@ 94a4 <fat32_fsinfo_check+0xb0>
    9464:	e59f103c 	ldr	r1, [pc, #60]	@ 94a8 <fat32_fsinfo_check+0xb4>
    9468:	e59f003c 	ldr	r0, [pc, #60]	@ 94ac <fat32_fsinfo_check+0xb8>
    946c:	eb000aa9 	bl	bf18 <printk>
    9470:	eb000bbb 	bl	c364 <clean_reboot>
    9474:	e59f3038 	ldr	r3, [pc, #56]	@ 94b4 <fat32_fsinfo_check+0xc0>
    9478:	e58d3000 	str	r3, [sp]
    947c:	e3a03059 	mov	r3, #89	@ 0x59
    9480:	e59f201c 	ldr	r2, [pc, #28]	@ 94a4 <fat32_fsinfo_check+0xb0>
    9484:	e59f101c 	ldr	r1, [pc, #28]	@ 94a8 <fat32_fsinfo_check+0xb4>
    9488:	e59f001c 	ldr	r0, [pc, #28]	@ 94ac <fat32_fsinfo_check+0xb8>
    948c:	eb000aa1 	bl	bf18 <printk>
    9490:	eb000bb3 	bl	c364 <clean_reboot>
    9494:	41615252 	.word	0x41615252
    9498:	61417272 	.word	0x61417272
    949c:	aa550000 	.word	0xaa550000
    94a0:	0000d2fc 	.word	0x0000d2fc
    94a4:	0000e438 	.word	0x0000e438
    94a8:	0000ceac 	.word	0x0000ceac
    94ac:	0000c818 	.word	0x0000c818
    94b0:	0000d318 	.word	0x0000d318
    94b4:	0000d334 	.word	0x0000d334

000094b8 <fat32_fat_entry_type_str>:
    94b8:	e370029f 	cmn	r0, #-268435447	@ 0xf0000009
    94bc:	0a000015 	beq	9518 <fat32_fat_entry_type_str+0x60>
    94c0:	8a000005 	bhi	94dc <fat32_fat_entry_type_str+0x24>
    94c4:	e3500000 	cmp	r0, #0
    94c8:	0a000014 	beq	9520 <fat32_fat_entry_type_str+0x68>
    94cc:	e3500001 	cmp	r0, #1
    94d0:	1a000007 	bne	94f4 <fat32_fat_entry_type_str+0x3c>
    94d4:	e59f0054 	ldr	r0, [pc, #84]	@ 9530 <fat32_fat_entry_type_str+0x78>
    94d8:	e12fff1e 	bx	lr
    94dc:	e370028f 	cmn	r0, #-268435448	@ 0xf0000008
    94e0:	0a000010 	beq	9528 <fat32_fat_entry_type_str+0x70>
    94e4:	e370027f 	cmn	r0, #-268435449	@ 0xf0000007
    94e8:	1a000001 	bne	94f4 <fat32_fat_entry_type_str+0x3c>
    94ec:	e59f0040 	ldr	r0, [pc, #64]	@ 9534 <fat32_fat_entry_type_str+0x7c>
    94f0:	e12fff1e 	bx	lr
    94f4:	e52de004 	push	{lr}		@ (str lr, [sp, #-4]!)
    94f8:	e24dd00c 	sub	sp, sp, #12
    94fc:	e58d0000 	str	r0, [sp]
    9500:	e3a03067 	mov	r3, #103	@ 0x67
    9504:	e59f202c 	ldr	r2, [pc, #44]	@ 9538 <fat32_fat_entry_type_str+0x80>
    9508:	e59f102c 	ldr	r1, [pc, #44]	@ 953c <fat32_fat_entry_type_str+0x84>
    950c:	e59f002c 	ldr	r0, [pc, #44]	@ 9540 <fat32_fat_entry_type_str+0x88>
    9510:	eb000a80 	bl	bf18 <printk>
    9514:	eb000b92 	bl	c364 <clean_reboot>
    9518:	e59f0024 	ldr	r0, [pc, #36]	@ 9544 <fat32_fat_entry_type_str+0x8c>
    951c:	e12fff1e 	bx	lr
    9520:	e59f0020 	ldr	r0, [pc, #32]	@ 9548 <fat32_fat_entry_type_str+0x90>
    9524:	e12fff1e 	bx	lr
    9528:	e59f001c 	ldr	r0, [pc, #28]	@ 954c <fat32_fat_entry_type_str+0x94>
    952c:	e12fff1e 	bx	lr
    9530:	0000d360 	.word	0x0000d360
    9534:	0000d390 	.word	0x0000d390
    9538:	0000e44c 	.word	0x0000e44c
    953c:	0000ceac 	.word	0x0000ceac
    9540:	0000d3a0 	.word	0x0000d3a0
    9544:	0000d374 	.word	0x0000d374
    9548:	0000d350 	.word	0x0000d350
    954c:	0000d380 	.word	0x0000d380

00009550 <fat32_fat_entry_type>:
    9550:	e3c0020f 	bic	r0, r0, #-268435456	@ 0xf0000000
    9554:	e3500001 	cmp	r0, #1
    9558:	912fff1e 	bxls	lr
    955c:	e370029f 	cmn	r0, #-268435447	@ 0xf0000009
    9560:	012fff1e 	bxeq	lr
    9564:	e2402002 	sub	r2, r0, #2
    9568:	e59f3074 	ldr	r3, [pc, #116]	@ 95e4 <fat32_fat_entry_type+0x94>
    956c:	e1520003 	cmp	r2, r3
    9570:	9a000019 	bls	95dc <fat32_fat_entry_type+0x8c>
    9574:	e52de004 	push	{lr}		@ (str lr, [sp, #-4]!)
    9578:	e24dd00c 	sub	sp, sp, #12
    957c:	e280320f 	add	r3, r0, #-268435456	@ 0xf0000000
    9580:	e2833010 	add	r3, r3, #16
    9584:	e3530006 	cmp	r3, #6
    9588:	9a000005 	bls	95a4 <fat32_fat_entry_type+0x54>
    958c:	e280328f 	add	r3, r0, #-268435448	@ 0xf0000008
    9590:	e3530007 	cmp	r3, #7
    9594:	8a000009 	bhi	95c0 <fat32_fat_entry_type+0x70>
    9598:	e3e0027f 	mvn	r0, #-268435449	@ 0xf0000007
    959c:	e28dd00c 	add	sp, sp, #12
    95a0:	e49df004 	pop	{pc}		@ (ldr pc, [sp], #4)
    95a4:	e58d0000 	str	r0, [sp]
    95a8:	e3a03077 	mov	r3, #119	@ 0x77
    95ac:	e59f2034 	ldr	r2, [pc, #52]	@ 95e8 <fat32_fat_entry_type+0x98>
    95b0:	e59f1034 	ldr	r1, [pc, #52]	@ 95ec <fat32_fat_entry_type+0x9c>
    95b4:	e59f0034 	ldr	r0, [pc, #52]	@ 95f0 <fat32_fat_entry_type+0xa0>
    95b8:	eb000a56 	bl	bf18 <printk>
    95bc:	eb000b68 	bl	c364 <clean_reboot>
    95c0:	e58d0000 	str	r0, [sp]
    95c4:	e3a0307a 	mov	r3, #122	@ 0x7a
    95c8:	e59f2018 	ldr	r2, [pc, #24]	@ 95e8 <fat32_fat_entry_type+0x98>
    95cc:	e59f1018 	ldr	r1, [pc, #24]	@ 95ec <fat32_fat_entry_type+0x9c>
    95d0:	e59f001c 	ldr	r0, [pc, #28]	@ 95f4 <fat32_fat_entry_type+0xa4>
    95d4:	eb000a4f 	bl	bf18 <printk>
    95d8:	eb000b61 	bl	c364 <clean_reboot>
    95dc:	e3e0026f 	mvn	r0, #-268435450	@ 0xf0000006
    95e0:	e12fff1e 	bx	lr
    95e4:	0fffffed 	.word	0x0fffffed
    95e8:	0000e468 	.word	0x0000e468
    95ec:	0000ceac 	.word	0x0000ceac
    95f0:	0000d3c0 	.word	0x0000d3c0
    95f4:	0000d3e4 	.word	0x0000d3e4

000095f8 <fat32_dirent_free>:
    95f8:	e5d03000 	ldrb	r3, [r0]
    95fc:	e5d0200b 	ldrb	r2, [r0, #11]
    9600:	e352000f 	cmp	r2, #15
    9604:	0a000004 	beq	961c <fat32_dirent_free+0x24>
    9608:	e35300e5 	cmp	r3, #229	@ 0xe5
    960c:	13530000 	cmpne	r3, #0
    9610:	03a00001 	moveq	r0, #1
    9614:	13a00000 	movne	r0, #0
    9618:	e12fff1e 	bx	lr
    961c:	e92d4010 	push	{r4, lr}
    9620:	eb00021c 	bl	9e98 <fat32_dirent_is_deleted_lfn>
    9624:	e8bd8010 	pop	{r4, pc}

00009628 <fat32_dir_attr_str>:
    9628:	e350000f 	cmp	r0, #15
    962c:	0a00003c 	beq	9724 <fat32_dir_attr_str+0xfc>
    9630:	e92d4010 	push	{r4, lr}
    9634:	e24dd008 	sub	sp, sp, #8
    9638:	e1a04000 	mov	r4, r0
    963c:	e59f30e8 	ldr	r3, [pc, #232]	@ 972c <fat32_dir_attr_str+0x104>
    9640:	e3a02000 	mov	r2, #0
    9644:	e5c32020 	strb	r2, [r3, #32]
    9648:	e3100001 	tst	r0, #1
    964c:	1a00000a 	bne	967c <fat32_dir_attr_str+0x54>
    9650:	e350000f 	cmp	r0, #15
    9654:	0a000001 	beq	9660 <fat32_dir_attr_str+0x38>
    9658:	e3140002 	tst	r4, #2
    965c:	1a00000b 	bne	9690 <fat32_dir_attr_str+0x68>
    9660:	e2443004 	sub	r3, r4, #4
    9664:	e59f20c4 	ldr	r2, [pc, #196]	@ 9730 <fat32_dir_attr_str+0x108>
    9668:	e353001c 	cmp	r3, #28
    966c:	8a000025 	bhi	9708 <fat32_dir_attr_str+0xe0>
    9670:	e7d23003 	ldrb	r3, [r2, r3]
    9674:	e08ff103 	add	pc, pc, r3, lsl #2
    9678:	e320f000 	nop	{0}
    967c:	e59f10b0 	ldr	r1, [pc, #176]	@ 9734 <fat32_dir_attr_str+0x10c>
    9680:	e2830020 	add	r0, r3, #32
    9684:	eb000b19 	bl	c2f0 <strcat>
    9688:	e3c44001 	bic	r4, r4, #1
    968c:	eafffff1 	b	9658 <fat32_dir_attr_str+0x30>
    9690:	e59f10a0 	ldr	r1, [pc, #160]	@ 9738 <fat32_dir_attr_str+0x110>
    9694:	e59f00a0 	ldr	r0, [pc, #160]	@ 973c <fat32_dir_attr_str+0x114>
    9698:	eb000b14 	bl	c2f0 <strcat>
    969c:	e3c44002 	bic	r4, r4, #2
    96a0:	eaffffee 	b	9660 <fat32_dir_attr_str+0x38>
    96a4:	e59f4090 	ldr	r4, [pc, #144]	@ 973c <fat32_dir_attr_str+0x114>
    96a8:	e59f1090 	ldr	r1, [pc, #144]	@ 9740 <fat32_dir_attr_str+0x118>
    96ac:	e1a00004 	mov	r0, r4
    96b0:	eb000b0e 	bl	c2f0 <strcat>
    96b4:	e1a00004 	mov	r0, r4
    96b8:	e28dd008 	add	sp, sp, #8
    96bc:	e8bd8010 	pop	{r4, pc}
    96c0:	e59f4074 	ldr	r4, [pc, #116]	@ 973c <fat32_dir_attr_str+0x114>
    96c4:	e59f1078 	ldr	r1, [pc, #120]	@ 9744 <fat32_dir_attr_str+0x11c>
    96c8:	e1a00004 	mov	r0, r4
    96cc:	eb000b07 	bl	c2f0 <strcat>
    96d0:	e1a00004 	mov	r0, r4
    96d4:	eafffff7 	b	96b8 <fat32_dir_attr_str+0x90>
    96d8:	e59f405c 	ldr	r4, [pc, #92]	@ 973c <fat32_dir_attr_str+0x114>
    96dc:	e59f1064 	ldr	r1, [pc, #100]	@ 9748 <fat32_dir_attr_str+0x120>
    96e0:	e1a00004 	mov	r0, r4
    96e4:	eb000b01 	bl	c2f0 <strcat>
    96e8:	e1a00004 	mov	r0, r4
    96ec:	eafffff1 	b	96b8 <fat32_dir_attr_str+0x90>
    96f0:	e59f4044 	ldr	r4, [pc, #68]	@ 973c <fat32_dir_attr_str+0x114>
    96f4:	e59f1050 	ldr	r1, [pc, #80]	@ 974c <fat32_dir_attr_str+0x124>
    96f8:	e1a00004 	mov	r0, r4
    96fc:	eb000afb 	bl	c2f0 <strcat>
    9700:	e1a00004 	mov	r0, r4
    9704:	eaffffeb 	b	96b8 <fat32_dir_attr_str+0x90>
    9708:	e58d4000 	str	r4, [sp]
    970c:	e3a0309d 	mov	r3, #157	@ 0x9d
    9710:	e59f2038 	ldr	r2, [pc, #56]	@ 9750 <fat32_dir_attr_str+0x128>
    9714:	e59f1038 	ldr	r1, [pc, #56]	@ 9754 <fat32_dir_attr_str+0x12c>
    9718:	e59f0038 	ldr	r0, [pc, #56]	@ 9758 <fat32_dir_attr_str+0x130>
    971c:	eb0009fd 	bl	bf18 <printk>
    9720:	eb000b0f 	bl	c364 <clean_reboot>
    9724:	e59f0030 	ldr	r0, [pc, #48]	@ 975c <fat32_dir_attr_str+0x134>
    9728:	e12fff1e 	bx	lr
    972c:	0000ed60 	.word	0x0000ed60
    9730:	0000e400 	.word	0x0000e400
    9734:	0000d420 	.word	0x0000d420
    9738:	0000d424 	.word	0x0000d424
    973c:	0000ed80 	.word	0x0000ed80
    9740:	0000d42c 	.word	0x0000d42c
    9744:	0000d43c 	.word	0x0000d43c
    9748:	0000d44c 	.word	0x0000d44c
    974c:	0000d454 	.word	0x0000d454
    9750:	0000e480 	.word	0x0000e480
    9754:	0000ceac 	.word	0x0000ceac
    9758:	0000d460 	.word	0x0000d460
    975c:	0000d410 	.word	0x0000d410

00009760 <fat32_dirent_name>:
    9760:	e92d4010 	push	{r4, lr}
    9764:	e1a04001 	mov	r4, r1
    9768:	ebfffd79 	bl	8d54 <to_8dot3>
    976c:	e1a01000 	mov	r1, r0
    9770:	e1a00004 	mov	r0, r4
    9774:	eb000aea 	bl	c324 <strcpy>
    9778:	e8bd8010 	pop	{r4, pc}

0000977c <fat32_is_valid_name>:
    977c:	e92d4010 	push	{r4, lr}
    9780:	e1a04000 	mov	r4, r0
    9784:	eb000aee 	bl	c344 <strlen>
    9788:	e1a02000 	mov	r2, r0
    978c:	e3a03000 	mov	r3, #0
    9790:	e1a00003 	mov	r0, r3
    9794:	ea000000 	b	979c <fat32_is_valid_name+0x20>
    9798:	e2833001 	add	r3, r3, #1
    979c:	e1530002 	cmp	r3, r2
    97a0:	aa000003 	bge	97b4 <fat32_is_valid_name+0x38>
    97a4:	e7d41003 	ldrb	r1, [r4, r3]
    97a8:	e351002e 	cmp	r1, #46	@ 0x2e
    97ac:	03a00001 	moveq	r0, #1
    97b0:	eafffff8 	b	9798 <fat32_is_valid_name+0x1c>
    97b4:	e3500000 	cmp	r0, #0
    97b8:	0a000019 	beq	9824 <fat32_is_valid_name+0xa8>
    97bc:	e352000c 	cmp	r2, #12
    97c0:	ca00002a 	bgt	9870 <fat32_is_valid_name+0xf4>
    97c4:	e3520004 	cmp	r2, #4
    97c8:	da00002a 	ble	9878 <fat32_is_valid_name+0xfc>
    97cc:	e0843002 	add	r3, r4, r2
    97d0:	e5533004 	ldrb	r3, [r3, #-4]
    97d4:	e353002e 	cmp	r3, #46	@ 0x2e
    97d8:	1a000028 	bne	9880 <fat32_is_valid_name+0x104>
    97dc:	e3a01000 	mov	r1, #0
    97e0:	ea000000 	b	97e8 <fat32_is_valid_name+0x6c>
    97e4:	e2811001 	add	r1, r1, #1
    97e8:	e1510002 	cmp	r1, r2
    97ec:	a8bd8010 	popge	{r4, pc}
    97f0:	e7d43001 	ldrb	r3, [r4, r1]
    97f4:	e243c041 	sub	ip, r3, #65	@ 0x41
    97f8:	e6efc07c 	uxtb	ip, ip
    97fc:	e2433030 	sub	r3, r3, #48	@ 0x30
    9800:	e6ef3073 	uxtb	r3, r3
    9804:	e35c0019 	cmp	ip, #25
    9808:	83530009 	cmphi	r3, #9
    980c:	9afffff4 	bls	97e4 <fat32_is_valid_name+0x68>
    9810:	e2423004 	sub	r3, r2, #4
    9814:	e1530001 	cmp	r3, r1
    9818:	0afffff1 	beq	97e4 <fat32_is_valid_name+0x68>
    981c:	e3a00000 	mov	r0, #0
    9820:	e8bd8010 	pop	{r4, pc}
    9824:	e3520008 	cmp	r2, #8
    9828:	c8bd8010 	popgt	{r4, pc}
    982c:	e3520000 	cmp	r2, #0
    9830:	d8bd8010 	pople	{r4, pc}
    9834:	e1a01000 	mov	r1, r0
    9838:	e1510002 	cmp	r1, r2
    983c:	aa000009 	bge	9868 <fat32_is_valid_name+0xec>
    9840:	e7d43001 	ldrb	r3, [r4, r1]
    9844:	e243c041 	sub	ip, r3, #65	@ 0x41
    9848:	e6efc07c 	uxtb	ip, ip
    984c:	e2433030 	sub	r3, r3, #48	@ 0x30
    9850:	e6ef3073 	uxtb	r3, r3
    9854:	e35c0019 	cmp	ip, #25
    9858:	83530009 	cmphi	r3, #9
    985c:	88bd8010 	pophi	{r4, pc}
    9860:	e2811001 	add	r1, r1, #1
    9864:	eafffff3 	b	9838 <fat32_is_valid_name+0xbc>
    9868:	e3a00001 	mov	r0, #1
    986c:	e8bd8010 	pop	{r4, pc}
    9870:	e3a00000 	mov	r0, #0
    9874:	e8bd8010 	pop	{r4, pc}
    9878:	e3a00000 	mov	r0, #0
    987c:	e8bd8010 	pop	{r4, pc}
    9880:	e3a00000 	mov	r0, #0
    9884:	e8bd8010 	pop	{r4, pc}

00009888 <fat32_dirent_set_name>:
    9888:	e92d40f0 	push	{r4, r5, r6, r7, lr}
    988c:	e24dd00c 	sub	sp, sp, #12
    9890:	e1a06000 	mov	r6, r0
    9894:	e1a04001 	mov	r4, r1
    9898:	e1a00001 	mov	r0, r1
    989c:	eb000aa8 	bl	c344 <strlen>
    98a0:	e1a05000 	mov	r5, r0
    98a4:	e1a00004 	mov	r0, r4
    98a8:	ebffffb3 	bl	977c <fat32_is_valid_name>
    98ac:	e3500000 	cmp	r0, #0
    98b0:	13a03000 	movne	r3, #0
    98b4:	11a07003 	movne	r7, r3
    98b8:	1a000008 	bne	98e0 <fat32_dirent_set_name+0x58>
    98bc:	e59f308c 	ldr	r3, [pc, #140]	@ 9950 <fat32_dirent_set_name+0xc8>
    98c0:	e58d3000 	str	r3, [sp]
    98c4:	e3a030da 	mov	r3, #218	@ 0xda
    98c8:	e59f2084 	ldr	r2, [pc, #132]	@ 9954 <fat32_dirent_set_name+0xcc>
    98cc:	e59f1084 	ldr	r1, [pc, #132]	@ 9958 <fat32_dirent_set_name+0xd0>
    98d0:	e59f0084 	ldr	r0, [pc, #132]	@ 995c <fat32_dirent_set_name+0xd4>
    98d4:	eb00098f 	bl	bf18 <printk>
    98d8:	eb000aa1 	bl	c364 <clean_reboot>
    98dc:	e2833001 	add	r3, r3, #1
    98e0:	e1530005 	cmp	r3, r5
    98e4:	aa000003 	bge	98f8 <fat32_dirent_set_name+0x70>
    98e8:	e7d4c003 	ldrb	ip, [r4, r3]
    98ec:	e35c002e 	cmp	ip, #46	@ 0x2e
    98f0:	03a07001 	moveq	r7, #1
    98f4:	eafffff8 	b	98dc <fat32_dirent_set_name+0x54>
    98f8:	e3a0200b 	mov	r2, #11
    98fc:	e3a01020 	mov	r1, #32
    9900:	e1a00006 	mov	r0, r6
    9904:	eb00095d 	bl	be80 <memset>
    9908:	e3570000 	cmp	r7, #0
    990c:	0a00000a 	beq	993c <fat32_dirent_set_name+0xb4>
    9910:	e2452004 	sub	r2, r5, #4
    9914:	e1a01004 	mov	r1, r4
    9918:	e1a00006 	mov	r0, r6
    991c:	eb000920 	bl	bda4 <memcpy>
    9920:	e2451003 	sub	r1, r5, #3
    9924:	e3a02003 	mov	r2, #3
    9928:	e0841001 	add	r1, r4, r1
    992c:	e2860008 	add	r0, r6, #8
    9930:	eb00091b 	bl	bda4 <memcpy>
    9934:	e28dd00c 	add	sp, sp, #12
    9938:	e8bd80f0 	pop	{r4, r5, r6, r7, pc}
    993c:	e1a02005 	mov	r2, r5
    9940:	e1a01004 	mov	r1, r4
    9944:	e1a00006 	mov	r0, r6
    9948:	eb000915 	bl	bda4 <memcpy>
    994c:	eafffff8 	b	9934 <fat32_dirent_set_name+0xac>
    9950:	0000d484 	.word	0x0000d484
    9954:	0000e494 	.word	0x0000e494
    9958:	0000ceac 	.word	0x0000ceac
    995c:	0000c818 	.word	0x0000c818

00009960 <fat32_dirent_print_helper>:
    9960:	e92d4070 	push	{r4, r5, r6, lr}
    9964:	e1a06000 	mov	r6, r0
    9968:	ebffff22 	bl	95f8 <fat32_dirent_free>
    996c:	e2504000 	subs	r4, r0, #0
    9970:	1a000016 	bne	99d0 <fat32_dirent_print_helper+0x70>
    9974:	e5d6500b 	ldrb	r5, [r6, #11]
    9978:	e355000f 	cmp	r5, #15
    997c:	0a000016 	beq	99dc <fat32_dirent_print_helper+0x7c>
    9980:	e355000f 	cmp	r5, #15
    9984:	0a000001 	beq	9990 <fat32_dirent_print_helper+0x30>
    9988:	e3150020 	tst	r5, #32
    998c:	1a000015 	bne	99e8 <fat32_dirent_print_helper+0x88>
    9990:	e355000f 	cmp	r5, #15
    9994:	0a000001 	beq	99a0 <fat32_dirent_print_helper+0x40>
    9998:	e3150010 	tst	r5, #16
    999c:	1a000013 	bne	99f0 <fat32_dirent_print_helper+0x90>
    99a0:	e1a00005 	mov	r0, r5
    99a4:	ebffff1f 	bl	9628 <fat32_dir_attr_str>
    99a8:	e1a02000 	mov	r2, r0
    99ac:	e1a01005 	mov	r1, r5
    99b0:	e59f0164 	ldr	r0, [pc, #356]	@ 9b1c <fat32_dirent_print_helper+0x1bc>
    99b4:	eb000957 	bl	bf18 <printk>
    99b8:	e5d6300b 	ldrb	r3, [r6, #11]
    99bc:	e353000f 	cmp	r3, #15
    99c0:	0a00000a 	beq	99f0 <fat32_dirent_print_helper+0x90>
    99c4:	e3130020 	tst	r3, #32
    99c8:	0a000008 	beq	99f0 <fat32_dirent_print_helper+0x90>
    99cc:	e8bd8070 	pop	{r4, r5, r6, pc}
    99d0:	e59f0148 	ldr	r0, [pc, #328]	@ 9b20 <fat32_dirent_print_helper+0x1c0>
    99d4:	eb00094f 	bl	bf18 <printk>
    99d8:	e8bd8070 	pop	{r4, r5, r6, pc}
    99dc:	e59f0140 	ldr	r0, [pc, #320]	@ 9b24 <fat32_dirent_print_helper+0x1c4>
    99e0:	eb00094c 	bl	bf18 <printk>
    99e4:	e8bd8070 	pop	{r4, r5, r6, pc}
    99e8:	e59f0138 	ldr	r0, [pc, #312]	@ 9b28 <fat32_dirent_print_helper+0x1c8>
    99ec:	eb000949 	bl	bf18 <printk>
    99f0:	e59f0134 	ldr	r0, [pc, #308]	@ 9b2c <fat32_dirent_print_helper+0x1cc>
    99f4:	eb000947 	bl	bf18 <printk>
    99f8:	e1a00006 	mov	r0, r6
    99fc:	ebfffcf6 	bl	8ddc <add_nul>
    9a00:	e1a05000 	mov	r5, r0
    9a04:	e1a00006 	mov	r0, r6
    9a08:	ebfffcd1 	bl	8d54 <to_8dot3>
    9a0c:	e1a02000 	mov	r2, r0
    9a10:	e1a01005 	mov	r1, r5
    9a14:	e59f0114 	ldr	r0, [pc, #276]	@ 9b30 <fat32_dirent_print_helper+0x1d0>
    9a18:	eb00093e 	bl	bf18 <printk>
    9a1c:	e59f0110 	ldr	r0, [pc, #272]	@ 9b34 <fat32_dirent_print_helper+0x1d4>
    9a20:	eb00093c 	bl	bf18 <printk>
    9a24:	ea000004 	b	9a3c <fat32_dirent_print_helper+0xdc>
    9a28:	e7d61004 	ldrb	r1, [r6, r4]
    9a2c:	e1a02001 	mov	r2, r1
    9a30:	e59f0100 	ldr	r0, [pc, #256]	@ 9b38 <fat32_dirent_print_helper+0x1d8>
    9a34:	eb000937 	bl	bf18 <printk>
    9a38:	e2844001 	add	r4, r4, #1
    9a3c:	e354000a 	cmp	r4, #10
    9a40:	8a000006 	bhi	9a60 <fat32_dirent_print_helper+0x100>
    9a44:	e3540008 	cmp	r4, #8
    9a48:	1afffff6 	bne	9a28 <fat32_dirent_print_helper+0xc8>
    9a4c:	e59f00d8 	ldr	r0, [pc, #216]	@ 9b2c <fat32_dirent_print_helper+0x1cc>
    9a50:	eb000930 	bl	bf18 <printk>
    9a54:	e59f00e0 	ldr	r0, [pc, #224]	@ 9b3c <fat32_dirent_print_helper+0x1dc>
    9a58:	eb00092e 	bl	bf18 <printk>
    9a5c:	eafffff1 	b	9a28 <fat32_dirent_print_helper+0xc8>
    9a60:	e59f00d8 	ldr	r0, [pc, #216]	@ 9b40 <fat32_dirent_print_helper+0x1e0>
    9a64:	eb00092b 	bl	bf18 <printk>
    9a68:	e5d6100b 	ldrb	r1, [r6, #11]
    9a6c:	e59f00d0 	ldr	r0, [pc, #208]	@ 9b44 <fat32_dirent_print_helper+0x1e4>
    9a70:	eb000928 	bl	bf18 <printk>
    9a74:	e5d6300b 	ldrb	r3, [r6, #11]
    9a78:	e353000f 	cmp	r3, #15
    9a7c:	0a000009 	beq	9aa8 <fat32_dirent_print_helper+0x148>
    9a80:	e3130001 	tst	r3, #1
    9a84:	1a00001b 	bne	9af8 <fat32_dirent_print_helper+0x198>
    9a88:	e5d6300b 	ldrb	r3, [r6, #11]
    9a8c:	e3130002 	tst	r3, #2
    9a90:	1a00001b 	bne	9b04 <fat32_dirent_print_helper+0x1a4>
    9a94:	e5d6300b 	ldrb	r3, [r6, #11]
    9a98:	e3130004 	tst	r3, #4
    9a9c:	1a00001b 	bne	9b10 <fat32_dirent_print_helper+0x1b0>
    9aa0:	e59f0084 	ldr	r0, [pc, #132]	@ 9b2c <fat32_dirent_print_helper+0x1cc>
    9aa4:	eb00091b 	bl	bf18 <printk>
    9aa8:	e5d63014 	ldrb	r3, [r6, #20]
    9aac:	e5d61015 	ldrb	r1, [r6, #21]
    9ab0:	e1831401 	orr	r1, r3, r1, lsl #8
    9ab4:	e59f008c 	ldr	r0, [pc, #140]	@ 9b48 <fat32_dirent_print_helper+0x1e8>
    9ab8:	eb000916 	bl	bf18 <printk>
    9abc:	e5d6301a 	ldrb	r3, [r6, #26]
    9ac0:	e5d6101b 	ldrb	r1, [r6, #27]
    9ac4:	e1831401 	orr	r1, r3, r1, lsl #8
    9ac8:	e59f007c 	ldr	r0, [pc, #124]	@ 9b4c <fat32_dirent_print_helper+0x1ec>
    9acc:	eb000911 	bl	bf18 <printk>
    9ad0:	e5d6301c 	ldrb	r3, [r6, #28]
    9ad4:	e5d6201d 	ldrb	r2, [r6, #29]
    9ad8:	e1833402 	orr	r3, r3, r2, lsl #8
    9adc:	e5d6201e 	ldrb	r2, [r6, #30]
    9ae0:	e1833802 	orr	r3, r3, r2, lsl #16
    9ae4:	e5d6101f 	ldrb	r1, [r6, #31]
    9ae8:	e1831c01 	orr	r1, r3, r1, lsl #24
    9aec:	e59f005c 	ldr	r0, [pc, #92]	@ 9b50 <fat32_dirent_print_helper+0x1f0>
    9af0:	eb000908 	bl	bf18 <printk>
    9af4:	e8bd8070 	pop	{r4, r5, r6, pc}
    9af8:	e59f0054 	ldr	r0, [pc, #84]	@ 9b54 <fat32_dirent_print_helper+0x1f4>
    9afc:	eb000905 	bl	bf18 <printk>
    9b00:	eaffffe0 	b	9a88 <fat32_dirent_print_helper+0x128>
    9b04:	e59f004c 	ldr	r0, [pc, #76]	@ 9b58 <fat32_dirent_print_helper+0x1f8>
    9b08:	eb000902 	bl	bf18 <printk>
    9b0c:	eaffffe0 	b	9a94 <fat32_dirent_print_helper+0x134>
    9b10:	e59f0044 	ldr	r0, [pc, #68]	@ 9b5c <fat32_dirent_print_helper+0x1fc>
    9b14:	eb0008ff 	bl	bf18 <printk>
    9b18:	eaffffe0 	b	9aa0 <fat32_dirent_print_helper+0x140>
    9b1c:	0000d4f8 	.word	0x0000d4f8
    9b20:	0000d4a0 	.word	0x0000d4a0
    9b24:	0000d4bc 	.word	0x0000d4bc
    9b28:	0000d4d0 	.word	0x0000d4d0
    9b2c:	0000c8d0 	.word	0x0000c8d0
    9b30:	0000d518 	.word	0x0000d518
    9b34:	0000d53c 	.word	0x0000d53c
    9b38:	0000d558 	.word	0x0000d558
    9b3c:	0000d550 	.word	0x0000d550
    9b40:	0000d564 	.word	0x0000d564
    9b44:	0000d568 	.word	0x0000d568
    9b48:	0000d5b4 	.word	0x0000d5b4
    9b4c:	0000d5cc 	.word	0x0000d5cc
    9b50:	0000d5e4 	.word	0x0000d5e4
    9b54:	0000d57c 	.word	0x0000d57c
    9b58:	0000d58c 	.word	0x0000d58c
    9b5c:	0000d598 	.word	0x0000d598

00009b60 <fat32_dirent_print>:
    9b60:	e92d4010 	push	{r4, lr}
    9b64:	e1a04001 	mov	r4, r1
    9b68:	e1a01000 	mov	r1, r0
    9b6c:	e59f000c 	ldr	r0, [pc, #12]	@ 9b80 <fat32_dirent_print+0x20>
    9b70:	eb0008e8 	bl	bf18 <printk>
    9b74:	e1a00004 	mov	r0, r4
    9b78:	ebffff78 	bl	9960 <fat32_dirent_print_helper>
    9b7c:	e8bd8010 	pop	{r4, pc}
    9b80:	0000d5fc 	.word	0x0000d5fc

00009b84 <fat32_dir_lookup>:
    9b84:	e92d41f0 	push	{r4, r5, r6, r7, r8, lr}
    9b88:	e1a08000 	mov	r8, r0
    9b8c:	e1a07001 	mov	r7, r1
    9b90:	e1a06002 	mov	r6, r2
    9b94:	e3a04000 	mov	r4, #0
    9b98:	ea000000 	b	9ba0 <fat32_dir_lookup+0x1c>
    9b9c:	e2844001 	add	r4, r4, #1
    9ba0:	e1540006 	cmp	r4, r6
    9ba4:	2a00000e 	bcs	9be4 <fat32_dir_lookup+0x60>
    9ba8:	e0875284 	add	r5, r7, r4, lsl #5
    9bac:	e1a00005 	mov	r0, r5
    9bb0:	ebfffe90 	bl	95f8 <fat32_dirent_free>
    9bb4:	e3500000 	cmp	r0, #0
    9bb8:	1afffff7 	bne	9b9c <fat32_dir_lookup+0x18>
    9bbc:	e5d5300b 	ldrb	r3, [r5, #11]
    9bc0:	e353000f 	cmp	r3, #15
    9bc4:	0afffff4 	beq	9b9c <fat32_dir_lookup+0x18>
    9bc8:	e3a0200b 	mov	r2, #11
    9bcc:	e1a01005 	mov	r1, r5
    9bd0:	e1a00008 	mov	r0, r8
    9bd4:	eb000846 	bl	bcf4 <memcmp>
    9bd8:	e3500000 	cmp	r0, #0
    9bdc:	1affffee 	bne	9b9c <fat32_dir_lookup+0x18>
    9be0:	ea000000 	b	9be8 <fat32_dir_lookup+0x64>
    9be4:	e3e04000 	mvn	r4, #0
    9be8:	e1a00004 	mov	r0, r4
    9bec:	e8bd81f0 	pop	{r4, r5, r6, r7, r8, pc}

00009bf0 <print_as_string>:
    9bf0:	e92d4070 	push	{r4, r5, r6, lr}
    9bf4:	e1a06001 	mov	r6, r1
    9bf8:	e1a05002 	mov	r5, r2
    9bfc:	e1a01000 	mov	r1, r0
    9c00:	e59f002c 	ldr	r0, [pc, #44]	@ 9c34 <print_as_string+0x44>
    9c04:	eb0008c3 	bl	bf18 <printk>
    9c08:	e3a04000 	mov	r4, #0
    9c0c:	ea000003 	b	9c20 <print_as_string+0x30>
    9c10:	e7d61004 	ldrb	r1, [r6, r4]
    9c14:	e59f001c 	ldr	r0, [pc, #28]	@ 9c38 <print_as_string+0x48>
    9c18:	eb0008be 	bl	bf18 <printk>
    9c1c:	e2844001 	add	r4, r4, #1
    9c20:	e1540005 	cmp	r4, r5
    9c24:	bafffff9 	blt	9c10 <print_as_string+0x20>
    9c28:	e59f000c 	ldr	r0, [pc, #12]	@ 9c3c <print_as_string+0x4c>
    9c2c:	eb0008b9 	bl	bf18 <printk>
    9c30:	e8bd8070 	pop	{r4, r5, r6, pc}
    9c34:	0000d604 	.word	0x0000d604
    9c38:	0000d608 	.word	0x0000d608
    9c3c:	0000c8d0 	.word	0x0000c8d0

00009c40 <print_bytes>:
    9c40:	e92d4070 	push	{r4, r5, r6, lr}
    9c44:	e1a06001 	mov	r6, r1
    9c48:	e1a05002 	mov	r5, r2
    9c4c:	e1a01000 	mov	r1, r0
    9c50:	e59f0040 	ldr	r0, [pc, #64]	@ 9c98 <print_bytes+0x58>
    9c54:	eb0008af 	bl	bf18 <printk>
    9c58:	e3a04000 	mov	r4, #0
    9c5c:	ea000003 	b	9c70 <print_bytes+0x30>
    9c60:	e7d61004 	ldrb	r1, [r6, r4]
    9c64:	e59f0030 	ldr	r0, [pc, #48]	@ 9c9c <print_bytes+0x5c>
    9c68:	eb0008aa 	bl	bf18 <printk>
    9c6c:	e2844001 	add	r4, r4, #1
    9c70:	e1540005 	cmp	r4, r5
    9c74:	aa000004 	bge	9c8c <print_bytes+0x4c>
    9c78:	e314000f 	tst	r4, #15
    9c7c:	1afffff7 	bne	9c60 <print_bytes+0x20>
    9c80:	e59f0018 	ldr	r0, [pc, #24]	@ 9ca0 <print_bytes+0x60>
    9c84:	eb0008a3 	bl	bf18 <printk>
    9c88:	eafffff4 	b	9c60 <print_bytes+0x20>
    9c8c:	e59f0010 	ldr	r0, [pc, #16]	@ 9ca4 <print_bytes+0x64>
    9c90:	eb0008a0 	bl	bf18 <printk>
    9c94:	e8bd8070 	pop	{r4, r5, r6, pc}
    9c98:	0000d604 	.word	0x0000d604
    9c9c:	0000d610 	.word	0x0000d610
    9ca0:	0000d60c 	.word	0x0000d60c
    9ca4:	0000c8d0 	.word	0x0000c8d0

00009ca8 <print_words>:
    9ca8:	e92d4070 	push	{r4, r5, r6, lr}
    9cac:	e1a06001 	mov	r6, r1
    9cb0:	e1a05002 	mov	r5, r2
    9cb4:	e1a01000 	mov	r1, r0
    9cb8:	e59f0040 	ldr	r0, [pc, #64]	@ 9d00 <print_words+0x58>
    9cbc:	eb000895 	bl	bf18 <printk>
    9cc0:	e3a04000 	mov	r4, #0
    9cc4:	ea000003 	b	9cd8 <print_words+0x30>
    9cc8:	e7961104 	ldr	r1, [r6, r4, lsl #2]
    9ccc:	e59f0030 	ldr	r0, [pc, #48]	@ 9d04 <print_words+0x5c>
    9cd0:	eb000890 	bl	bf18 <printk>
    9cd4:	e2844001 	add	r4, r4, #1
    9cd8:	e1540005 	cmp	r4, r5
    9cdc:	aa000004 	bge	9cf4 <print_words+0x4c>
    9ce0:	e314000f 	tst	r4, #15
    9ce4:	1afffff7 	bne	9cc8 <print_words+0x20>
    9ce8:	e59f0018 	ldr	r0, [pc, #24]	@ 9d08 <print_words+0x60>
    9cec:	eb000889 	bl	bf18 <printk>
    9cf0:	eafffff4 	b	9cc8 <print_words+0x20>
    9cf4:	e59f0010 	ldr	r0, [pc, #16]	@ 9d0c <print_words+0x64>
    9cf8:	eb000886 	bl	bf18 <printk>
    9cfc:	e8bd8070 	pop	{r4, r5, r6, pc}
    9d00:	0000d604 	.word	0x0000d604
    9d04:	0000d618 	.word	0x0000d618
    9d08:	0000d60c 	.word	0x0000d60c
    9d0c:	0000c8d0 	.word	0x0000c8d0

00009d10 <lfn_terminator>:
    9d10:	e5d03000 	ldrb	r3, [r0]
    9d14:	e3530000 	cmp	r3, #0
    9d18:	1a000002 	bne	9d28 <lfn_terminator+0x18>
    9d1c:	e5d02001 	ldrb	r2, [r0, #1]
    9d20:	e3520000 	cmp	r2, #0
    9d24:	0a000008 	beq	9d4c <lfn_terminator+0x3c>
    9d28:	e35300ff 	cmp	r3, #255	@ 0xff
    9d2c:	0a000001 	beq	9d38 <lfn_terminator+0x28>
    9d30:	e3a00000 	mov	r0, #0
    9d34:	e12fff1e 	bx	lr
    9d38:	e5d03001 	ldrb	r3, [r0, #1]
    9d3c:	e35300ff 	cmp	r3, #255	@ 0xff
    9d40:	0a000003 	beq	9d54 <lfn_terminator+0x44>
    9d44:	e3a00000 	mov	r0, #0
    9d48:	e12fff1e 	bx	lr
    9d4c:	e3a00001 	mov	r0, #1
    9d50:	e12fff1e 	bx	lr
    9d54:	e3a00001 	mov	r0, #1
    9d58:	e12fff1e 	bx	lr

00009d5c <utf8_append>:
    9d5c:	e92d41f0 	push	{r4, r5, r6, r7, r8, lr}
    9d60:	e24dd008 	sub	sp, sp, #8
    9d64:	e3120001 	tst	r2, #1
    9d68:	1a000017 	bne	9dcc <utf8_append+0x70>
    9d6c:	e1a06000 	mov	r6, r0
    9d70:	e1a07001 	mov	r7, r1
    9d74:	e1a08002 	mov	r8, r2
    9d78:	e3a05000 	mov	r5, #0
    9d7c:	e1550008 	cmp	r5, r8
    9d80:	2a000019 	bcs	9dec <utf8_append+0x90>
    9d84:	e0870005 	add	r0, r7, r5
    9d88:	ebffffe0 	bl	9d10 <lfn_terminator>
    9d8c:	e3500000 	cmp	r0, #0
    9d90:	1a000015 	bne	9dec <utf8_append+0x90>
    9d94:	e1a03007 	mov	r3, r7
    9d98:	e7f32005 	ldrb	r2, [r3, r5]!
    9d9c:	e5d30001 	ldrb	r0, [r3, #1]
    9da0:	e1820400 	orr	r0, r2, r0, lsl #8
    9da4:	eb000228 	bl	a64c <to_utf8>
    9da8:	e1a04000 	mov	r4, r0
    9dac:	e1a01000 	mov	r1, r0
    9db0:	e1a00006 	mov	r0, r6
    9db4:	eb00094d 	bl	c2f0 <strcat>
    9db8:	e1a00004 	mov	r0, r4
    9dbc:	eb000960 	bl	c344 <strlen>
    9dc0:	e0866000 	add	r6, r6, r0
    9dc4:	e2855002 	add	r5, r5, #2
    9dc8:	eaffffeb 	b	9d7c <utf8_append+0x20>
    9dcc:	e59f3024 	ldr	r3, [pc, #36]	@ 9df8 <utf8_append+0x9c>
    9dd0:	e58d3000 	str	r3, [sp]
    9dd4:	e3a03044 	mov	r3, #68	@ 0x44
    9dd8:	e59f201c 	ldr	r2, [pc, #28]	@ 9dfc <utf8_append+0xa0>
    9ddc:	e59f101c 	ldr	r1, [pc, #28]	@ 9e00 <utf8_append+0xa4>
    9de0:	e59f001c 	ldr	r0, [pc, #28]	@ 9e04 <utf8_append+0xa8>
    9de4:	eb00084b 	bl	bf18 <printk>
    9de8:	eb00095d 	bl	c364 <clean_reboot>
    9dec:	e1a00006 	mov	r0, r6
    9df0:	e28dd008 	add	sp, sp, #8
    9df4:	e8bd81f0 	pop	{r4, r5, r6, r7, r8, pc}
    9df8:	0000d634 	.word	0x0000d634
    9dfc:	0000e4ac 	.word	0x0000e4ac
    9e00:	0000d620 	.word	0x0000d620
    9e04:	0000c818 	.word	0x0000c818

00009e08 <is_attr>:
    9e08:	e350000f 	cmp	r0, #15
    9e0c:	0a000003 	beq	9e20 <is_attr+0x18>
    9e10:	e1d11000 	bics	r1, r1, r0
    9e14:	03a00001 	moveq	r0, #1
    9e18:	13a00000 	movne	r0, #0
    9e1c:	e12fff1e 	bx	lr
    9e20:	e1500001 	cmp	r0, r1
    9e24:	13a00000 	movne	r0, #0
    9e28:	03a00001 	moveq	r0, #1
    9e2c:	e12fff1e 	bx	lr

00009e30 <lfn_checksum>:
    9e30:	e1a03000 	mov	r3, r0
    9e34:	e3a0100b 	mov	r1, #11
    9e38:	e3a00000 	mov	r0, #0
    9e3c:	ea000005 	b	9e58 <lfn_checksum+0x28>
    9e40:	e1a02380 	lsl	r2, r0, #7
    9e44:	e18220a0 	orr	r2, r2, r0, lsr #1
    9e48:	e4d30001 	ldrb	r0, [r3], #1
    9e4c:	e6e02072 	uxtab	r2, r0, r2
    9e50:	e6ef0072 	uxtb	r0, r2
    9e54:	e2411001 	sub	r1, r1, #1
    9e58:	e3510000 	cmp	r1, #0
    9e5c:	1afffff7 	bne	9e40 <lfn_checksum+0x10>
    9e60:	e12fff1e 	bx	lr

00009e64 <lfn_is_last>:
    9e64:	e1a00320 	lsr	r0, r0, #6
    9e68:	e2000001 	and	r0, r0, #1
    9e6c:	e12fff1e 	bx	lr

00009e70 <lfn_is_first>:
    9e70:	e20000bf 	and	r0, r0, #191	@ 0xbf
    9e74:	e3500001 	cmp	r0, #1
    9e78:	13a00000 	movne	r0, #0
    9e7c:	03a00001 	moveq	r0, #1
    9e80:	e12fff1e 	bx	lr

00009e84 <lfn_is_deleted>:
    9e84:	e20000e5 	and	r0, r0, #229	@ 0xe5
    9e88:	e35000e5 	cmp	r0, #229	@ 0xe5
    9e8c:	13a00000 	movne	r0, #0
    9e90:	03a00001 	moveq	r0, #1
    9e94:	e12fff1e 	bx	lr

00009e98 <fat32_dirent_is_deleted_lfn>:
    9e98:	e52de004 	push	{lr}		@ (str lr, [sp, #-4]!)
    9e9c:	e24dd00c 	sub	sp, sp, #12
    9ea0:	e5d0300b 	ldrb	r3, [r0, #11]
    9ea4:	e353000f 	cmp	r3, #15
    9ea8:	1a000003 	bne	9ebc <fat32_dirent_is_deleted_lfn+0x24>
    9eac:	e5d00000 	ldrb	r0, [r0]
    9eb0:	ebfffff3 	bl	9e84 <lfn_is_deleted>
    9eb4:	e28dd00c 	add	sp, sp, #12
    9eb8:	e49df004 	pop	{pc}		@ (ldr pc, [sp], #4)
    9ebc:	e59f3018 	ldr	r3, [pc, #24]	@ 9edc <fat32_dirent_is_deleted_lfn+0x44>
    9ec0:	e58d3000 	str	r3, [sp]
    9ec4:	e3a03021 	mov	r3, #33	@ 0x21
    9ec8:	e59f2010 	ldr	r2, [pc, #16]	@ 9ee0 <fat32_dirent_is_deleted_lfn+0x48>
    9ecc:	e59f1010 	ldr	r1, [pc, #16]	@ 9ee4 <fat32_dirent_is_deleted_lfn+0x4c>
    9ed0:	e59f0010 	ldr	r0, [pc, #16]	@ 9ee8 <fat32_dirent_is_deleted_lfn+0x50>
    9ed4:	eb00080f 	bl	bf18 <printk>
    9ed8:	eb000921 	bl	c364 <clean_reboot>
    9edc:	0000d644 	.word	0x0000d644
    9ee0:	0000e4b8 	.word	0x0000e4b8
    9ee4:	0000d620 	.word	0x0000d620
    9ee8:	0000c818 	.word	0x0000c818

00009eec <lfn_print_ent>:
    9eec:	e92d43f0 	push	{r4, r5, r6, r7, r8, r9, lr}
    9ef0:	e24dd02c 	sub	sp, sp, #44	@ 0x2c
    9ef4:	e1a05000 	mov	r5, r0
    9ef8:	e1a06001 	mov	r6, r1
    9efc:	e1a07000 	mov	r7, r0
    9f00:	e4d74001 	ldrb	r4, [r7], #1
    9f04:	e1a00004 	mov	r0, r4
    9f08:	ebffffd8 	bl	9e70 <lfn_is_first>
    9f0c:	e1a08000 	mov	r8, r0
    9f10:	e1a00004 	mov	r0, r4
    9f14:	ebffffd2 	bl	9e64 <lfn_is_last>
    9f18:	e1a09000 	mov	r9, r0
    9f1c:	e1a00004 	mov	r0, r4
    9f20:	ebffffd7 	bl	9e84 <lfn_is_deleted>
    9f24:	e58d0000 	str	r0, [sp]
    9f28:	e1a03009 	mov	r3, r9
    9f2c:	e1a02008 	mov	r2, r8
    9f30:	e1a01004 	mov	r1, r4
    9f34:	e59f0098 	ldr	r0, [pc, #152]	@ 9fd4 <lfn_print_ent+0xe8>
    9f38:	eb0007f6 	bl	bf18 <printk>
    9f3c:	e3a0200a 	mov	r2, #10
    9f40:	e1a01007 	mov	r1, r7
    9f44:	e28d000c 	add	r0, sp, #12
    9f48:	eb000795 	bl	bda4 <memcpy>
    9f4c:	e3a0200c 	mov	r2, #12
    9f50:	e285100e 	add	r1, r5, #14
    9f54:	e28d0016 	add	r0, sp, #22
    9f58:	eb000791 	bl	bda4 <memcpy>
    9f5c:	e3a02004 	mov	r2, #4
    9f60:	e285101c 	add	r1, r5, #28
    9f64:	e28d0022 	add	r0, sp, #34	@ 0x22
    9f68:	eb00078d 	bl	bda4 <memcpy>
    9f6c:	e3a04000 	mov	r4, #0
    9f70:	e5cd4026 	strb	r4, [sp, #38]	@ 0x26
    9f74:	ea000004 	b	9f8c <lfn_print_ent+0xa0>
    9f78:	e1a03002 	mov	r3, r2
    9f7c:	e1a01004 	mov	r1, r4
    9f80:	e59f0050 	ldr	r0, [pc, #80]	@ 9fd8 <lfn_print_ent+0xec>
    9f84:	eb0007e3 	bl	bf18 <printk>
    9f88:	e2844002 	add	r4, r4, #2
    9f8c:	e3540019 	cmp	r4, #25
    9f90:	ca000009 	bgt	9fbc <lfn_print_ent+0xd0>
    9f94:	e2843028 	add	r3, r4, #40	@ 0x28
    9f98:	e08d3003 	add	r3, sp, r3
    9f9c:	e553201c 	ldrb	r2, [r3, #-28]	@ 0xffffffe4
    9fa0:	e3520000 	cmp	r2, #0
    9fa4:	1afffff3 	bne	9f78 <lfn_print_ent+0x8c>
    9fa8:	e2843029 	add	r3, r4, #41	@ 0x29
    9fac:	e08d3003 	add	r3, sp, r3
    9fb0:	e553301c 	ldrb	r3, [r3, #-28]	@ 0xffffffe4
    9fb4:	e3530000 	cmp	r3, #0
    9fb8:	1affffee 	bne	9f78 <lfn_print_ent+0x8c>
    9fbc:	e1a02006 	mov	r2, r6
    9fc0:	e5d5100d 	ldrb	r1, [r5, #13]
    9fc4:	e59f0010 	ldr	r0, [pc, #16]	@ 9fdc <lfn_print_ent+0xf0>
    9fc8:	eb0007d2 	bl	bf18 <printk>
    9fcc:	e28dd02c 	add	sp, sp, #44	@ 0x2c
    9fd0:	e8bd83f0 	pop	{r4, r5, r6, r7, r8, r9, pc}
    9fd4:	0000d664 	.word	0x0000d664
    9fd8:	0000d690 	.word	0x0000d690
    9fdc:	0000d6a8 	.word	0x0000d6a8

00009fe0 <lfn_get_name>:
    9fe0:	e92d4070 	push	{r4, r5, r6, lr}
    9fe4:	e24dd008 	sub	sp, sp, #8
    9fe8:	e1a06000 	mov	r6, r0
    9fec:	e59f0080 	ldr	r0, [pc, #128]	@ a074 <lfn_get_name+0x94>
    9ff0:	e3a03000 	mov	r3, #0
    9ff4:	e5c03000 	strb	r3, [r0]
    9ff8:	e2415001 	sub	r5, r1, #1
    9ffc:	e3550000 	cmp	r5, #0
    a000:	ba000016 	blt	a060 <lfn_get_name+0x80>
    a004:	e0864285 	add	r4, r6, r5, lsl #5
    a008:	e5d4300b 	ldrb	r3, [r4, #11]
    a00c:	e353000f 	cmp	r3, #15
    a010:	1a00000a 	bne	a040 <lfn_get_name+0x60>
    a014:	e3a0200a 	mov	r2, #10
    a018:	e2841001 	add	r1, r4, #1
    a01c:	ebffff4e 	bl	9d5c <utf8_append>
    a020:	e3a0200c 	mov	r2, #12
    a024:	e284100e 	add	r1, r4, #14
    a028:	ebffff4b 	bl	9d5c <utf8_append>
    a02c:	e3a02004 	mov	r2, #4
    a030:	e284101c 	add	r1, r4, #28
    a034:	ebffff48 	bl	9d5c <utf8_append>
    a038:	e2455001 	sub	r5, r5, #1
    a03c:	eaffffee 	b	9ffc <lfn_get_name+0x1c>
    a040:	e59f3030 	ldr	r3, [pc, #48]	@ a078 <lfn_get_name+0x98>
    a044:	e58d3000 	str	r3, [sp]
    a048:	e3a03055 	mov	r3, #85	@ 0x55
    a04c:	e59f2028 	ldr	r2, [pc, #40]	@ a07c <lfn_get_name+0x9c>
    a050:	e59f1028 	ldr	r1, [pc, #40]	@ a080 <lfn_get_name+0xa0>
    a054:	e59f0028 	ldr	r0, [pc, #40]	@ a084 <lfn_get_name+0xa4>
    a058:	eb0007ae 	bl	bf18 <printk>
    a05c:	eb0008c0 	bl	c364 <clean_reboot>
    a060:	e3a03000 	mov	r3, #0
    a064:	e5c03000 	strb	r3, [r0]
    a068:	e59f0004 	ldr	r0, [pc, #4]	@ a074 <lfn_get_name+0x94>
    a06c:	e28dd008 	add	sp, sp, #8
    a070:	e8bd8070 	pop	{r4, r5, r6, pc}
    a074:	0000ee00 	.word	0x0000ee00
    a078:	0000d6c4 	.word	0x0000d6c4
    a07c:	0000e4d4 	.word	0x0000e4d4
    a080:	0000d620 	.word	0x0000d620
    a084:	0000c818 	.word	0x0000c818

0000a088 <lfn_print>:
    a088:	e92d43f0 	push	{r4, r5, r6, r7, r8, r9, lr}
    a08c:	e24dd00c 	sub	sp, sp, #12
    a090:	e2518000 	subs	r8, r1, #0
    a094:	da000007 	ble	a0b8 <lfn_print+0x30>
    a098:	e1a06000 	mov	r6, r0
    a09c:	e1a07002 	mov	r7, r2
    a0a0:	e1a09003 	mov	r9, r3
    a0a4:	e2483001 	sub	r3, r8, #1
    a0a8:	e3530001 	cmp	r3, #1
    a0ac:	8a000009 	bhi	a0d8 <lfn_print+0x50>
    a0b0:	e3a04000 	mov	r4, #0
    a0b4:	ea00001b 	b	a128 <lfn_print+0xa0>
    a0b8:	e59f3134 	ldr	r3, [pc, #308]	@ a1f4 <lfn_print+0x16c>
    a0bc:	e58d3000 	str	r3, [sp]
    a0c0:	e3a0305f 	mov	r3, #95	@ 0x5f
    a0c4:	e59f212c 	ldr	r2, [pc, #300]	@ a1f8 <lfn_print+0x170>
    a0c8:	e59f112c 	ldr	r1, [pc, #300]	@ a1fc <lfn_print+0x174>
    a0cc:	e59f012c 	ldr	r0, [pc, #300]	@ a200 <lfn_print+0x178>
    a0d0:	eb000790 	bl	bf18 <printk>
    a0d4:	eb0008a2 	bl	c364 <clean_reboot>
    a0d8:	e59f3124 	ldr	r3, [pc, #292]	@ a204 <lfn_print+0x17c>
    a0dc:	e58d3000 	str	r3, [sp]
    a0e0:	e3a03062 	mov	r3, #98	@ 0x62
    a0e4:	e59f210c 	ldr	r2, [pc, #268]	@ a1f8 <lfn_print+0x170>
    a0e8:	e59f110c 	ldr	r1, [pc, #268]	@ a1fc <lfn_print+0x174>
    a0ec:	e59f0114 	ldr	r0, [pc, #276]	@ a208 <lfn_print+0x180>
    a0f0:	eb000788 	bl	bf18 <printk>
    a0f4:	eb00089a 	bl	c364 <clean_reboot>
    a0f8:	e59f310c 	ldr	r3, [pc, #268]	@ a20c <lfn_print+0x184>
    a0fc:	e58d3000 	str	r3, [sp]
    a100:	e3a03064 	mov	r3, #100	@ 0x64
    a104:	e59f20ec 	ldr	r2, [pc, #236]	@ a1f8 <lfn_print+0x170>
    a108:	e59f10ec 	ldr	r1, [pc, #236]	@ a1fc <lfn_print+0x174>
    a10c:	e59f00ec 	ldr	r0, [pc, #236]	@ a200 <lfn_print+0x178>
    a110:	eb000780 	bl	bf18 <printk>
    a114:	eb000892 	bl	c364 <clean_reboot>
    a118:	e5d5000d 	ldrb	r0, [r5, #13]
    a11c:	e1500007 	cmp	r0, r7
    a120:	1a000010 	bne	a168 <lfn_print+0xe0>
    a124:	e2844001 	add	r4, r4, #1
    a128:	e1540008 	cmp	r4, r8
    a12c:	aa000015 	bge	a188 <lfn_print+0x100>
    a130:	e0865284 	add	r5, r6, r4, lsl #5
    a134:	e7d60284 	ldrb	r0, [r6, r4, lsl #5]
    a138:	ebffff51 	bl	9e84 <lfn_is_deleted>
    a13c:	e3500000 	cmp	r0, #0
    a140:	1affffec 	bne	a0f8 <lfn_print+0x70>
    a144:	e3590000 	cmp	r9, #0
    a148:	0afffff2 	beq	a118 <lfn_print+0x90>
    a14c:	e1a01004 	mov	r1, r4
    a150:	e59f00b8 	ldr	r0, [pc, #184]	@ a210 <lfn_print+0x188>
    a154:	eb00076f 	bl	bf18 <printk>
    a158:	e1a01007 	mov	r1, r7
    a15c:	e1a00005 	mov	r0, r5
    a160:	ebffff61 	bl	9eec <lfn_print_ent>
    a164:	eaffffeb 	b	a118 <lfn_print+0x90>
    a168:	e59f30a4 	ldr	r3, [pc, #164]	@ a214 <lfn_print+0x18c>
    a16c:	e58d3000 	str	r3, [sp]
    a170:	e3a03069 	mov	r3, #105	@ 0x69
    a174:	e59f207c 	ldr	r2, [pc, #124]	@ a1f8 <lfn_print+0x170>
    a178:	e59f107c 	ldr	r1, [pc, #124]	@ a1fc <lfn_print+0x174>
    a17c:	e59f007c 	ldr	r0, [pc, #124]	@ a200 <lfn_print+0x178>
    a180:	eb000764 	bl	bf18 <printk>
    a184:	eb000876 	bl	c364 <clean_reboot>
    a188:	e5d60000 	ldrb	r0, [r6]
    a18c:	ebffff34 	bl	9e64 <lfn_is_last>
    a190:	e3500000 	cmp	r0, #0
    a194:	0a000006 	beq	a1b4 <lfn_print+0x12c>
    a198:	e248837e 	sub	r8, r8, #-134217727	@ 0xf8000001
    a19c:	e7d60288 	ldrb	r0, [r6, r8, lsl #5]
    a1a0:	ebffff32 	bl	9e70 <lfn_is_first>
    a1a4:	e3500000 	cmp	r0, #0
    a1a8:	0a000009 	beq	a1d4 <lfn_print+0x14c>
    a1ac:	e28dd00c 	add	sp, sp, #12
    a1b0:	e8bd83f0 	pop	{r4, r5, r6, r7, r8, r9, pc}
    a1b4:	e59f305c 	ldr	r3, [pc, #92]	@ a218 <lfn_print+0x190>
    a1b8:	e58d3000 	str	r3, [sp]
    a1bc:	e3a0306b 	mov	r3, #107	@ 0x6b
    a1c0:	e59f2030 	ldr	r2, [pc, #48]	@ a1f8 <lfn_print+0x170>
    a1c4:	e59f1030 	ldr	r1, [pc, #48]	@ a1fc <lfn_print+0x174>
    a1c8:	e59f0030 	ldr	r0, [pc, #48]	@ a200 <lfn_print+0x178>
    a1cc:	eb000751 	bl	bf18 <printk>
    a1d0:	eb000863 	bl	c364 <clean_reboot>
    a1d4:	e59f3040 	ldr	r3, [pc, #64]	@ a21c <lfn_print+0x194>
    a1d8:	e58d3000 	str	r3, [sp]
    a1dc:	e3a0306c 	mov	r3, #108	@ 0x6c
    a1e0:	e59f2010 	ldr	r2, [pc, #16]	@ a1f8 <lfn_print+0x170>
    a1e4:	e59f1010 	ldr	r1, [pc, #16]	@ a1fc <lfn_print+0x174>
    a1e8:	e59f0010 	ldr	r0, [pc, #16]	@ a200 <lfn_print+0x178>
    a1ec:	eb000749 	bl	bf18 <printk>
    a1f0:	eb00085b 	bl	c364 <clean_reboot>
    a1f4:	0000d6e4 	.word	0x0000d6e4
    a1f8:	0000e4e4 	.word	0x0000e4e4
    a1fc:	0000d620 	.word	0x0000d620
    a200:	0000c818 	.word	0x0000c818
    a204:	0000d738 	.word	0x0000d738
    a208:	0000d6f0 	.word	0x0000d6f0
    a20c:	0000d74c 	.word	0x0000d74c
    a210:	0000d76c 	.word	0x0000d76c
    a214:	0000d778 	.word	0x0000d778
    a218:	0000d78c 	.word	0x0000d78c
    a21c:	0000d7a4 	.word	0x0000d7a4

0000a220 <fat32_dir_filename>:
    a220:	e92d41f0 	push	{r4, r5, r6, r7, r8, lr}
    a224:	e24dd008 	sub	sp, sp, #8
    a228:	e1a06000 	mov	r6, r0
    a22c:	e1a05001 	mov	r5, r1
    a230:	e1a07002 	mov	r7, r2
    a234:	e1a00001 	mov	r0, r1
    a238:	ebfffcee 	bl	95f8 <fat32_dirent_free>
    a23c:	e2504000 	subs	r4, r0, #0
    a240:	1a000017 	bne	a2a4 <fat32_dir_filename+0x84>
    a244:	e5d5800b 	ldrb	r8, [r5, #11]
    a248:	e358000f 	cmp	r8, #15
    a24c:	0a00001c 	beq	a2c4 <fat32_dir_filename+0xa4>
    a250:	e3a01010 	mov	r1, #16
    a254:	e1a00008 	mov	r0, r8
    a258:	ebfffeea 	bl	9e08 <is_attr>
    a25c:	e3500000 	cmp	r0, #0
    a260:	1a000009 	bne	a28c <fat32_dir_filename+0x6c>
    a264:	e3a01020 	mov	r1, #32
    a268:	e1a00008 	mov	r0, r8
    a26c:	ebfffee5 	bl	9e08 <is_attr>
    a270:	e3500000 	cmp	r0, #0
    a274:	1a000004 	bne	a28c <fat32_dir_filename+0x6c>
    a278:	e3a01008 	mov	r1, #8
    a27c:	e1a00008 	mov	r0, r8
    a280:	ebfffee0 	bl	9e08 <is_attr>
    a284:	e3500000 	cmp	r0, #0
    a288:	0a00003c 	beq	a380 <fat32_dir_filename+0x160>
    a28c:	e5d5300c 	ldrb	r3, [r5, #12]
    a290:	e3530018 	cmp	r3, #24
    a294:	0a000052 	beq	a3e4 <fat32_dir_filename+0x1c4>
    a298:	e1a00004 	mov	r0, r4
    a29c:	e1a02004 	mov	r2, r4
    a2a0:	ea000041 	b	a3ac <fat32_dir_filename+0x18c>
    a2a4:	e59f31a4 	ldr	r3, [pc, #420]	@ a450 <fat32_dir_filename+0x230>
    a2a8:	e58d3000 	str	r3, [sp]
    a2ac:	e3a03071 	mov	r3, #113	@ 0x71
    a2b0:	e59f219c 	ldr	r2, [pc, #412]	@ a454 <fat32_dir_filename+0x234>
    a2b4:	e59f119c 	ldr	r1, [pc, #412]	@ a458 <fat32_dir_filename+0x238>
    a2b8:	e59f019c 	ldr	r0, [pc, #412]	@ a45c <fat32_dir_filename+0x23c>
    a2bc:	eb000715 	bl	bf18 <printk>
    a2c0:	eb000827 	bl	c364 <clean_reboot>
    a2c4:	e0472005 	sub	r2, r7, r5
    a2c8:	e1a032c2 	asr	r3, r2, #5
    a2cc:	e3a04001 	mov	r4, #1
    a2d0:	e1540003 	cmp	r4, r3
    a2d4:	aa000004 	bge	a2ec <fat32_dir_filename+0xcc>
    a2d8:	e0852284 	add	r2, r5, r4, lsl #5
    a2dc:	e5d2200b 	ldrb	r2, [r2, #11]
    a2e0:	e352000f 	cmp	r2, #15
    a2e4:	02844001 	addeq	r4, r4, #1
    a2e8:	0afffff8 	beq	a2d0 <fat32_dir_filename+0xb0>
    a2ec:	e1540003 	cmp	r4, r3
    a2f0:	aa000012 	bge	a340 <fat32_dir_filename+0x120>
    a2f4:	e0857284 	add	r7, r5, r4, lsl #5
    a2f8:	e5d7800b 	ldrb	r8, [r7, #11]
    a2fc:	e3a01010 	mov	r1, #16
    a300:	e1a00008 	mov	r0, r8
    a304:	ebfffebf 	bl	9e08 <is_attr>
    a308:	e3500000 	cmp	r0, #0
    a30c:	1a000004 	bne	a324 <fat32_dir_filename+0x104>
    a310:	e3a01020 	mov	r1, #32
    a314:	e1a00008 	mov	r0, r8
    a318:	ebfffeba 	bl	9e08 <is_attr>
    a31c:	e3500000 	cmp	r0, #0
    a320:	0a00000e 	beq	a360 <fat32_dir_filename+0x140>
    a324:	e1a01004 	mov	r1, r4
    a328:	e1a00005 	mov	r0, r5
    a32c:	ebffff2b 	bl	9fe0 <lfn_get_name>
    a330:	e1a01000 	mov	r1, r0
    a334:	e1a00006 	mov	r0, r6
    a338:	eb0007f9 	bl	c324 <strcpy>
    a33c:	ea000040 	b	a444 <fat32_dir_filename+0x224>
    a340:	e59f3118 	ldr	r3, [pc, #280]	@ a460 <fat32_dir_filename+0x240>
    a344:	e58d3000 	str	r3, [sp]
    a348:	e3a0307a 	mov	r3, #122	@ 0x7a
    a34c:	e59f2100 	ldr	r2, [pc, #256]	@ a454 <fat32_dir_filename+0x234>
    a350:	e59f1100 	ldr	r1, [pc, #256]	@ a458 <fat32_dir_filename+0x238>
    a354:	e59f0100 	ldr	r0, [pc, #256]	@ a45c <fat32_dir_filename+0x23c>
    a358:	eb0006ee 	bl	bf18 <printk>
    a35c:	eb000800 	bl	c364 <clean_reboot>
    a360:	e59f30fc 	ldr	r3, [pc, #252]	@ a464 <fat32_dir_filename+0x244>
    a364:	e58d3000 	str	r3, [sp]
    a368:	e3a0307b 	mov	r3, #123	@ 0x7b
    a36c:	e59f20e0 	ldr	r2, [pc, #224]	@ a454 <fat32_dir_filename+0x234>
    a370:	e59f10e0 	ldr	r1, [pc, #224]	@ a458 <fat32_dir_filename+0x238>
    a374:	e59f00e0 	ldr	r0, [pc, #224]	@ a45c <fat32_dir_filename+0x23c>
    a378:	eb0006e6 	bl	bf18 <printk>
    a37c:	eb0007f8 	bl	c364 <clean_reboot>
    a380:	e59f30e0 	ldr	r3, [pc, #224]	@ a468 <fat32_dir_filename+0x248>
    a384:	e58d3000 	str	r3, [sp]
    a388:	e3a0307f 	mov	r3, #127	@ 0x7f
    a38c:	e59f20c0 	ldr	r2, [pc, #192]	@ a454 <fat32_dir_filename+0x234>
    a390:	e59f10c0 	ldr	r1, [pc, #192]	@ a458 <fat32_dir_filename+0x238>
    a394:	e59f00c0 	ldr	r0, [pc, #192]	@ a45c <fat32_dir_filename+0x23c>
    a398:	eb0006de 	bl	bf18 <printk>
    a39c:	eb0007f0 	bl	c364 <clean_reboot>
    a3a0:	e7c63002 	strb	r3, [r6, r2]
    a3a4:	e2822001 	add	r2, r2, #1
    a3a8:	e2844001 	add	r4, r4, #1
    a3ac:	e3540007 	cmp	r4, #7
    a3b0:	ca00000d 	bgt	a3ec <fat32_dir_filename+0x1cc>
    a3b4:	e7d53004 	ldrb	r3, [r5, r4]
    a3b8:	e3530020 	cmp	r3, #32
    a3bc:	0afffff9 	beq	a3a8 <fat32_dir_filename+0x188>
    a3c0:	e3530040 	cmp	r3, #64	@ 0x40
    a3c4:	93a01000 	movls	r1, #0
    a3c8:	82001001 	andhi	r1, r0, #1
    a3cc:	e3510000 	cmp	r1, #0
    a3d0:	0afffff2 	beq	a3a0 <fat32_dir_filename+0x180>
    a3d4:	e353005a 	cmp	r3, #90	@ 0x5a
    a3d8:	92833020 	addls	r3, r3, #32
    a3dc:	96ef3073 	uxtbls	r3, r3
    a3e0:	eaffffee 	b	a3a0 <fat32_dir_filename+0x180>
    a3e4:	e3a00001 	mov	r0, #1
    a3e8:	eaffffab 	b	a29c <fat32_dir_filename+0x7c>
    a3ec:	e2821001 	add	r1, r2, #1
    a3f0:	e3a0302e 	mov	r3, #46	@ 0x2e
    a3f4:	e7c63002 	strb	r3, [r6, r2]
    a3f8:	ea000002 	b	a408 <fat32_dir_filename+0x1e8>
    a3fc:	e7c63001 	strb	r3, [r6, r1]
    a400:	e2844001 	add	r4, r4, #1
    a404:	e2811001 	add	r1, r1, #1
    a408:	e354000a 	cmp	r4, #10
    a40c:	ca000009 	bgt	a438 <fat32_dir_filename+0x218>
    a410:	e7d53004 	ldrb	r3, [r5, r4]
    a414:	e3530040 	cmp	r3, #64	@ 0x40
    a418:	93a02000 	movls	r2, #0
    a41c:	82002001 	andhi	r2, r0, #1
    a420:	e3520000 	cmp	r2, #0
    a424:	0afffff4 	beq	a3fc <fat32_dir_filename+0x1dc>
    a428:	e353005a 	cmp	r3, #90	@ 0x5a
    a42c:	92833020 	addls	r3, r3, #32
    a430:	96ef3073 	uxtbls	r3, r3
    a434:	eafffff0 	b	a3fc <fat32_dir_filename+0x1dc>
    a438:	e3a03000 	mov	r3, #0
    a43c:	e7c63001 	strb	r3, [r6, r1]
    a440:	e1a07005 	mov	r7, r5
    a444:	e1a00007 	mov	r0, r7
    a448:	e28dd008 	add	sp, sp, #8
    a44c:	e8bd81f0 	pop	{r4, r5, r6, r7, r8, pc}
    a450:	0000d7c4 	.word	0x0000d7c4
    a454:	0000e4f0 	.word	0x0000e4f0
    a458:	0000d620 	.word	0x0000d620
    a45c:	0000c818 	.word	0x0000c818
    a460:	0000d7dc 	.word	0x0000d7dc
    a464:	0000d7e4 	.word	0x0000d7e4
    a468:	0000d82c 	.word	0x0000d82c

0000a46c <fat32_lfn_print>:
    a46c:	e92d40f0 	push	{r4, r5, r6, r7, lr}
    a470:	e24dd00c 	sub	sp, sp, #12
    a474:	e1a05001 	mov	r5, r1
    a478:	e5d1300b 	ldrb	r3, [r1, #11]
    a47c:	e353000f 	cmp	r3, #15
    a480:	0a000004 	beq	a498 <fat32_lfn_print+0x2c>
    a484:	ebfffdb5 	bl	9b60 <fat32_dirent_print>
    a488:	e3a04001 	mov	r4, #1
    a48c:	e1a00004 	mov	r0, r4
    a490:	e28dd00c 	add	sp, sp, #12
    a494:	e8bd80f0 	pop	{r4, r5, r6, r7, pc}
    a498:	e1a06002 	mov	r6, r2
    a49c:	e1a01000 	mov	r1, r0
    a4a0:	e59f00e8 	ldr	r0, [pc, #232]	@ a590 <fat32_lfn_print+0x124>
    a4a4:	eb00069b 	bl	bf18 <printk>
    a4a8:	e3a04000 	mov	r4, #0
    a4ac:	ea000000 	b	a4b4 <fat32_lfn_print+0x48>
    a4b0:	e2844001 	add	r4, r4, #1
    a4b4:	e1540006 	cmp	r4, r6
    a4b8:	aa000003 	bge	a4cc <fat32_lfn_print+0x60>
    a4bc:	e0853284 	add	r3, r5, r4, lsl #5
    a4c0:	e5d3300b 	ldrb	r3, [r3, #11]
    a4c4:	e353000f 	cmp	r3, #15
    a4c8:	0afffff8 	beq	a4b0 <fat32_lfn_print+0x44>
    a4cc:	e1540006 	cmp	r4, r6
    a4d0:	aa00001e 	bge	a550 <fat32_lfn_print+0xe4>
    a4d4:	e0856284 	add	r6, r5, r4, lsl #5
    a4d8:	e5d6700b 	ldrb	r7, [r6, #11]
    a4dc:	e3a01010 	mov	r1, #16
    a4e0:	e1a00007 	mov	r0, r7
    a4e4:	ebfffe47 	bl	9e08 <is_attr>
    a4e8:	e3500000 	cmp	r0, #0
    a4ec:	1a000004 	bne	a504 <fat32_lfn_print+0x98>
    a4f0:	e3a01020 	mov	r1, #32
    a4f4:	e1a00007 	mov	r0, r7
    a4f8:	ebfffe42 	bl	9e08 <is_attr>
    a4fc:	e3500000 	cmp	r0, #0
    a500:	0a00001a 	beq	a570 <fat32_lfn_print+0x104>
    a504:	e59f0088 	ldr	r0, [pc, #136]	@ a594 <fat32_lfn_print+0x128>
    a508:	eb000682 	bl	bf18 <printk>
    a50c:	e1a00006 	mov	r0, r6
    a510:	ebfffe46 	bl	9e30 <lfn_checksum>
    a514:	e1a02000 	mov	r2, r0
    a518:	e3a03000 	mov	r3, #0
    a51c:	e1a01004 	mov	r1, r4
    a520:	e1a00005 	mov	r0, r5
    a524:	ebfffed7 	bl	a088 <lfn_print>
    a528:	e1a01004 	mov	r1, r4
    a52c:	e1a00005 	mov	r0, r5
    a530:	ebfffeaa 	bl	9fe0 <lfn_get_name>
    a534:	e1a01000 	mov	r1, r0
    a538:	e59f0058 	ldr	r0, [pc, #88]	@ a598 <fat32_lfn_print+0x12c>
    a53c:	eb000675 	bl	bf18 <printk>
    a540:	e2844001 	add	r4, r4, #1
    a544:	e1a00006 	mov	r0, r6
    a548:	ebfffd04 	bl	9960 <fat32_dirent_print_helper>
    a54c:	eaffffce 	b	a48c <fat32_lfn_print+0x20>
    a550:	e59f3044 	ldr	r3, [pc, #68]	@ a59c <fat32_lfn_print+0x130>
    a554:	e58d3000 	str	r3, [sp]
    a558:	e3a030ac 	mov	r3, #172	@ 0xac
    a55c:	e59f203c 	ldr	r2, [pc, #60]	@ a5a0 <fat32_lfn_print+0x134>
    a560:	e59f103c 	ldr	r1, [pc, #60]	@ a5a4 <fat32_lfn_print+0x138>
    a564:	e59f003c 	ldr	r0, [pc, #60]	@ a5a8 <fat32_lfn_print+0x13c>
    a568:	eb00066a 	bl	bf18 <printk>
    a56c:	eb00077c 	bl	c364 <clean_reboot>
    a570:	e59f3034 	ldr	r3, [pc, #52]	@ a5ac <fat32_lfn_print+0x140>
    a574:	e58d3000 	str	r3, [sp]
    a578:	e3a030ad 	mov	r3, #173	@ 0xad
    a57c:	e59f201c 	ldr	r2, [pc, #28]	@ a5a0 <fat32_lfn_print+0x134>
    a580:	e59f101c 	ldr	r1, [pc, #28]	@ a5a4 <fat32_lfn_print+0x138>
    a584:	e59f001c 	ldr	r0, [pc, #28]	@ a5a8 <fat32_lfn_print+0x13c>
    a588:	eb000662 	bl	bf18 <printk>
    a58c:	eb000774 	bl	c364 <clean_reboot>
    a590:	0000d5fc 	.word	0x0000d5fc
    a594:	0000c8d0 	.word	0x0000c8d0
    a598:	0000d890 	.word	0x0000d890
    a59c:	0000d884 	.word	0x0000d884
    a5a0:	0000e504 	.word	0x0000e504
    a5a4:	0000d620 	.word	0x0000d620
    a5a8:	0000c818 	.word	0x0000c818
    a5ac:	0000d7e4 	.word	0x0000d7e4

0000a5b0 <codepoint_len>:
    a5b0:	e1a0c000 	mov	ip, r0
    a5b4:	e59f2040 	ldr	r2, [pc, #64]	@ a5fc <codepoint_len+0x4c>
    a5b8:	e3a00000 	mov	r0, #0
    a5bc:	ea000001 	b	a5c8 <codepoint_len+0x18>
    a5c0:	e2800001 	add	r0, r0, #1
    a5c4:	e2822004 	add	r2, r2, #4
    a5c8:	e5923000 	ldr	r3, [r2]
    a5cc:	e3530000 	cmp	r3, #0
    a5d0:	0a000005 	beq	a5ec <codepoint_len+0x3c>
    a5d4:	e5931004 	ldr	r1, [r3, #4]
    a5d8:	e151000c 	cmp	r1, ip
    a5dc:	8afffff7 	bhi	a5c0 <codepoint_len+0x10>
    a5e0:	e5933008 	ldr	r3, [r3, #8]
    a5e4:	e153000c 	cmp	r3, ip
    a5e8:	3afffff4 	bcc	a5c0 <codepoint_len+0x10>
    a5ec:	e3500004 	cmp	r0, #4
    a5f0:	d12fff1e 	bxle	lr
    a5f4:	e3e00000 	mvn	r0, #0
    a5f8:	e12fff1e 	bx	lr
    a5fc:	0000eaec 	.word	0x0000eaec

0000a600 <utf8_len>:
    a600:	e1a0c000 	mov	ip, r0
    a604:	e59f103c 	ldr	r1, [pc, #60]	@ a648 <utf8_len+0x48>
    a608:	e3a00000 	mov	r0, #0
    a60c:	ea000001 	b	a618 <utf8_len+0x18>
    a610:	e2800001 	add	r0, r0, #1
    a614:	e2811004 	add	r1, r1, #4
    a618:	e5913000 	ldr	r3, [r1]
    a61c:	e3530000 	cmp	r3, #0
    a620:	0a000004 	beq	a638 <utf8_len+0x38>
    a624:	e5d32000 	ldrb	r2, [r3]
    a628:	e1cc2002 	bic	r2, ip, r2
    a62c:	e5d33001 	ldrb	r3, [r3, #1]
    a630:	e1520003 	cmp	r2, r3
    a634:	1afffff5 	bne	a610 <utf8_len+0x10>
    a638:	e3500004 	cmp	r0, #4
    a63c:	d12fff1e 	bxle	lr
    a640:	e3e00000 	mvn	r0, #0
    a644:	e12fff1e 	bx	lr
    a648:	0000eaec 	.word	0x0000eaec

0000a64c <to_utf8>:
    a64c:	e92d4070 	push	{r4, r5, r6, lr}
    a650:	e1a04000 	mov	r4, r0
    a654:	ebffffd5 	bl	a5b0 <codepoint_len>
    a658:	e250c000 	subs	ip, r0, #0
    a65c:	ba00001c 	blt	a6d4 <to_utf8+0x88>
    a660:	e59f3074 	ldr	r3, [pc, #116]	@ a6dc <to_utf8+0x90>
    a664:	e5930000 	ldr	r0, [r3]
    a668:	e590500c 	ldr	r5, [r0, #12]
    a66c:	e24c1001 	sub	r1, ip, #1
    a670:	e0010591 	mul	r1, r1, r5
    a674:	e793210c 	ldr	r2, [r3, ip, lsl #2]
    a678:	e5d23000 	ldrb	r3, [r2]
    a67c:	e0033134 	and	r3, r3, r4, lsr r1
    a680:	e5d22001 	ldrb	r2, [r2, #1]
    a684:	e1833002 	orr	r3, r3, r2
    a688:	e59f2050 	ldr	r2, [pc, #80]	@ a6e0 <to_utf8+0x94>
    a68c:	e5c23000 	strb	r3, [r2]
    a690:	e0411005 	sub	r1, r1, r5
    a694:	e3a02001 	mov	r2, #1
    a698:	ea000007 	b	a6bc <to_utf8+0x70>
    a69c:	e5d03000 	ldrb	r3, [r0]
    a6a0:	e0033134 	and	r3, r3, r4, lsr r1
    a6a4:	e5d0e001 	ldrb	lr, [r0, #1]
    a6a8:	e183300e 	orr	r3, r3, lr
    a6ac:	e59fe02c 	ldr	lr, [pc, #44]	@ a6e0 <to_utf8+0x94>
    a6b0:	e7ce3002 	strb	r3, [lr, r2]
    a6b4:	e0411005 	sub	r1, r1, r5
    a6b8:	e2822001 	add	r2, r2, #1
    a6bc:	e152000c 	cmp	r2, ip
    a6c0:	bafffff5 	blt	a69c <to_utf8+0x50>
    a6c4:	e59f0014 	ldr	r0, [pc, #20]	@ a6e0 <to_utf8+0x94>
    a6c8:	e3a03000 	mov	r3, #0
    a6cc:	e7c0300c 	strb	r3, [r0, ip]
    a6d0:	e8bd8070 	pop	{r4, r5, r6, pc}
    a6d4:	e3a00000 	mov	r0, #0
    a6d8:	e8bd8070 	pop	{r4, r5, r6, pc}
    a6dc:	0000eaec 	.word	0x0000eaec
    a6e0:	0000f000 	.word	0x0000f000

0000a6e4 <to_cp>:
    a6e4:	e92d41f0 	push	{r4, r5, r6, r7, r8, lr}
    a6e8:	e1a05000 	mov	r5, r0
    a6ec:	e5d04000 	ldrb	r4, [r0]
    a6f0:	e1a00004 	mov	r0, r4
    a6f4:	ebffffc1 	bl	a600 <utf8_len>
    a6f8:	e2506000 	subs	r6, r0, #0
    a6fc:	ba000014 	blt	a754 <to_cp+0x70>
    a700:	e59f3054 	ldr	r3, [pc, #84]	@ a75c <to_cp+0x78>
    a704:	e5938000 	ldr	r8, [r3]
    a708:	e598700c 	ldr	r7, [r8, #12]
    a70c:	e2462001 	sub	r2, r6, #1
    a710:	e0020792 	mul	r2, r2, r7
    a714:	e285c001 	add	ip, r5, #1
    a718:	e7933106 	ldr	r3, [r3, r6, lsl #2]
    a71c:	e5d33000 	ldrb	r3, [r3]
    a720:	e0044003 	and	r4, r4, r3
    a724:	e1a00214 	lsl	r0, r4, r2
    a728:	e3a01001 	mov	r1, #1
    a72c:	ea000005 	b	a748 <to_cp+0x64>
    a730:	e0422007 	sub	r2, r2, r7
    a734:	e4dc3001 	ldrb	r3, [ip], #1
    a738:	e5d8e000 	ldrb	lr, [r8]
    a73c:	e003300e 	and	r3, r3, lr
    a740:	e1800213 	orr	r0, r0, r3, lsl r2
    a744:	e2811001 	add	r1, r1, #1
    a748:	e1510006 	cmp	r1, r6
    a74c:	bafffff7 	blt	a730 <to_cp+0x4c>
    a750:	e8bd81f0 	pop	{r4, r5, r6, r7, r8, pc}
    a754:	e3a00000 	mov	r0, #0
    a758:	e8bd81f0 	pop	{r4, r5, r6, r7, r8, pc}
    a75c:	0000eaec 	.word	0x0000eaec

0000a760 <test_main>:
    a760:	e92d4070 	push	{r4, r5, r6, lr}
    a764:	e24dd028 	sub	sp, sp, #40	@ 0x28
    a768:	e28dc008 	add	ip, sp, #8
    a76c:	e59fe0b0 	ldr	lr, [pc, #176]	@ a824 <test_main+0xc4>
    a770:	e8be000f 	ldm	lr!, {r0, r1, r2, r3}
    a774:	e8ac000f 	stmia	ip!, {r0, r1, r2, r3}
    a778:	e89e000f 	ldm	lr, {r0, r1, r2, r3}
    a77c:	e88c000f 	stm	ip, {r0, r1, r2, r3}
    a780:	e59f00a0 	ldr	r0, [pc, #160]	@ a828 <test_main+0xc8>
    a784:	eb0005e3 	bl	bf18 <printk>
    a788:	e59f009c 	ldr	r0, [pc, #156]	@ a82c <test_main+0xcc>
    a78c:	eb0005e1 	bl	bf18 <printk>
    a790:	e28d6008 	add	r6, sp, #8
    a794:	ea000012 	b	a7e4 <test_main+0x84>
    a798:	e59f3090 	ldr	r3, [pc, #144]	@ a830 <test_main+0xd0>
    a79c:	e58d3000 	str	r3, [sp]
    a7a0:	e3a0306c 	mov	r3, #108	@ 0x6c
    a7a4:	e59f2088 	ldr	r2, [pc, #136]	@ a834 <test_main+0xd4>
    a7a8:	e59f1088 	ldr	r1, [pc, #136]	@ a838 <test_main+0xd8>
    a7ac:	e59f0088 	ldr	r0, [pc, #136]	@ a83c <test_main+0xdc>
    a7b0:	eb0005d8 	bl	bf18 <printk>
    a7b4:	eb0006ea 	bl	c364 <clean_reboot>
    a7b8:	e59f0080 	ldr	r0, [pc, #128]	@ a840 <test_main+0xe0>
    a7bc:	eb0005d5 	bl	bf18 <printk>
    a7c0:	e2844001 	add	r4, r4, #1
    a7c4:	e7d51004 	ldrb	r1, [r5, r4]
    a7c8:	e3510000 	cmp	r1, #0
    a7cc:	0a000001 	beq	a7d8 <test_main+0x78>
    a7d0:	e3540003 	cmp	r4, #3
    a7d4:	dafffff7 	ble	a7b8 <test_main+0x58>
    a7d8:	e59f0064 	ldr	r0, [pc, #100]	@ a844 <test_main+0xe4>
    a7dc:	eb0005cd 	bl	bf18 <printk>
    a7e0:	e2866004 	add	r6, r6, #4
    a7e4:	e5960000 	ldr	r0, [r6]
    a7e8:	e3500000 	cmp	r0, #0
    a7ec:	0a00000a 	beq	a81c <test_main+0xbc>
    a7f0:	ebffff95 	bl	a64c <to_utf8>
    a7f4:	e2505000 	subs	r5, r0, #0
    a7f8:	0affffe6 	beq	a798 <test_main+0x38>
    a7fc:	e1a00005 	mov	r0, r5
    a800:	ebffffb7 	bl	a6e4 <to_cp>
    a804:	e1a02000 	mov	r2, r0
    a808:	e1a01005 	mov	r1, r5
    a80c:	e59f0034 	ldr	r0, [pc, #52]	@ a848 <test_main+0xe8>
    a810:	eb0005c0 	bl	bf18 <printk>
    a814:	e3a04000 	mov	r4, #0
    a818:	eaffffe9 	b	a7c4 <test_main+0x64>
    a81c:	e28dd028 	add	sp, sp, #40	@ 0x28
    a820:	e8bd8070 	pop	{r4, r5, r6, pc}
    a824:	0000e514 	.word	0x0000e514
    a828:	0000d8b4 	.word	0x0000d8b4
    a82c:	0000d8e0 	.word	0x0000d8e0
    a830:	0000d92c 	.word	0x0000d92c
    a834:	0000e534 	.word	0x0000e534
    a838:	0000d90c 	.word	0x0000d90c
    a83c:	0000c818 	.word	0x0000c818
    a840:	0000d578 	.word	0x0000d578
    a844:	0000c8d0 	.word	0x0000c8d0
    a848:	0000d934 	.word	0x0000d934

0000a84c <get_clock_divider>:
    a84c:	e59f30ac 	ldr	r3, [pc, #172]	@ a900 <get_clock_divider+0xb4>
    a850:	e1500003 	cmp	r0, r3
    a854:	9a000007 	bls	a878 <get_clock_divider+0x2c>
    a858:	e59f10a4 	ldr	r1, [pc, #164]	@ a904 <get_clock_divider+0xb8>
    a85c:	e0813091 	umull	r3, r1, r1, r0
    a860:	e1a01c21 	lsr	r1, r1, #24
    a864:	e59f309c 	ldr	r3, [pc, #156]	@ a908 <get_clock_divider+0xbc>
    a868:	e0030193 	mul	r3, r3, r1
    a86c:	e1500003 	cmp	r0, r3
    a870:	13a01000 	movne	r1, #0
    a874:	ea000000 	b	a87c <get_clock_divider+0x30>
    a878:	e3a01001 	mov	r1, #1
    a87c:	e3a0301f 	mov	r3, #31
    a880:	e3530000 	cmp	r3, #0
    a884:	ba000007 	blt	a8a8 <get_clock_divider+0x5c>
    a888:	e3a02001 	mov	r2, #1
    a88c:	e1a02312 	lsl	r2, r2, r3
    a890:	e1110002 	tst	r1, r2
    a894:	02433001 	subeq	r3, r3, #1
    a898:	0afffff8 	beq	a880 <get_clock_divider+0x34>
    a89c:	e1d11002 	bics	r1, r1, r2
    a8a0:	12833001 	addne	r3, r3, #1
    a8a4:	ea000000 	b	a8ac <get_clock_divider+0x60>
    a8a8:	e3e03000 	mvn	r3, #0
    a8ac:	e3730001 	cmn	r3, #1
    a8b0:	0a000003 	beq	a8c4 <get_clock_divider+0x78>
    a8b4:	e353001f 	cmp	r3, #31
    a8b8:	da000002 	ble	a8c8 <get_clock_divider+0x7c>
    a8bc:	e3a0301f 	mov	r3, #31
    a8c0:	ea000002 	b	a8d0 <get_clock_divider+0x84>
    a8c4:	e3a0301f 	mov	r3, #31
    a8c8:	e3530000 	cmp	r3, #0
    a8cc:	0a000004 	beq	a8e4 <get_clock_divider+0x98>
    a8d0:	e2433001 	sub	r3, r3, #1
    a8d4:	e3a02001 	mov	r2, #1
    a8d8:	e1a03312 	lsl	r3, r2, r3
    a8dc:	e3530b01 	cmp	r3, #1024	@ 0x400
    a8e0:	a59f3024 	ldrge	r3, [pc, #36]	@ a90c <get_clock_divider+0xc0>
    a8e4:	e1a00443 	asr	r0, r3, #8
    a8e8:	e1a03403 	lsl	r3, r3, #8
    a8ec:	e6ff3073 	uxth	r3, r3
    a8f0:	e1a00300 	lsl	r0, r0, #6
    a8f4:	e6ef0070 	uxtb	r0, r0
    a8f8:	e1830000 	orr	r0, r3, r0
    a8fc:	e12fff1e 	bx	lr
    a900:	02faf07f 	.word	0x02faf07f
    a904:	55e63b89 	.word	0x55e63b89
    a908:	02faf080 	.word	0x02faf080
    a90c:	000003ff 	.word	0x000003ff

0000a910 <sd_error_mask>:
    a910:	e2800010 	add	r0, r0, #16
    a914:	e3a03001 	mov	r3, #1
    a918:	e1a00013 	lsl	r0, r3, r0
    a91c:	e12fff1e 	bx	lr

0000a920 <set_last_error>:
    a920:	e1a03820 	lsr	r3, r0, #16
    a924:	e1a03803 	lsl	r3, r3, #16
    a928:	e59f2008 	ldr	r2, [pc, #8]	@ a938 <set_last_error+0x18>
    a92c:	e5823040 	str	r3, [r2, #64]	@ 0x40
    a930:	e5820044 	str	r0, [r2, #68]	@ 0x44
    a934:	e12fff1e 	bx	lr
    a938:	0000f018 	.word	0x0000f018

0000a93c <reset_command>:
    a93c:	e92d4010 	push	{r4, lr}
    a940:	e59f2058 	ldr	r2, [pc, #88]	@ a9a0 <reset_command+0x64>
    a944:	e592302c 	ldr	r3, [r2, #44]	@ 0x2c
    a948:	e3833402 	orr	r3, r3, #33554432	@ 0x2000000
    a94c:	e582302c 	str	r3, [r2, #44]	@ 0x2c
    a950:	e3a04000 	mov	r4, #0
    a954:	e59f3048 	ldr	r3, [pc, #72]	@ a9a4 <reset_command+0x68>
    a958:	e1540003 	cmp	r4, r3
    a95c:	ca000007 	bgt	a980 <reset_command+0x44>
    a960:	e59f3038 	ldr	r3, [pc, #56]	@ a9a0 <reset_command+0x64>
    a964:	e593302c 	ldr	r3, [r3, #44]	@ 0x2c
    a968:	e3130402 	tst	r3, #33554432	@ 0x2000000
    a96c:	0a000009 	beq	a998 <reset_command+0x5c>
    a970:	e3a00001 	mov	r0, #1
    a974:	eb0006f7 	bl	c558 <delay_ms>
    a978:	e2844001 	add	r4, r4, #1
    a97c:	eafffff4 	b	a954 <reset_command+0x18>
    a980:	e59f3018 	ldr	r3, [pc, #24]	@ a9a0 <reset_command+0x64>
    a984:	e593102c 	ldr	r1, [r3, #44]	@ 0x2c
    a988:	e59f0018 	ldr	r0, [pc, #24]	@ a9a8 <reset_command+0x6c>
    a98c:	eb000561 	bl	bf18 <printk>
    a990:	e3a00000 	mov	r0, #0
    a994:	e8bd8010 	pop	{r4, pc}
    a998:	e3a00001 	mov	r0, #1
    a99c:	e8bd8010 	pop	{r4, pc}
    a9a0:	20300000 	.word	0x20300000
    a9a4:	0000270f 	.word	0x0000270f
    a9a8:	0000d948 	.word	0x0000d948

0000a9ac <wait_reg_mask>:
    a9ac:	e92d41f0 	push	{r4, r5, r6, r7, r8, lr}
    a9b0:	e1a07000 	mov	r7, r0
    a9b4:	e1a06001 	mov	r6, r1
    a9b8:	e1a08002 	mov	r8, r2
    a9bc:	e1a05003 	mov	r5, r3
    a9c0:	e3a04000 	mov	r4, #0
    a9c4:	ea000005 	b	a9e0 <wait_reg_mask+0x34>
    a9c8:	e1a00008 	mov	r0, r8
    a9cc:	e3500000 	cmp	r0, #0
    a9d0:	18bd81f0 	popne	{r4, r5, r6, r7, r8, pc}
    a9d4:	e3a00064 	mov	r0, #100	@ 0x64
    a9d8:	eb0006d5 	bl	c534 <delay_us>
    a9dc:	e2844001 	add	r4, r4, #1
    a9e0:	e0853105 	add	r3, r5, r5, lsl #2
    a9e4:	e1540083 	cmp	r4, r3, lsl #1
    a9e8:	8a000004 	bhi	aa00 <wait_reg_mask+0x54>
    a9ec:	e5973000 	ldr	r3, [r7]
    a9f0:	e1130006 	tst	r3, r6
    a9f4:	1afffff3 	bne	a9c8 <wait_reg_mask+0x1c>
    a9f8:	e2280001 	eor	r0, r8, #1
    a9fc:	eafffff2 	b	a9cc <wait_reg_mask+0x20>
    aa00:	e3a00000 	mov	r0, #0
    aa04:	e8bd81f0 	pop	{r4, r5, r6, r7, r8, pc}

0000aa08 <do_data_transfer>:
    aa08:	e92d41f0 	push	{r4, r5, r6, r7, r8, lr}
    aa0c:	e24dd008 	sub	sp, sp, #8
    aa10:	e58d0004 	str	r0, [sp, #4]
    aa14:	e5dd3004 	ldrb	r3, [sp, #4]
    aa18:	e3130010 	tst	r3, #16
    aa1c:	0a000005 	beq	aa38 <do_data_transfer+0x30>
    aa20:	e3a07000 	mov	r7, #0
    aa24:	e3a05020 	mov	r5, #32
    aa28:	e59f30c0 	ldr	r3, [pc, #192]	@ aaf0 <do_data_transfer+0xe8>
    aa2c:	e5934038 	ldr	r4, [r3, #56]	@ 0x38
    aa30:	e3a06000 	mov	r6, #0
    aa34:	ea00000c 	b	aa6c <do_data_transfer+0x64>
    aa38:	e3a07001 	mov	r7, #1
    aa3c:	e3a05010 	mov	r5, #16
    aa40:	eafffff8 	b	aa28 <do_data_transfer+0x20>
    aa44:	ebffffb5 	bl	a920 <set_last_error>
    aa48:	e3a00000 	mov	r0, #0
    aa4c:	ea000025 	b	aae8 <do_data_transfer+0xe0>
    aa50:	e4941004 	ldr	r1, [r4], #4
    aa54:	e59f2098 	ldr	r2, [pc, #152]	@ aaf4 <do_data_transfer+0xec>
    aa58:	e5821020 	str	r1, [r2, #32]
    aa5c:	e2433004 	sub	r3, r3, #4
    aa60:	e3530000 	cmp	r3, #0
    aa64:	1afffff9 	bne	aa50 <do_data_transfer+0x48>
    aa68:	e2866001 	add	r6, r6, #1
    aa6c:	e59f307c 	ldr	r3, [pc, #124]	@ aaf0 <do_data_transfer+0xe8>
    aa70:	e5933004 	ldr	r3, [r3, #4]
    aa74:	e1530006 	cmp	r3, r6
    aa78:	9a000019 	bls	aae4 <do_data_transfer+0xdc>
    aa7c:	e3858902 	orr	r8, r5, #32768	@ 0x8000
    aa80:	e3a03e7d 	mov	r3, #2000	@ 0x7d0
    aa84:	e3a02001 	mov	r2, #1
    aa88:	e1a01008 	mov	r1, r8
    aa8c:	e59f0064 	ldr	r0, [pc, #100]	@ aaf8 <do_data_transfer+0xf0>
    aa90:	ebffffc5 	bl	a9ac <wait_reg_mask>
    aa94:	e59f3058 	ldr	r3, [pc, #88]	@ aaf4 <do_data_transfer+0xec>
    aa98:	e5930030 	ldr	r0, [r3, #48]	@ 0x30
    aa9c:	e5838030 	str	r8, [r3, #48]	@ 0x30
    aaa0:	e1e03805 	mvn	r3, r5, lsl #16
    aaa4:	e1e03823 	mvn	r3, r3, lsr #16
    aaa8:	e0033000 	and	r3, r3, r0
    aaac:	e1530005 	cmp	r3, r5
    aab0:	1affffe3 	bne	aa44 <do_data_transfer+0x3c>
    aab4:	e59f3034 	ldr	r3, [pc, #52]	@ aaf0 <do_data_transfer+0xe8>
    aab8:	e5933010 	ldr	r3, [r3, #16]
    aabc:	e3570000 	cmp	r7, #0
    aac0:	1affffe6 	bne	aa60 <do_data_transfer+0x58>
    aac4:	ea000003 	b	aad8 <do_data_transfer+0xd0>
    aac8:	e59f2024 	ldr	r2, [pc, #36]	@ aaf4 <do_data_transfer+0xec>
    aacc:	e5922020 	ldr	r2, [r2, #32]
    aad0:	e4842004 	str	r2, [r4], #4
    aad4:	e2433004 	sub	r3, r3, #4
    aad8:	e3530000 	cmp	r3, #0
    aadc:	1afffff9 	bne	aac8 <do_data_transfer+0xc0>
    aae0:	eaffffe0 	b	aa68 <do_data_transfer+0x60>
    aae4:	e3a00001 	mov	r0, #1
    aae8:	e28dd008 	add	sp, sp, #8
    aaec:	e8bd81f0 	pop	{r4, r5, r6, r7, r8, pc}
    aaf0:	0000f018 	.word	0x0000f018
    aaf4:	20300000 	.word	0x20300000
    aaf8:	20300030 	.word	0x20300030

0000aafc <emmc_issue_command>:
    aafc:	e92d4030 	push	{r4, r5, lr}
    ab00:	e24dd014 	sub	sp, sp, #20
    ab04:	e58d0004 	str	r0, [sp, #4]
    ab08:	e1a05002 	mov	r5, r2
    ab0c:	e59d2004 	ldr	r2, [sp, #4]
    ab10:	e59f31c8 	ldr	r3, [pc, #456]	@ ace0 <emmc_issue_command+0x1e4>
    ab14:	e583200c 	str	r2, [r3, #12]
    ab18:	e593200c 	ldr	r2, [r3, #12]
    ab1c:	e58d200c 	str	r2, [sp, #12]
    ab20:	e5932004 	ldr	r2, [r3, #4]
    ab24:	e3520801 	cmp	r2, #65536	@ 0x10000
    ab28:	2a000014 	bcs	ab80 <emmc_issue_command+0x84>
    ab2c:	e59f31ac 	ldr	r3, [pc, #428]	@ ace0 <emmc_issue_command+0x1e4>
    ab30:	e5933010 	ldr	r3, [r3, #16]
    ab34:	e1832802 	orr	r2, r3, r2, lsl #16
    ab38:	e59f31a4 	ldr	r3, [pc, #420]	@ ace4 <emmc_issue_command+0x1e8>
    ab3c:	e5832004 	str	r2, [r3, #4]
    ab40:	e5831008 	str	r1, [r3, #8]
    ab44:	e59d200c 	ldr	r2, [sp, #12]
    ab48:	e583200c 	str	r2, [r3, #12]
    ab4c:	e3a04000 	mov	r4, #0
    ab50:	e1a02004 	mov	r2, r4
    ab54:	e1540005 	cmp	r4, r5
    ab58:	2a00000d 	bcs	ab94 <emmc_issue_command+0x98>
    ab5c:	e59f3180 	ldr	r3, [pc, #384]	@ ace4 <emmc_issue_command+0x1e8>
    ab60:	e5931030 	ldr	r1, [r3, #48]	@ 0x30
    ab64:	e59f317c 	ldr	r3, [pc, #380]	@ ace8 <emmc_issue_command+0x1ec>
    ab68:	e1110003 	tst	r1, r3
    ab6c:	1a000008 	bne	ab94 <emmc_issue_command+0x98>
    ab70:	e3a00001 	mov	r0, #1
    ab74:	eb000677 	bl	c558 <delay_ms>
    ab78:	e2844001 	add	r4, r4, #1
    ab7c:	eafffff3 	b	ab50 <emmc_issue_command+0x54>
    ab80:	e1a01002 	mov	r1, r2
    ab84:	e59f0160 	ldr	r0, [pc, #352]	@ acec <emmc_issue_command+0x1f0>
    ab88:	eb0004e2 	bl	bf18 <printk>
    ab8c:	e3a00000 	mov	r0, #0
    ab90:	ea000034 	b	ac68 <emmc_issue_command+0x16c>
    ab94:	e1520005 	cmp	r2, r5
    ab98:	2a000034 	bcs	ac70 <emmc_issue_command+0x174>
    ab9c:	e59f3140 	ldr	r3, [pc, #320]	@ ace4 <emmc_issue_command+0x1e8>
    aba0:	e5930030 	ldr	r0, [r3, #48]	@ 0x30
    aba4:	e59f2144 	ldr	r2, [pc, #324]	@ acf0 <emmc_issue_command+0x1f4>
    aba8:	e5832030 	str	r2, [r3, #48]	@ 0x30
    abac:	e3c03cff 	bic	r3, r0, #65280	@ 0xff00
    abb0:	e3c330fe 	bic	r3, r3, #254	@ 0xfe
    abb4:	e3530001 	cmp	r3, #1
    abb8:	1a000032 	bne	ac88 <emmc_issue_command+0x18c>
    abbc:	e5dd3006 	ldrb	r3, [sp, #6]
    abc0:	e2033003 	and	r3, r3, #3
    abc4:	e3530001 	cmp	r3, #1
    abc8:	0a000033 	beq	ac9c <emmc_issue_command+0x1a0>
    abcc:	e6af2073 	sxtb	r2, r3
    abd0:	e3520000 	cmp	r2, #0
    abd4:	0a000006 	beq	abf4 <emmc_issue_command+0xf8>
    abd8:	e2833002 	add	r3, r3, #2
    abdc:	e2033003 	and	r3, r3, #3
    abe0:	e3530001 	cmp	r3, #1
    abe4:	959f30f8 	ldrls	r3, [pc, #248]	@ ace4 <emmc_issue_command+0x1e8>
    abe8:	95932010 	ldrls	r2, [r3, #16]
    abec:	959f30ec 	ldrls	r3, [pc, #236]	@ ace0 <emmc_issue_command+0x1e4>
    abf0:	95832014 	strls	r2, [r3, #20]
    abf4:	e5dd4006 	ldrb	r4, [sp, #6]
    abf8:	e2145020 	ands	r5, r4, #32
    abfc:	1a000031 	bne	acc8 <emmc_issue_command+0x1cc>
    ac00:	e2044003 	and	r4, r4, #3
    ac04:	e3540003 	cmp	r4, #3
    ac08:	0a000001 	beq	ac14 <emmc_issue_command+0x118>
    ac0c:	e3550000 	cmp	r5, #0
    ac10:	0a000011 	beq	ac5c <emmc_issue_command+0x160>
    ac14:	e3a03e7d 	mov	r3, #2000	@ 0x7d0
    ac18:	e3a02001 	mov	r2, #1
    ac1c:	e59f10d0 	ldr	r1, [pc, #208]	@ acf4 <emmc_issue_command+0x1f8>
    ac20:	e59f00d0 	ldr	r0, [pc, #208]	@ acf8 <emmc_issue_command+0x1fc>
    ac24:	ebffff60 	bl	a9ac <wait_reg_mask>
    ac28:	e59f30b4 	ldr	r3, [pc, #180]	@ ace4 <emmc_issue_command+0x1e8>
    ac2c:	e5930030 	ldr	r0, [r3, #48]	@ 0x30
    ac30:	e59f20c4 	ldr	r2, [pc, #196]	@ acfc <emmc_issue_command+0x200>
    ac34:	e5832030 	str	r2, [r3, #48]	@ 0x30
    ac38:	e3c03cff 	bic	r3, r0, #65280	@ 0xff00
    ac3c:	e3c330fd 	bic	r3, r3, #253	@ 0xfd
    ac40:	e2822811 	add	r2, r2, #1114112	@ 0x110000
    ac44:	e3530002 	cmp	r3, #2
    ac48:	11530002 	cmpne	r3, r2
    ac4c:	1a000020 	bne	acd4 <emmc_issue_command+0x1d8>
    ac50:	e59f308c 	ldr	r3, [pc, #140]	@ ace4 <emmc_issue_command+0x1e8>
    ac54:	e59f20a0 	ldr	r2, [pc, #160]	@ acfc <emmc_issue_command+0x200>
    ac58:	e5832030 	str	r2, [r3, #48]	@ 0x30
    ac5c:	e3a00001 	mov	r0, #1
    ac60:	e59f3078 	ldr	r3, [pc, #120]	@ ace0 <emmc_issue_command+0x1e4>
    ac64:	e5c30000 	strb	r0, [r3]
    ac68:	e28dd014 	add	sp, sp, #20
    ac6c:	e8bd8030 	pop	{r4, r5, pc}
    ac70:	e59f0088 	ldr	r0, [pc, #136]	@ ad00 <emmc_issue_command+0x204>
    ac74:	eb0004a7 	bl	bf18 <printk>
    ac78:	e3a00000 	mov	r0, #0
    ac7c:	e59f305c 	ldr	r3, [pc, #92]	@ ace0 <emmc_issue_command+0x1e4>
    ac80:	e5c30000 	strb	r0, [r3]
    ac84:	eafffff7 	b	ac68 <emmc_issue_command+0x16c>
    ac88:	ebffff24 	bl	a920 <set_last_error>
    ac8c:	e3a00000 	mov	r0, #0
    ac90:	e59f3048 	ldr	r3, [pc, #72]	@ ace0 <emmc_issue_command+0x1e4>
    ac94:	e5c30000 	strb	r0, [r3]
    ac98:	eafffff2 	b	ac68 <emmc_issue_command+0x16c>
    ac9c:	e59f2040 	ldr	r2, [pc, #64]	@ ace4 <emmc_issue_command+0x1e8>
    aca0:	e5921010 	ldr	r1, [r2, #16]
    aca4:	e59f3034 	ldr	r3, [pc, #52]	@ ace0 <emmc_issue_command+0x1e4>
    aca8:	e5831014 	str	r1, [r3, #20]
    acac:	e5921014 	ldr	r1, [r2, #20]
    acb0:	e5831018 	str	r1, [r3, #24]
    acb4:	e5921018 	ldr	r1, [r2, #24]
    acb8:	e583101c 	str	r1, [r3, #28]
    acbc:	e592201c 	ldr	r2, [r2, #28]
    acc0:	e5832020 	str	r2, [r3, #32]
    acc4:	eaffffca 	b	abf4 <emmc_issue_command+0xf8>
    acc8:	e59d0004 	ldr	r0, [sp, #4]
    accc:	ebffff4d 	bl	aa08 <do_data_transfer>
    acd0:	eaffffca 	b	ac00 <emmc_issue_command+0x104>
    acd4:	ebffff11 	bl	a920 <set_last_error>
    acd8:	e3a00000 	mov	r0, #0
    acdc:	eaffffe1 	b	ac68 <emmc_issue_command+0x16c>
    ace0:	0000f018 	.word	0x0000f018
    ace4:	20300000 	.word	0x20300000
    ace8:	00008001 	.word	0x00008001
    acec:	0000d980 	.word	0x0000d980
    acf0:	ffff0001 	.word	0xffff0001
    acf4:	00008002 	.word	0x00008002
    acf8:	20300030 	.word	0x20300030
    acfc:	ffff0002 	.word	0xffff0002
    ad00:	0000d9a8 	.word	0x0000d9a8

0000ad04 <emmc_command>:
    ad04:	e92d4010 	push	{r4, lr}
    ad08:	e3500000 	cmp	r0, #0
    ad0c:	ba00000b 	blt	ad40 <emmc_command+0x3c>
    ad10:	e59fc048 	ldr	ip, [pc, #72]	@ ad60 <emmc_command+0x5c>
    ad14:	e59f3048 	ldr	r3, [pc, #72]	@ ad64 <emmc_command+0x60>
    ad18:	e7930100 	ldr	r0, [r3, r0, lsl #2]
    ad1c:	e58c0008 	str	r0, [ip, #8]
    ad20:	e59c0008 	ldr	r0, [ip, #8]
    ad24:	e59330e0 	ldr	r3, [r3, #224]	@ 0xe0
    ad28:	e1500003 	cmp	r0, r3
    ad2c:	0a000007 	beq	ad50 <emmc_command+0x4c>
    ad30:	e59f3028 	ldr	r3, [pc, #40]	@ ad60 <emmc_command+0x5c>
    ad34:	e5930008 	ldr	r0, [r3, #8]
    ad38:	ebffff6f 	bl	aafc <emmc_issue_command>
    ad3c:	e8bd8010 	pop	{r4, pc}
    ad40:	e59f0020 	ldr	r0, [pc, #32]	@ ad68 <emmc_command+0x64>
    ad44:	eb000473 	bl	bf18 <printk>
    ad48:	e3a00000 	mov	r0, #0
    ad4c:	e8bd8010 	pop	{r4, pc}
    ad50:	e59f0014 	ldr	r0, [pc, #20]	@ ad6c <emmc_command+0x68>
    ad54:	eb00046f 	bl	bf18 <printk>
    ad58:	e3a00000 	mov	r0, #0
    ad5c:	e8bd8010 	pop	{r4, pc}
    ad60:	0000f018 	.word	0x0000f018
    ad64:	0000e540 	.word	0x0000e540
    ad68:	0000d9d4 	.word	0x0000d9d4
    ad6c:	0000d9f8 	.word	0x0000d9f8

0000ad70 <check_v2_card>:
    ad70:	e92d4010 	push	{r4, lr}
    ad74:	e3a020c8 	mov	r2, #200	@ 0xc8
    ad78:	e59f10a0 	ldr	r1, [pc, #160]	@ ae20 <check_v2_card+0xb0>
    ad7c:	e3a00008 	mov	r0, #8
    ad80:	ebffffdf 	bl	ad04 <emmc_command>
    ad84:	e2504000 	subs	r4, r0, #0
    ad88:	1a000017 	bne	adec <check_v2_card+0x7c>
    ad8c:	e59f3090 	ldr	r3, [pc, #144]	@ ae24 <check_v2_card+0xb4>
    ad90:	e5933040 	ldr	r3, [r3, #64]	@ 0x40
    ad94:	e3530000 	cmp	r3, #0
    ad98:	0a000006 	beq	adb8 <check_v2_card+0x48>
    ad9c:	e3130801 	tst	r3, #65536	@ 0x10000
    ada0:	0a00000e 	beq	ade0 <check_v2_card+0x70>
    ada4:	ebfffee4 	bl	a93c <reset_command>
    ada8:	e3500000 	cmp	r0, #0
    adac:	1a000004 	bne	adc4 <check_v2_card+0x54>
    adb0:	e1a04000 	mov	r4, r0
    adb4:	ea000013 	b	ae08 <check_v2_card+0x98>
    adb8:	e59f0068 	ldr	r0, [pc, #104]	@ ae28 <check_v2_card+0xb8>
    adbc:	eb000455 	bl	bf18 <printk>
    adc0:	ea000010 	b	ae08 <check_v2_card+0x98>
    adc4:	e3a00000 	mov	r0, #0
    adc8:	ebfffed0 	bl	a910 <sd_error_mask>
    adcc:	e59f3058 	ldr	r3, [pc, #88]	@ ae2c <check_v2_card+0xbc>
    add0:	e5830030 	str	r0, [r3, #48]	@ 0x30
    add4:	e59f0054 	ldr	r0, [pc, #84]	@ ae30 <check_v2_card+0xc0>
    add8:	eb00044e 	bl	bf18 <printk>
    addc:	ea000009 	b	ae08 <check_v2_card+0x98>
    ade0:	e59f004c 	ldr	r0, [pc, #76]	@ ae34 <check_v2_card+0xc4>
    ade4:	eb00044b 	bl	bf18 <printk>
    ade8:	ea000006 	b	ae08 <check_v2_card+0x98>
    adec:	e59f3030 	ldr	r3, [pc, #48]	@ ae24 <check_v2_card+0xb4>
    adf0:	e5931014 	ldr	r1, [r3, #20]
    adf4:	e1a03a01 	lsl	r3, r1, #20
    adf8:	e1a03a23 	lsr	r3, r3, #20
    adfc:	e59f201c 	ldr	r2, [pc, #28]	@ ae20 <check_v2_card+0xb0>
    ae00:	e1530002 	cmp	r3, r2
    ae04:	1a000001 	bne	ae10 <check_v2_card+0xa0>
    ae08:	e1a00004 	mov	r0, r4
    ae0c:	e8bd8010 	pop	{r4, pc}
    ae10:	e59f0020 	ldr	r0, [pc, #32]	@ ae38 <check_v2_card+0xc8>
    ae14:	eb00043f 	bl	bf18 <printk>
    ae18:	e3a04000 	mov	r4, #0
    ae1c:	eafffff9 	b	ae08 <check_v2_card+0x98>
    ae20:	000001aa 	.word	0x000001aa
    ae24:	0000f018 	.word	0x0000f018
    ae28:	0000da14 	.word	0x0000da14
    ae2c:	20300000 	.word	0x20300000
    ae30:	0000da34 	.word	0x0000da34
    ae34:	0000da58 	.word	0x0000da58
    ae38:	0000da80 	.word	0x0000da80

0000ae3c <check_usable_card>:
    ae3c:	e92d4010 	push	{r4, lr}
    ae40:	e3a02ffa 	mov	r2, #1000	@ 0x3e8
    ae44:	e3a01000 	mov	r1, #0
    ae48:	e3a00005 	mov	r0, #5
    ae4c:	ebffffac 	bl	ad04 <emmc_command>
    ae50:	e2504000 	subs	r4, r0, #0
    ae54:	1a000010 	bne	ae9c <check_usable_card+0x60>
    ae58:	e59f3050 	ldr	r3, [pc, #80]	@ aeb0 <check_usable_card+0x74>
    ae5c:	e5933040 	ldr	r3, [r3, #64]	@ 0x40
    ae60:	e3530000 	cmp	r3, #0
    ae64:	0a000009 	beq	ae90 <check_usable_card+0x54>
    ae68:	e3130801 	tst	r3, #65536	@ 0x10000
    ae6c:	0a00000c 	beq	aea4 <check_usable_card+0x68>
    ae70:	ebfffeb1 	bl	a93c <reset_command>
    ae74:	e2504000 	subs	r4, r0, #0
    ae78:	0a000007 	beq	ae9c <check_usable_card+0x60>
    ae7c:	e3a00000 	mov	r0, #0
    ae80:	ebfffea2 	bl	a910 <sd_error_mask>
    ae84:	e59f3028 	ldr	r3, [pc, #40]	@ aeb4 <check_usable_card+0x78>
    ae88:	e5830030 	str	r0, [r3, #48]	@ 0x30
    ae8c:	ea000002 	b	ae9c <check_usable_card+0x60>
    ae90:	e59f0020 	ldr	r0, [pc, #32]	@ aeb8 <check_usable_card+0x7c>
    ae94:	eb00041f 	bl	bf18 <printk>
    ae98:	e3a04001 	mov	r4, #1
    ae9c:	e1a00004 	mov	r0, r4
    aea0:	e8bd8010 	pop	{r4, pc}
    aea4:	e59f0010 	ldr	r0, [pc, #16]	@ aebc <check_usable_card+0x80>
    aea8:	eb00041a 	bl	bf18 <printk>
    aeac:	eafffffa 	b	ae9c <check_usable_card+0x60>
    aeb0:	0000f018 	.word	0x0000f018
    aeb4:	20300000 	.word	0x20300000
    aeb8:	0000daa0 	.word	0x0000daa0
    aebc:	0000dac4 	.word	0x0000dac4

0000aec0 <check_rca>:
    aec0:	e92d4010 	push	{r4, lr}
    aec4:	e3a02e7d 	mov	r2, #2000	@ 0x7d0
    aec8:	e3a01000 	mov	r1, #0
    aecc:	e3a00002 	mov	r0, #2
    aed0:	ebffff8b 	bl	ad04 <emmc_command>
    aed4:	e2504000 	subs	r4, r0, #0
    aed8:	0a00000d 	beq	af14 <check_rca+0x54>
    aedc:	e3a02e7d 	mov	r2, #2000	@ 0x7d0
    aee0:	e3a01000 	mov	r1, #0
    aee4:	e3a00003 	mov	r0, #3
    aee8:	ebffff85 	bl	ad04 <emmc_command>
    aeec:	e2504000 	subs	r4, r0, #0
    aef0:	0a00000a 	beq	af20 <check_rca+0x60>
    aef4:	e59f2040 	ldr	r2, [pc, #64]	@ af3c <check_rca+0x7c>
    aef8:	e5923014 	ldr	r3, [r2, #20]
    aefc:	e1a01823 	lsr	r1, r3, #16
    af00:	e5821028 	str	r1, [r2, #40]	@ 0x28
    af04:	e3130c01 	tst	r3, #256	@ 0x100
    af08:	0a000007 	beq	af2c <check_rca+0x6c>
    af0c:	e1a00004 	mov	r0, r4
    af10:	e8bd8010 	pop	{r4, pc}
    af14:	e59f0024 	ldr	r0, [pc, #36]	@ af40 <check_rca+0x80>
    af18:	eb0003fe 	bl	bf18 <printk>
    af1c:	eafffffa 	b	af0c <check_rca+0x4c>
    af20:	e59f001c 	ldr	r0, [pc, #28]	@ af44 <check_rca+0x84>
    af24:	eb0003fb 	bl	bf18 <printk>
    af28:	eafffff7 	b	af0c <check_rca+0x4c>
    af2c:	e59f0014 	ldr	r0, [pc, #20]	@ af48 <check_rca+0x88>
    af30:	eb0003f8 	bl	bf18 <printk>
    af34:	e3a04000 	mov	r4, #0
    af38:	eafffff3 	b	af0c <check_rca+0x4c>
    af3c:	0000f018 	.word	0x0000f018
    af40:	0000dae8 	.word	0x0000dae8
    af44:	0000db08 	.word	0x0000db08
    af48:	0000db30 	.word	0x0000db30

0000af4c <select_card>:
    af4c:	e92d4010 	push	{r4, lr}
    af50:	e59f3058 	ldr	r3, [pc, #88]	@ afb0 <select_card+0x64>
    af54:	e5931028 	ldr	r1, [r3, #40]	@ 0x28
    af58:	e3a02e7d 	mov	r2, #2000	@ 0x7d0
    af5c:	e1a01801 	lsl	r1, r1, #16
    af60:	e3a00007 	mov	r0, #7
    af64:	ebffff66 	bl	ad04 <emmc_command>
    af68:	e2504000 	subs	r4, r0, #0
    af6c:	0a000008 	beq	af94 <select_card+0x48>
    af70:	e59f3038 	ldr	r3, [pc, #56]	@ afb0 <select_card+0x64>
    af74:	e5931014 	ldr	r1, [r3, #20]
    af78:	e1a014a1 	lsr	r1, r1, #9
    af7c:	e201100f 	and	r1, r1, #15
    af80:	e2413003 	sub	r3, r1, #3
    af84:	e3530001 	cmp	r3, #1
    af88:	8a000004 	bhi	afa0 <select_card+0x54>
    af8c:	e1a00004 	mov	r0, r4
    af90:	e8bd8010 	pop	{r4, pc}
    af94:	e59f0018 	ldr	r0, [pc, #24]	@ afb4 <select_card+0x68>
    af98:	eb0003de 	bl	bf18 <printk>
    af9c:	eafffffa 	b	af8c <select_card+0x40>
    afa0:	e59f0010 	ldr	r0, [pc, #16]	@ afb8 <select_card+0x6c>
    afa4:	eb0003db 	bl	bf18 <printk>
    afa8:	e3a04000 	mov	r4, #0
    afac:	eafffff6 	b	af8c <select_card+0x40>
    afb0:	0000f018 	.word	0x0000f018
    afb4:	0000db50 	.word	0x0000db50
    afb8:	0000db74 	.word	0x0000db74

0000afbc <do_data_command>:
    afbc:	e92d40f0 	push	{r4, r5, r6, r7, lr}
    afc0:	e24dd00c 	sub	sp, sp, #12
    afc4:	e1a0c001 	mov	ip, r1
    afc8:	e1a01002 	mov	r1, r2
    afcc:	e1a05003 	mov	r5, r3
    afd0:	e59f3110 	ldr	r3, [pc, #272]	@ b0e8 <do_data_command+0x12c>
    afd4:	e5d33024 	ldrb	r3, [r3, #36]	@ 0x24
    afd8:	e3530000 	cmp	r3, #0
    afdc:	01a05485 	lsleq	r5, r5, #9
    afe0:	e59f3100 	ldr	r3, [pc, #256]	@ b0e8 <do_data_command+0x12c>
    afe4:	e5932010 	ldr	r2, [r3, #16]
    afe8:	e1520001 	cmp	r2, r1
    afec:	8a00001e 	bhi	b06c <do_data_command+0xb0>
    aff0:	e3520c02 	cmp	r2, #512	@ 0x200
    aff4:	1a000020 	bne	b07c <do_data_command+0xc0>
    aff8:	e1a034a1 	lsr	r3, r1, #9
    affc:	e59f20e4 	ldr	r2, [pc, #228]	@ b0e8 <do_data_command+0x12c>
    b000:	e5823004 	str	r3, [r2, #4]
    b004:	e1a03b81 	lsl	r3, r1, #23
    b008:	e1a03ba3 	lsr	r3, r3, #23
    b00c:	e3530000 	cmp	r3, #0
    b010:	1a000021 	bne	b09c <do_data_command+0xe0>
    b014:	e59f30cc 	ldr	r3, [pc, #204]	@ b0e8 <do_data_command+0x12c>
    b018:	e583c038 	str	ip, [r3, #56]	@ 0x38
    b01c:	e3500000 	cmp	r0, #0
    b020:	0a000021 	beq	b0ac <do_data_command+0xf0>
    b024:	e3510b01 	cmp	r1, #1024	@ 0x400
    b028:	3a000023 	bcc	b0bc <do_data_command+0x100>
    b02c:	e3a07019 	mov	r7, #25
    b030:	e3a06000 	mov	r6, #0
    b034:	e3560002 	cmp	r6, #2
    b038:	ca000026 	bgt	b0d8 <do_data_command+0x11c>
    b03c:	e59f20a8 	ldr	r2, [pc, #168]	@ b0ec <do_data_command+0x130>
    b040:	e1a01005 	mov	r1, r5
    b044:	e1a00007 	mov	r0, r7
    b048:	ebffff2d 	bl	ad04 <emmc_command>
    b04c:	e2504000 	subs	r4, r0, #0
    b050:	1a000021 	bne	b0dc <do_data_command+0x120>
    b054:	e2866001 	add	r6, r6, #1
    b058:	e3560002 	cmp	r6, #2
    b05c:	ca00001a 	bgt	b0cc <do_data_command+0x110>
    b060:	e59f0088 	ldr	r0, [pc, #136]	@ b0f0 <do_data_command+0x134>
    b064:	eb0003ab 	bl	bf18 <printk>
    b068:	eafffff1 	b	b034 <do_data_command+0x78>
    b06c:	e59f0080 	ldr	r0, [pc, #128]	@ b0f4 <do_data_command+0x138>
    b070:	eb0003a8 	bl	bf18 <printk>
    b074:	e3a04000 	mov	r4, #0
    b078:	ea000017 	b	b0dc <do_data_command+0x120>
    b07c:	e59f3074 	ldr	r3, [pc, #116]	@ b0f8 <do_data_command+0x13c>
    b080:	e58d3000 	str	r3, [sp]
    b084:	e59f3070 	ldr	r3, [pc, #112]	@ b0fc <do_data_command+0x140>
    b088:	e59f2070 	ldr	r2, [pc, #112]	@ b100 <do_data_command+0x144>
    b08c:	e59f1070 	ldr	r1, [pc, #112]	@ b104 <do_data_command+0x148>
    b090:	e59f0070 	ldr	r0, [pc, #112]	@ b108 <do_data_command+0x14c>
    b094:	eb00039f 	bl	bf18 <printk>
    b098:	eb0004b1 	bl	c364 <clean_reboot>
    b09c:	e59f0068 	ldr	r0, [pc, #104]	@ b10c <do_data_command+0x150>
    b0a0:	eb00039c 	bl	bf18 <printk>
    b0a4:	e3a04000 	mov	r4, #0
    b0a8:	ea00000b 	b	b0dc <do_data_command+0x120>
    b0ac:	e3510b01 	cmp	r1, #1024	@ 0x400
    b0b0:	2a000003 	bcs	b0c4 <do_data_command+0x108>
    b0b4:	e3a07011 	mov	r7, #17
    b0b8:	eaffffdc 	b	b030 <do_data_command+0x74>
    b0bc:	e3a07018 	mov	r7, #24
    b0c0:	eaffffda 	b	b030 <do_data_command+0x74>
    b0c4:	e3a07012 	mov	r7, #18
    b0c8:	eaffffd8 	b	b030 <do_data_command+0x74>
    b0cc:	e59f003c 	ldr	r0, [pc, #60]	@ b110 <do_data_command+0x154>
    b0d0:	eb000390 	bl	bf18 <printk>
    b0d4:	ea000000 	b	b0dc <do_data_command+0x120>
    b0d8:	e3a04001 	mov	r4, #1
    b0dc:	e1a00004 	mov	r0, r4
    b0e0:	e28dd00c 	add	sp, sp, #12
    b0e4:	e8bd80f0 	pop	{r4, r5, r6, r7, pc}
    b0e8:	0000f018 	.word	0x0000f018
    b0ec:	00001388 	.word	0x00001388
    b0f0:	0000dc04 	.word	0x0000dc04
    b0f4:	0000db94 	.word	0x0000db94
    b0f8:	0000dbcc 	.word	0x0000dbcc
    b0fc:	000002b1 	.word	0x000002b1
    b100:	0000e624 	.word	0x0000e624
    b104:	0000dbb4 	.word	0x0000dbb4
    b108:	0000c818 	.word	0x0000c818
    b10c:	0000dbe8 	.word	0x0000dbe8
    b110:	0000dc28 	.word	0x0000dc28

0000b114 <emmc_setup_clock>:
    b114:	e92d4070 	push	{r4, r5, r6, lr}
    b118:	e59f5074 	ldr	r5, [pc, #116]	@ b194 <emmc_setup_clock+0x80>
    b11c:	e3a03000 	mov	r3, #0
    b120:	e585303c 	str	r3, [r5, #60]	@ 0x3c
    b124:	e595402c 	ldr	r4, [r5, #44]	@ 0x2c
    b128:	e3844001 	orr	r4, r4, #1
    b12c:	e59f0064 	ldr	r0, [pc, #100]	@ b198 <emmc_setup_clock+0x84>
    b130:	ebfffdc5 	bl	a84c <get_clock_divider>
    b134:	e1844000 	orr	r4, r4, r0
    b138:	e3c4480f 	bic	r4, r4, #983040	@ 0xf0000
    b13c:	e384480b 	orr	r4, r4, #720896	@ 0xb0000
    b140:	e585402c 	str	r4, [r5, #44]	@ 0x2c
    b144:	e3a03e7d 	mov	r3, #2000	@ 0x7d0
    b148:	e3a02001 	mov	r2, #1
    b14c:	e3a01002 	mov	r1, #2
    b150:	e59f0044 	ldr	r0, [pc, #68]	@ b19c <emmc_setup_clock+0x88>
    b154:	ebfffe14 	bl	a9ac <wait_reg_mask>
    b158:	e2504000 	subs	r4, r0, #0
    b15c:	0a000009 	beq	b188 <emmc_setup_clock+0x74>
    b160:	e3a0001e 	mov	r0, #30
    b164:	eb0004fb 	bl	c558 <delay_ms>
    b168:	e59f2024 	ldr	r2, [pc, #36]	@ b194 <emmc_setup_clock+0x80>
    b16c:	e592302c 	ldr	r3, [r2, #44]	@ 0x2c
    b170:	e3833004 	orr	r3, r3, #4
    b174:	e582302c 	str	r3, [r2, #44]	@ 0x2c
    b178:	e3a0001e 	mov	r0, #30
    b17c:	eb0004f5 	bl	c558 <delay_ms>
    b180:	e1a00004 	mov	r0, r4
    b184:	e8bd8070 	pop	{r4, r5, r6, pc}
    b188:	e59f0010 	ldr	r0, [pc, #16]	@ b1a0 <emmc_setup_clock+0x8c>
    b18c:	eb000361 	bl	bf18 <printk>
    b190:	eafffffa 	b	b180 <emmc_setup_clock+0x6c>
    b194:	20300000 	.word	0x20300000
    b198:	0ee6b280 	.word	0x0ee6b280
    b19c:	2030002c 	.word	0x2030002c
    b1a0:	0000dc4c 	.word	0x0000dc4c

0000b1a4 <emmc_app_command>:
    b1a4:	e92d4070 	push	{r4, r5, r6, lr}
    b1a8:	e59f307c 	ldr	r3, [pc, #124]	@ b22c <emmc_app_command+0x88>
    b1ac:	e0833100 	add	r3, r3, r0, lsl #2
    b1b0:	e5d33003 	ldrb	r3, [r3, #3]
    b1b4:	e203303f 	and	r3, r3, #63	@ 0x3f
    b1b8:	e353003b 	cmp	r3, #59	@ 0x3b
    b1bc:	8a000016 	bhi	b21c <emmc_app_command+0x78>
    b1c0:	e1a04000 	mov	r4, r0
    b1c4:	e1a05001 	mov	r5, r1
    b1c8:	e59f3060 	ldr	r3, [pc, #96]	@ b230 <emmc_app_command+0x8c>
    b1cc:	e59f2058 	ldr	r2, [pc, #88]	@ b22c <emmc_app_command+0x88>
    b1d0:	e59220dc 	ldr	r2, [r2, #220]	@ 0xdc
    b1d4:	e5832008 	str	r2, [r3, #8]
    b1d8:	e5931028 	ldr	r1, [r3, #40]	@ 0x28
    b1dc:	e3510000 	cmp	r1, #0
    b1e0:	11a01801 	lslne	r1, r1, #16
    b1e4:	e3a02e7d 	mov	r2, #2000	@ 0x7d0
    b1e8:	e59f3040 	ldr	r3, [pc, #64]	@ b230 <emmc_app_command+0x8c>
    b1ec:	e5930008 	ldr	r0, [r3, #8]
    b1f0:	ebfffe41 	bl	aafc <emmc_issue_command>
    b1f4:	e3500000 	cmp	r0, #0
    b1f8:	08bd8070 	popeq	{r4, r5, r6, pc}
    b1fc:	e59f3028 	ldr	r3, [pc, #40]	@ b22c <emmc_app_command+0x88>
    b200:	e7930104 	ldr	r0, [r3, r4, lsl #2]
    b204:	e59f3024 	ldr	r3, [pc, #36]	@ b230 <emmc_app_command+0x8c>
    b208:	e5830008 	str	r0, [r3, #8]
    b20c:	e3a02e7d 	mov	r2, #2000	@ 0x7d0
    b210:	e1a01005 	mov	r1, r5
    b214:	ebfffe38 	bl	aafc <emmc_issue_command>
    b218:	e8bd8070 	pop	{r4, r5, r6, pc}
    b21c:	e59f0010 	ldr	r0, [pc, #16]	@ b234 <emmc_app_command+0x90>
    b220:	eb00033c 	bl	bf18 <printk>
    b224:	e3a00000 	mov	r0, #0
    b228:	e8bd8070 	pop	{r4, r5, r6, pc}
    b22c:	0000e540 	.word	0x0000e540
    b230:	0000f018 	.word	0x0000f018
    b234:	0000dc6c 	.word	0x0000dc6c

0000b238 <check_ocr>:
    b238:	e92d4010 	push	{r4, lr}
    b23c:	e3a02e7d 	mov	r2, #2000	@ 0x7d0
    b240:	e3a01000 	mov	r1, #0
    b244:	e3a00029 	mov	r0, #41	@ 0x29
    b248:	ebffffd5 	bl	b1a4 <emmc_app_command>
    b24c:	e2504000 	subs	r4, r0, #0
    b250:	0a000005 	beq	b26c <check_ocr+0x34>
    b254:	e59f2020 	ldr	r2, [pc, #32]	@ b27c <check_ocr+0x44>
    b258:	e5923014 	ldr	r3, [r2, #20]
    b25c:	e1a03423 	lsr	r3, r3, #8
    b260:	e1c232b6 	strh	r3, [r2, #38]	@ 0x26
    b264:	e1a00004 	mov	r0, r4
    b268:	e8bd8010 	pop	{r4, pc}
    b26c:	e3a01001 	mov	r1, #1
    b270:	e59f0008 	ldr	r0, [pc, #8]	@ b280 <check_ocr+0x48>
    b274:	eb000327 	bl	bf18 <printk>
    b278:	eafffff9 	b	b264 <check_ocr+0x2c>
    b27c:	0000f018 	.word	0x0000f018
    b280:	0000dc8c 	.word	0x0000dc8c

0000b284 <check_sdhc_support>:
    b284:	e92d4070 	push	{r4, r5, r6, lr}
    b288:	e1a05000 	mov	r5, r0
    b28c:	ea00000d 	b	b2c8 <check_sdhc_support+0x44>
    b290:	e3a01101 	mov	r1, #1073741824	@ 0x40000000
    b294:	e3a02e7d 	mov	r2, #2000	@ 0x7d0
    b298:	e38118ff 	orr	r1, r1, #16711680	@ 0xff0000
    b29c:	e3811902 	orr	r1, r1, #32768	@ 0x8000
    b2a0:	e3a00029 	mov	r0, #41	@ 0x29
    b2a4:	ebffffbe 	bl	b1a4 <emmc_app_command>
    b2a8:	e2504000 	subs	r4, r0, #0
    b2ac:	0a000009 	beq	b2d8 <check_sdhc_support+0x54>
    b2b0:	e59f304c 	ldr	r3, [pc, #76]	@ b304 <check_sdhc_support+0x80>
    b2b4:	e5933014 	ldr	r3, [r3, #20]
    b2b8:	e3530000 	cmp	r3, #0
    b2bc:	ba000009 	blt	b2e8 <check_sdhc_support+0x64>
    b2c0:	e3a00f7d 	mov	r0, #500	@ 0x1f4
    b2c4:	eb0004a3 	bl	c558 <delay_ms>
    b2c8:	e3550000 	cmp	r5, #0
    b2cc:	1affffef 	bne	b290 <check_sdhc_support+0xc>
    b2d0:	e3a01000 	mov	r1, #0
    b2d4:	eaffffee 	b	b294 <check_sdhc_support+0x10>
    b2d8:	e59f0028 	ldr	r0, [pc, #40]	@ b308 <check_sdhc_support+0x84>
    b2dc:	eb00030d 	bl	bf18 <printk>
    b2e0:	e1a00004 	mov	r0, r4
    b2e4:	e8bd8070 	pop	{r4, r5, r6, pc}
    b2e8:	e1a01423 	lsr	r1, r3, #8
    b2ec:	e59f2010 	ldr	r2, [pc, #16]	@ b304 <check_sdhc_support+0x80>
    b2f0:	e1c212b6 	strh	r1, [r2, #38]	@ 0x26
    b2f4:	e1a03f23 	lsr	r3, r3, #30
    b2f8:	e2033001 	and	r3, r3, #1
    b2fc:	e5c23024 	strb	r3, [r2, #36]	@ 0x24
    b300:	eafffff6 	b	b2e0 <check_sdhc_support+0x5c>
    b304:	0000f018 	.word	0x0000f018
    b308:	0000dcb8 	.word	0x0000dcb8

0000b30c <set_scr>:
    b30c:	e92d4010 	push	{r4, lr}
    b310:	e59f313c 	ldr	r3, [pc, #316]	@ b454 <set_scr+0x148>
    b314:	e5d33024 	ldrb	r3, [r3, #36]	@ 0x24
    b318:	e3530000 	cmp	r3, #0
    b31c:	1a000005 	bne	b338 <set_scr+0x2c>
    b320:	e3a02e7d 	mov	r2, #2000	@ 0x7d0
    b324:	e3a01c02 	mov	r1, #512	@ 0x200
    b328:	e3a00010 	mov	r0, #16
    b32c:	ebfffe74 	bl	ad04 <emmc_command>
    b330:	e2504000 	subs	r4, r0, #0
    b334:	0a00002a 	beq	b3e4 <set_scr+0xd8>
    b338:	e59f2118 	ldr	r2, [pc, #280]	@ b458 <set_scr+0x14c>
    b33c:	e5923004 	ldr	r3, [r2, #4]
    b340:	e3c33eff 	bic	r3, r3, #4080	@ 0xff0
    b344:	e3c3300f 	bic	r3, r3, #15
    b348:	e3833c02 	orr	r3, r3, #512	@ 0x200
    b34c:	e5823004 	str	r3, [r2, #4]
    b350:	e59f30fc 	ldr	r3, [pc, #252]	@ b454 <set_scr+0x148>
    b354:	e2832048 	add	r2, r3, #72	@ 0x48
    b358:	e5832038 	str	r2, [r3, #56]	@ 0x38
    b35c:	e3a02008 	mov	r2, #8
    b360:	e5832010 	str	r2, [r3, #16]
    b364:	e3a02001 	mov	r2, #1
    b368:	e5832004 	str	r2, [r3, #4]
    b36c:	e59f20e8 	ldr	r2, [pc, #232]	@ b45c <set_scr+0x150>
    b370:	e3a01000 	mov	r1, #0
    b374:	e3a00033 	mov	r0, #51	@ 0x33
    b378:	ebffff89 	bl	b1a4 <emmc_app_command>
    b37c:	e2504000 	subs	r4, r0, #0
    b380:	0a00001a 	beq	b3f0 <set_scr+0xe4>
    b384:	e59f10c8 	ldr	r1, [pc, #200]	@ b454 <set_scr+0x148>
    b388:	e3a03c02 	mov	r3, #512	@ 0x200
    b38c:	e5813010 	str	r3, [r1, #16]
    b390:	e5913048 	ldr	r3, [r1, #72]	@ 0x48
    b394:	e1a02403 	lsl	r2, r3, #8
    b398:	e20228ff 	and	r2, r2, #16711680	@ 0xff0000
    b39c:	e1822c03 	orr	r2, r2, r3, lsl #24
    b3a0:	e1a03423 	lsr	r3, r3, #8
    b3a4:	e2033cff 	and	r3, r3, #65280	@ 0xff00
    b3a8:	e1823003 	orr	r3, r2, r3
    b3ac:	e3e00000 	mvn	r0, #0
    b3b0:	e5810054 	str	r0, [r1, #84]	@ 0x54
    b3b4:	e1a02c22 	lsr	r2, r2, #24
    b3b8:	e1a017a3 	lsr	r1, r3, #15
    b3bc:	e2011001 	and	r1, r1, #1
    b3c0:	e1a03523 	lsr	r3, r3, #10
    b3c4:	e2033001 	and	r3, r3, #1
    b3c8:	e212200f 	ands	r2, r2, #15
    b3cc:	1a00000a 	bne	b3fc <set_scr+0xf0>
    b3d0:	e59f307c 	ldr	r3, [pc, #124]	@ b454 <set_scr+0x148>
    b3d4:	e3a02001 	mov	r2, #1
    b3d8:	e5832054 	str	r2, [r3, #84]	@ 0x54
    b3dc:	e1a00004 	mov	r0, r4
    b3e0:	e8bd8010 	pop	{r4, pc}
    b3e4:	e59f0074 	ldr	r0, [pc, #116]	@ b460 <set_scr+0x154>
    b3e8:	eb0002ca 	bl	bf18 <printk>
    b3ec:	eafffffa 	b	b3dc <set_scr+0xd0>
    b3f0:	e59f006c 	ldr	r0, [pc, #108]	@ b464 <set_scr+0x158>
    b3f4:	eb0002c7 	bl	bf18 <printk>
    b3f8:	eafffff7 	b	b3dc <set_scr+0xd0>
    b3fc:	e3520001 	cmp	r2, #1
    b400:	0a000006 	beq	b420 <set_scr+0x114>
    b404:	e3520002 	cmp	r2, #2
    b408:	1afffff3 	bne	b3dc <set_scr+0xd0>
    b40c:	e3510000 	cmp	r1, #0
    b410:	1a000006 	bne	b430 <set_scr+0x124>
    b414:	e59f3038 	ldr	r3, [pc, #56]	@ b454 <set_scr+0x148>
    b418:	e5832054 	str	r2, [r3, #84]	@ 0x54
    b41c:	eaffffee 	b	b3dc <set_scr+0xd0>
    b420:	e59f302c 	ldr	r3, [pc, #44]	@ b454 <set_scr+0x148>
    b424:	e3a0200b 	mov	r2, #11
    b428:	e5832054 	str	r2, [r3, #84]	@ 0x54
    b42c:	eaffffea 	b	b3dc <set_scr+0xd0>
    b430:	e3530000 	cmp	r3, #0
    b434:	159f3018 	ldrne	r3, [pc, #24]	@ b454 <set_scr+0x148>
    b438:	13a02004 	movne	r2, #4
    b43c:	15832054 	strne	r2, [r3, #84]	@ 0x54
    b440:	1affffe5 	bne	b3dc <set_scr+0xd0>
    b444:	e59f3008 	ldr	r3, [pc, #8]	@ b454 <set_scr+0x148>
    b448:	e3a02003 	mov	r2, #3
    b44c:	e5832054 	str	r2, [r3, #84]	@ 0x54
    b450:	eaffffe1 	b	b3dc <set_scr+0xd0>
    b454:	0000f018 	.word	0x0000f018
    b458:	20300000 	.word	0x20300000
    b45c:	00007530 	.word	0x00007530
    b460:	0000dcdc 	.word	0x0000dcdc
    b464:	0000dd00 	.word	0x0000dd00

0000b468 <emmc_card_reset>:
    b468:	e92d4070 	push	{r4, r5, r6, lr}
    b46c:	e59f30fc 	ldr	r3, [pc, #252]	@ b570 <emmc_card_reset+0x108>
    b470:	e3a02401 	mov	r2, #16777216	@ 0x1000000
    b474:	e583202c 	str	r2, [r3, #44]	@ 0x2c
    b478:	e3a03e7d 	mov	r3, #2000	@ 0x7d0
    b47c:	e3a02000 	mov	r2, #0
    b480:	e3a01407 	mov	r1, #117440512	@ 0x7000000
    b484:	e59f00e8 	ldr	r0, [pc, #232]	@ b574 <emmc_card_reset+0x10c>
    b488:	ebfffd47 	bl	a9ac <wait_reg_mask>
    b48c:	e2504000 	subs	r4, r0, #0
    b490:	0a00002f 	beq	b554 <emmc_card_reset+0xec>
    b494:	ebffff1e 	bl	b114 <emmc_setup_clock>
    b498:	e2504000 	subs	r4, r0, #0
    b49c:	0a00002e 	beq	b55c <emmc_card_reset+0xf4>
    b4a0:	e59f30c8 	ldr	r3, [pc, #200]	@ b570 <emmc_card_reset+0x108>
    b4a4:	e3a04000 	mov	r4, #0
    b4a8:	e5834038 	str	r4, [r3, #56]	@ 0x38
    b4ac:	e3e02000 	mvn	r2, #0
    b4b0:	e5832030 	str	r2, [r3, #48]	@ 0x30
    b4b4:	e5832034 	str	r2, [r3, #52]	@ 0x34
    b4b8:	e3a000cb 	mov	r0, #203	@ 0xcb
    b4bc:	eb000425 	bl	c558 <delay_ms>
    b4c0:	e59f30b0 	ldr	r3, [pc, #176]	@ b578 <emmc_card_reset+0x110>
    b4c4:	e5834004 	str	r4, [r3, #4]
    b4c8:	e583400c 	str	r4, [r3, #12]
    b4cc:	e5c34000 	strb	r4, [r3]
    b4d0:	e5834010 	str	r4, [r3, #16]
    b4d4:	e3a02e7d 	mov	r2, #2000	@ 0x7d0
    b4d8:	e1a01004 	mov	r1, r4
    b4dc:	e1a00004 	mov	r0, r4
    b4e0:	ebfffe07 	bl	ad04 <emmc_command>
    b4e4:	e2504000 	subs	r4, r0, #0
    b4e8:	0a00001d 	beq	b564 <emmc_card_reset+0xfc>
    b4ec:	ebfffe1f 	bl	ad70 <check_v2_card>
    b4f0:	e1a05000 	mov	r5, r0
    b4f4:	ebfffe50 	bl	ae3c <check_usable_card>
    b4f8:	e2504000 	subs	r4, r0, #0
    b4fc:	0a000016 	beq	b55c <emmc_card_reset+0xf4>
    b500:	ebffff4c 	bl	b238 <check_ocr>
    b504:	e2504000 	subs	r4, r0, #0
    b508:	0a000013 	beq	b55c <emmc_card_reset+0xf4>
    b50c:	e1a00005 	mov	r0, r5
    b510:	ebffff5b 	bl	b284 <check_sdhc_support>
    b514:	e2504000 	subs	r4, r0, #0
    b518:	0a00000f 	beq	b55c <emmc_card_reset+0xf4>
    b51c:	e3a0000a 	mov	r0, #10
    b520:	eb00040c 	bl	c558 <delay_ms>
    b524:	ebfffe65 	bl	aec0 <check_rca>
    b528:	e2504000 	subs	r4, r0, #0
    b52c:	0a00000a 	beq	b55c <emmc_card_reset+0xf4>
    b530:	ebfffe85 	bl	af4c <select_card>
    b534:	e2504000 	subs	r4, r0, #0
    b538:	0a000007 	beq	b55c <emmc_card_reset+0xf4>
    b53c:	ebffff72 	bl	b30c <set_scr>
    b540:	e2504000 	subs	r4, r0, #0
    b544:	159f3024 	ldrne	r3, [pc, #36]	@ b570 <emmc_card_reset+0x108>
    b548:	13e02000 	mvnne	r2, #0
    b54c:	15832030 	strne	r2, [r3, #48]	@ 0x30
    b550:	ea000001 	b	b55c <emmc_card_reset+0xf4>
    b554:	e59f0020 	ldr	r0, [pc, #32]	@ b57c <emmc_card_reset+0x114>
    b558:	eb00026e 	bl	bf18 <printk>
    b55c:	e1a00004 	mov	r0, r4
    b560:	e8bd8070 	pop	{r4, r5, r6, pc}
    b564:	e59f0014 	ldr	r0, [pc, #20]	@ b580 <emmc_card_reset+0x118>
    b568:	eb00026a 	bl	bf18 <printk>
    b56c:	eafffffa 	b	b55c <emmc_card_reset+0xf4>
    b570:	20300000 	.word	0x20300000
    b574:	2030002c 	.word	0x2030002c
    b578:	0000f018 	.word	0x0000f018
    b57c:	0000dd20 	.word	0x0000dd20
    b580:	0000dd40 	.word	0x0000dd40

0000b584 <emmc_read>:
    b584:	e92d4030 	push	{r4, r5, lr}
    b588:	e24dd00c 	sub	sp, sp, #12
    b58c:	e1a03b82 	lsl	r3, r2, #23
    b590:	e1a03ba3 	lsr	r3, r3, #23
    b594:	e3530000 	cmp	r3, #0
    b598:	1a000009 	bne	b5c4 <emmc_read+0x40>
    b59c:	e1a05000 	mov	r5, r0
    b5a0:	e1a04002 	mov	r4, r2
    b5a4:	e1a03000 	mov	r3, r0
    b5a8:	e3a00000 	mov	r0, #0
    b5ac:	ebfffe82 	bl	afbc <do_data_command>
    b5b0:	e3500000 	cmp	r0, #0
    b5b4:	0a00000a 	beq	b5e4 <emmc_read+0x60>
    b5b8:	e1a00004 	mov	r0, r4
    b5bc:	e28dd00c 	add	sp, sp, #12
    b5c0:	e8bd8030 	pop	{r4, r5, pc}
    b5c4:	e59f3030 	ldr	r3, [pc, #48]	@ b5fc <emmc_read+0x78>
    b5c8:	e58d3000 	str	r3, [sp]
    b5cc:	e59f302c 	ldr	r3, [pc, #44]	@ b600 <emmc_read+0x7c>
    b5d0:	e59f202c 	ldr	r2, [pc, #44]	@ b604 <emmc_read+0x80>
    b5d4:	e59f102c 	ldr	r1, [pc, #44]	@ b608 <emmc_read+0x84>
    b5d8:	e59f002c 	ldr	r0, [pc, #44]	@ b60c <emmc_read+0x88>
    b5dc:	eb00024d 	bl	bf18 <printk>
    b5e0:	eb00035f 	bl	c364 <clean_reboot>
    b5e4:	e1a02004 	mov	r2, r4
    b5e8:	e1a01005 	mov	r1, r5
    b5ec:	e59f001c 	ldr	r0, [pc, #28]	@ b610 <emmc_read+0x8c>
    b5f0:	eb000248 	bl	bf18 <printk>
    b5f4:	e3e00000 	mvn	r0, #0
    b5f8:	eaffffef 	b	b5bc <emmc_read+0x38>
    b5fc:	0000dd60 	.word	0x0000dd60
    b600:	000002dd 	.word	0x000002dd
    b604:	0000e634 	.word	0x0000e634
    b608:	0000dbb4 	.word	0x0000dbb4
    b60c:	0000c818 	.word	0x0000c818
    b610:	0000dd70 	.word	0x0000dd70

0000b614 <emmc_write>:
    b614:	e92d4010 	push	{r4, lr}
    b618:	e24dd008 	sub	sp, sp, #8
    b61c:	e1a04002 	mov	r4, r2
    b620:	e1a02b82 	lsl	r2, r2, #23
    b624:	e1a02ba2 	lsr	r2, r2, #23
    b628:	e3520000 	cmp	r2, #0
    b62c:	1a000008 	bne	b654 <emmc_write+0x40>
    b630:	e1a03000 	mov	r3, r0
    b634:	e1a02004 	mov	r2, r4
    b638:	e3a00001 	mov	r0, #1
    b63c:	ebfffe5e 	bl	afbc <do_data_command>
    b640:	e3500000 	cmp	r0, #0
    b644:	0a00000a 	beq	b674 <emmc_write+0x60>
    b648:	e1a00004 	mov	r0, r4
    b64c:	e28dd008 	add	sp, sp, #8
    b650:	e8bd8010 	pop	{r4, pc}
    b654:	e59f302c 	ldr	r3, [pc, #44]	@ b688 <emmc_write+0x74>
    b658:	e58d3000 	str	r3, [sp]
    b65c:	e3a03e2f 	mov	r3, #752	@ 0x2f0
    b660:	e59f2024 	ldr	r2, [pc, #36]	@ b68c <emmc_write+0x78>
    b664:	e59f1024 	ldr	r1, [pc, #36]	@ b690 <emmc_write+0x7c>
    b668:	e59f0024 	ldr	r0, [pc, #36]	@ b694 <emmc_write+0x80>
    b66c:	eb000229 	bl	bf18 <printk>
    b670:	eb00033b 	bl	c364 <clean_reboot>
    b674:	e1a01000 	mov	r1, r0
    b678:	e59f0018 	ldr	r0, [pc, #24]	@ b698 <emmc_write+0x84>
    b67c:	eb000225 	bl	bf18 <printk>
    b680:	e3e00000 	mvn	r0, #0
    b684:	eafffff0 	b	b64c <emmc_write+0x38>
    b688:	0000dd60 	.word	0x0000dd60
    b68c:	0000e640 	.word	0x0000e640
    b690:	0000dbb4 	.word	0x0000dbb4
    b694:	0000c818 	.word	0x0000c818
    b698:	0000dd9c 	.word	0x0000dd9c

0000b69c <emmc_init>:
    b69c:	e92d4070 	push	{r4, r5, r6, lr}
    b6a0:	e3a01000 	mov	r1, #0
    b6a4:	e3a00022 	mov	r0, #34	@ 0x22
    b6a8:	eb00011f 	bl	bb2c <gpio_set_function>
    b6ac:	e3a01000 	mov	r1, #0
    b6b0:	e3a00023 	mov	r0, #35	@ 0x23
    b6b4:	eb00011c 	bl	bb2c <gpio_set_function>
    b6b8:	e3a01000 	mov	r1, #0
    b6bc:	e3a00024 	mov	r0, #36	@ 0x24
    b6c0:	eb000119 	bl	bb2c <gpio_set_function>
    b6c4:	e3a01000 	mov	r1, #0
    b6c8:	e3a00025 	mov	r0, #37	@ 0x25
    b6cc:	eb000116 	bl	bb2c <gpio_set_function>
    b6d0:	e3a01000 	mov	r1, #0
    b6d4:	e3a00026 	mov	r0, #38	@ 0x26
    b6d8:	eb000113 	bl	bb2c <gpio_set_function>
    b6dc:	e3a01000 	mov	r1, #0
    b6e0:	e3a00027 	mov	r0, #39	@ 0x27
    b6e4:	eb000110 	bl	bb2c <gpio_set_function>
    b6e8:	e3a01007 	mov	r1, #7
    b6ec:	e3a00030 	mov	r0, #48	@ 0x30
    b6f0:	eb00010d 	bl	bb2c <gpio_set_function>
    b6f4:	e3a01007 	mov	r1, #7
    b6f8:	e3a00031 	mov	r0, #49	@ 0x31
    b6fc:	eb00010a 	bl	bb2c <gpio_set_function>
    b700:	e3a01007 	mov	r1, #7
    b704:	e3a00032 	mov	r0, #50	@ 0x32
    b708:	eb000107 	bl	bb2c <gpio_set_function>
    b70c:	e3a01007 	mov	r1, #7
    b710:	e3a00033 	mov	r0, #51	@ 0x33
    b714:	eb000104 	bl	bb2c <gpio_set_function>
    b718:	e3a01007 	mov	r1, #7
    b71c:	e3a00034 	mov	r0, #52	@ 0x34
    b720:	eb000101 	bl	bb2c <gpio_set_function>
    b724:	e59f305c 	ldr	r3, [pc, #92]	@ b788 <emmc_init+0xec>
    b728:	e3a00000 	mov	r0, #0
    b72c:	e5830004 	str	r0, [r3, #4]
    b730:	e583000c 	str	r0, [r3, #12]
    b734:	e5c30000 	strb	r0, [r3]
    b738:	e5830010 	str	r0, [r3, #16]
    b73c:	e5c30024 	strb	r0, [r3, #36]	@ 0x24
    b740:	e1c302b6 	strh	r0, [r3, #38]	@ 0x26
    b744:	e5830028 	str	r0, [r3, #40]	@ 0x28
    b748:	e583003c 	str	r0, [r3, #60]	@ 0x3c
    b74c:	e1a05000 	mov	r5, r0
    b750:	e1a04000 	mov	r4, r0
    b754:	e3550009 	cmp	r5, #9
    b758:	ca000008 	bgt	b780 <emmc_init+0xe4>
    b75c:	ebffff41 	bl	b468 <emmc_card_reset>
    b760:	e2504000 	subs	r4, r0, #0
    b764:	1a000005 	bne	b780 <emmc_init+0xe4>
    b768:	e3a00064 	mov	r0, #100	@ 0x64
    b76c:	eb000379 	bl	c558 <delay_ms>
    b770:	e59f0014 	ldr	r0, [pc, #20]	@ b78c <emmc_init+0xf0>
    b774:	eb0001e7 	bl	bf18 <printk>
    b778:	e2855001 	add	r5, r5, #1
    b77c:	eafffff4 	b	b754 <emmc_init+0xb8>
    b780:	e1a00004 	mov	r0, r4
    b784:	e8bd8070 	pop	{r4, r5, r6, pc}
    b788:	0000f018 	.word	0x0000f018
    b78c:	0000ddb8 	.word	0x0000ddb8

0000b790 <kmalloc_heap_end>:
    b790:	e59f3004 	ldr	r3, [pc, #4]	@ b79c <kmalloc_heap_end+0xc>
    b794:	e5930000 	ldr	r0, [r3]
    b798:	e12fff1e 	bx	lr
    b79c:	0000f070 	.word	0x0000f070

0000b7a0 <kmalloc_heap_start>:
    b7a0:	e59f3004 	ldr	r3, [pc, #4]	@ b7ac <kmalloc_heap_start+0xc>
    b7a4:	e5930004 	ldr	r0, [r3, #4]
    b7a8:	e12fff1e 	bx	lr
    b7ac:	0000f070 	.word	0x0000f070

0000b7b0 <kmalloc_heap_ptr>:
    b7b0:	e59f3004 	ldr	r3, [pc, #4]	@ b7bc <kmalloc_heap_ptr+0xc>
    b7b4:	e5930008 	ldr	r0, [r3, #8]
    b7b8:	e12fff1e 	bx	lr
    b7bc:	0000f070 	.word	0x0000f070

0000b7c0 <kmalloc_init_set_start>:
    b7c0:	e92d4030 	push	{r4, r5, lr}
    b7c4:	e24dd00c 	sub	sp, sp, #12
    b7c8:	e1a04000 	mov	r4, r0
    b7cc:	e1a05001 	mov	r5, r1
    b7d0:	eb00032a 	bl	c480 <program_end>
    b7d4:	e1540000 	cmp	r4, r0
    b7d8:	3a000010 	bcc	b820 <kmalloc_init_set_start+0x60>
    b7dc:	e3550000 	cmp	r5, #0
    b7e0:	0a000014 	beq	b838 <kmalloc_init_set_start+0x78>
    b7e4:	e59f30ac 	ldr	r3, [pc, #172]	@ b898 <kmalloc_init_set_start+0xd8>
    b7e8:	e5933004 	ldr	r3, [r3, #4]
    b7ec:	e1530004 	cmp	r3, r4
    b7f0:	8a000018 	bhi	b858 <kmalloc_init_set_start+0x98>
    b7f4:	e59f309c 	ldr	r3, [pc, #156]	@ b898 <kmalloc_init_set_start+0xd8>
    b7f8:	e5933008 	ldr	r3, [r3, #8]
    b7fc:	e1530004 	cmp	r3, r4
    b800:	8a00001a 	bhi	b870 <kmalloc_init_set_start+0xb0>
    b804:	e59f308c 	ldr	r3, [pc, #140]	@ b898 <kmalloc_init_set_start+0xd8>
    b808:	e5834008 	str	r4, [r3, #8]
    b80c:	e5834004 	str	r4, [r3, #4]
    b810:	e0844005 	add	r4, r4, r5
    b814:	e5834000 	str	r4, [r3]
    b818:	e28dd00c 	add	sp, sp, #12
    b81c:	e8bd8030 	pop	{r4, r5, pc}
    b820:	e3a03030 	mov	r3, #48	@ 0x30
    b824:	e59f2070 	ldr	r2, [pc, #112]	@ b89c <kmalloc_init_set_start+0xdc>
    b828:	e59f1070 	ldr	r1, [pc, #112]	@ b8a0 <kmalloc_init_set_start+0xe0>
    b82c:	e59f0070 	ldr	r0, [pc, #112]	@ b8a4 <kmalloc_init_set_start+0xe4>
    b830:	eb0001b8 	bl	bf18 <printk>
    b834:	eb0002ca 	bl	c364 <clean_reboot>
    b838:	e59f3068 	ldr	r3, [pc, #104]	@ b8a8 <kmalloc_init_set_start+0xe8>
    b83c:	e58d3000 	str	r3, [sp]
    b840:	e3a03032 	mov	r3, #50	@ 0x32
    b844:	e59f2050 	ldr	r2, [pc, #80]	@ b89c <kmalloc_init_set_start+0xdc>
    b848:	e59f1050 	ldr	r1, [pc, #80]	@ b8a0 <kmalloc_init_set_start+0xe0>
    b84c:	e59f0058 	ldr	r0, [pc, #88]	@ b8ac <kmalloc_init_set_start+0xec>
    b850:	eb0001b0 	bl	bf18 <printk>
    b854:	eb0002c2 	bl	c364 <clean_reboot>
    b858:	e3a03034 	mov	r3, #52	@ 0x34
    b85c:	e59f2038 	ldr	r2, [pc, #56]	@ b89c <kmalloc_init_set_start+0xdc>
    b860:	e59f1038 	ldr	r1, [pc, #56]	@ b8a0 <kmalloc_init_set_start+0xe0>
    b864:	e59f0044 	ldr	r0, [pc, #68]	@ b8b0 <kmalloc_init_set_start+0xf0>
    b868:	eb0001aa 	bl	bf18 <printk>
    b86c:	eb0002bc 	bl	c364 <clean_reboot>
    b870:	e59f3020 	ldr	r3, [pc, #32]	@ b898 <kmalloc_init_set_start+0xd8>
    b874:	e5933000 	ldr	r3, [r3]
    b878:	e58d3004 	str	r3, [sp, #4]
    b87c:	e58d4000 	str	r4, [sp]
    b880:	e3a03038 	mov	r3, #56	@ 0x38
    b884:	e59f2010 	ldr	r2, [pc, #16]	@ b89c <kmalloc_init_set_start+0xdc>
    b888:	e59f1010 	ldr	r1, [pc, #16]	@ b8a0 <kmalloc_init_set_start+0xe0>
    b88c:	e59f0020 	ldr	r0, [pc, #32]	@ b8b4 <kmalloc_init_set_start+0xf4>
    b890:	eb0001a0 	bl	bf18 <printk>
    b894:	eb0002b2 	bl	c364 <clean_reboot>
    b898:	0000f070 	.word	0x0000f070
    b89c:	0000e64c 	.word	0x0000e64c
    b8a0:	0000ddec 	.word	0x0000ddec
    b8a4:	0000ddf8 	.word	0x0000ddf8
    b8a8:	0000de20 	.word	0x0000de20
    b8ac:	0000c818 	.word	0x0000c818
    b8b0:	0000de2c 	.word	0x0000de2c
    b8b4:	0000de78 	.word	0x0000de78

0000b8b8 <kmalloc_notzero>:
    b8b8:	e52de004 	push	{lr}		@ (str lr, [sp, #-4]!)
    b8bc:	e24dd00c 	sub	sp, sp, #12
    b8c0:	e3500000 	cmp	r0, #0
    b8c4:	0a00000f 	beq	b908 <kmalloc_notzero+0x50>
    b8c8:	e2800007 	add	r0, r0, #7
    b8cc:	e3c03007 	bic	r3, r0, #7
    b8d0:	e59f20ac 	ldr	r2, [pc, #172]	@ b984 <kmalloc_notzero+0xcc>
    b8d4:	e5920008 	ldr	r0, [r2, #8]
    b8d8:	e3100007 	tst	r0, #7
    b8dc:	1a000011 	bne	b928 <kmalloc_notzero+0x70>
    b8e0:	e3500000 	cmp	r0, #0
    b8e4:	0a000017 	beq	b948 <kmalloc_notzero+0x90>
    b8e8:	e0802003 	add	r2, r0, r3
    b8ec:	e59f1090 	ldr	r1, [pc, #144]	@ b984 <kmalloc_notzero+0xcc>
    b8f0:	e5812008 	str	r2, [r1, #8]
    b8f4:	e5911000 	ldr	r1, [r1]
    b8f8:	e1520001 	cmp	r2, r1
    b8fc:	8a000017 	bhi	b960 <kmalloc_notzero+0xa8>
    b900:	e28dd00c 	add	sp, sp, #12
    b904:	e49df004 	pop	{pc}		@ (ldr pc, [sp], #4)
    b908:	e59f3078 	ldr	r3, [pc, #120]	@ b988 <kmalloc_notzero+0xd0>
    b90c:	e58d3000 	str	r3, [sp]
    b910:	e3a03041 	mov	r3, #65	@ 0x41
    b914:	e59f2070 	ldr	r2, [pc, #112]	@ b98c <kmalloc_notzero+0xd4>
    b918:	e59f1070 	ldr	r1, [pc, #112]	@ b990 <kmalloc_notzero+0xd8>
    b91c:	e59f0070 	ldr	r0, [pc, #112]	@ b994 <kmalloc_notzero+0xdc>
    b920:	eb00017c 	bl	bf18 <printk>
    b924:	eb00028e 	bl	c364 <clean_reboot>
    b928:	e59f3068 	ldr	r3, [pc, #104]	@ b998 <kmalloc_notzero+0xe0>
    b92c:	e58d3000 	str	r3, [sp]
    b930:	e3a03044 	mov	r3, #68	@ 0x44
    b934:	e59f2050 	ldr	r2, [pc, #80]	@ b98c <kmalloc_notzero+0xd4>
    b938:	e59f1050 	ldr	r1, [pc, #80]	@ b990 <kmalloc_notzero+0xd8>
    b93c:	e59f0050 	ldr	r0, [pc, #80]	@ b994 <kmalloc_notzero+0xdc>
    b940:	eb000174 	bl	bf18 <printk>
    b944:	eb000286 	bl	c364 <clean_reboot>
    b948:	e3a03048 	mov	r3, #72	@ 0x48
    b94c:	e59f2038 	ldr	r2, [pc, #56]	@ b98c <kmalloc_notzero+0xd4>
    b950:	e59f1038 	ldr	r1, [pc, #56]	@ b990 <kmalloc_notzero+0xd8>
    b954:	e59f0040 	ldr	r0, [pc, #64]	@ b99c <kmalloc_notzero+0xe4>
    b958:	eb00016e 	bl	bf18 <printk>
    b95c:	eb000280 	bl	c364 <clean_reboot>
    b960:	e0422001 	sub	r2, r2, r1
    b964:	e58d2004 	str	r2, [sp, #4]
    b968:	e58d3000 	str	r3, [sp]
    b96c:	e3a0304c 	mov	r3, #76	@ 0x4c
    b970:	e59f2014 	ldr	r2, [pc, #20]	@ b98c <kmalloc_notzero+0xd4>
    b974:	e59f1014 	ldr	r1, [pc, #20]	@ b990 <kmalloc_notzero+0xd8>
    b978:	e59f0020 	ldr	r0, [pc, #32]	@ b9a0 <kmalloc_notzero+0xe8>
    b97c:	eb000165 	bl	bf18 <printk>
    b980:	eb000277 	bl	c364 <clean_reboot>
    b984:	0000f070 	.word	0x0000f070
    b988:	0000de24 	.word	0x0000de24
    b98c:	0000e664 	.word	0x0000e664
    b990:	0000ddec 	.word	0x0000ddec
    b994:	0000c818 	.word	0x0000c818
    b998:	0000debc 	.word	0x0000debc
    b99c:	0000ded4 	.word	0x0000ded4
    b9a0:	0000df00 	.word	0x0000df00

0000b9a4 <kmalloc>:
    b9a4:	e92d4030 	push	{r4, r5, lr}
    b9a8:	e24dd00c 	sub	sp, sp, #12
    b9ac:	e2504000 	subs	r4, r0, #0
    b9b0:	0a000008 	beq	b9d8 <kmalloc+0x34>
    b9b4:	e1a00004 	mov	r0, r4
    b9b8:	ebffffbe 	bl	b8b8 <kmalloc_notzero>
    b9bc:	e1a05000 	mov	r5, r0
    b9c0:	e1a02004 	mov	r2, r4
    b9c4:	e3a01000 	mov	r1, #0
    b9c8:	eb00012c 	bl	be80 <memset>
    b9cc:	e1a00005 	mov	r0, r5
    b9d0:	e28dd00c 	add	sp, sp, #12
    b9d4:	e8bd8030 	pop	{r4, r5, pc}
    b9d8:	e59f3018 	ldr	r3, [pc, #24]	@ b9f8 <kmalloc+0x54>
    b9dc:	e58d3000 	str	r3, [sp]
    b9e0:	e3a03054 	mov	r3, #84	@ 0x54
    b9e4:	e59f2010 	ldr	r2, [pc, #16]	@ b9fc <kmalloc+0x58>
    b9e8:	e59f1010 	ldr	r1, [pc, #16]	@ ba00 <kmalloc+0x5c>
    b9ec:	e59f0010 	ldr	r0, [pc, #16]	@ ba04 <kmalloc+0x60>
    b9f0:	eb000148 	bl	bf18 <printk>
    b9f4:	eb00025a 	bl	c364 <clean_reboot>
    b9f8:	0000de24 	.word	0x0000de24
    b9fc:	0000e674 	.word	0x0000e674
    ba00:	0000ddec 	.word	0x0000ddec
    ba04:	0000c818 	.word	0x0000c818

0000ba08 <kmalloc_aligned>:
    ba08:	e52de004 	push	{lr}		@ (str lr, [sp, #-4]!)
    ba0c:	e24dd00c 	sub	sp, sp, #12
    ba10:	e3500000 	cmp	r0, #0
    ba14:	0a000014 	beq	ba6c <kmalloc_aligned+0x64>
    ba18:	e2613000 	rsb	r3, r1, #0
    ba1c:	e1d13003 	bics	r3, r1, r3
    ba20:	1a000019 	bne	ba8c <kmalloc_aligned+0x84>
    ba24:	e3510008 	cmp	r1, #8
    ba28:	33a01008 	movcc	r1, #8
    ba2c:	e59f30b8 	ldr	r3, [pc, #184]	@ baec <kmalloc_aligned+0xe4>
    ba30:	e5932008 	ldr	r2, [r3, #8]
    ba34:	e2613000 	rsb	r3, r1, #0
    ba38:	e1d1c003 	bics	ip, r1, r3
    ba3c:	1a00001a 	bne	baac <kmalloc_aligned+0xa4>
    ba40:	e0822001 	add	r2, r2, r1
    ba44:	e2422001 	sub	r2, r2, #1
    ba48:	e0033002 	and	r3, r3, r2
    ba4c:	e2411001 	sub	r1, r1, #1
    ba50:	e1110003 	tst	r1, r3
    ba54:	1a00001c 	bne	bacc <kmalloc_aligned+0xc4>
    ba58:	e59f208c 	ldr	r2, [pc, #140]	@ baec <kmalloc_aligned+0xe4>
    ba5c:	e5823008 	str	r3, [r2, #8]
    ba60:	ebffffcf 	bl	b9a4 <kmalloc>
    ba64:	e28dd00c 	add	sp, sp, #12
    ba68:	e49df004 	pop	{pc}		@ (ldr pc, [sp], #4)
    ba6c:	e59f307c 	ldr	r3, [pc, #124]	@ baf0 <kmalloc_aligned+0xe8>
    ba70:	e58d3000 	str	r3, [sp]
    ba74:	e3a0305e 	mov	r3, #94	@ 0x5e
    ba78:	e59f2074 	ldr	r2, [pc, #116]	@ baf4 <kmalloc_aligned+0xec>
    ba7c:	e59f1074 	ldr	r1, [pc, #116]	@ baf8 <kmalloc_aligned+0xf0>
    ba80:	e59f0074 	ldr	r0, [pc, #116]	@ bafc <kmalloc_aligned+0xf4>
    ba84:	eb000123 	bl	bf18 <printk>
    ba88:	eb000235 	bl	c364 <clean_reboot>
    ba8c:	e59f306c 	ldr	r3, [pc, #108]	@ bb00 <kmalloc_aligned+0xf8>
    ba90:	e58d3000 	str	r3, [sp]
    ba94:	e3a0305f 	mov	r3, #95	@ 0x5f
    ba98:	e59f2054 	ldr	r2, [pc, #84]	@ baf4 <kmalloc_aligned+0xec>
    ba9c:	e59f1054 	ldr	r1, [pc, #84]	@ baf8 <kmalloc_aligned+0xf0>
    baa0:	e59f005c 	ldr	r0, [pc, #92]	@ bb04 <kmalloc_aligned+0xfc>
    baa4:	eb00011b 	bl	bf18 <printk>
    baa8:	eb00022d 	bl	c364 <clean_reboot>
    baac:	e59f3054 	ldr	r3, [pc, #84]	@ bb08 <kmalloc_aligned+0x100>
    bab0:	e58d3000 	str	r3, [sp]
    bab4:	e3a03011 	mov	r3, #17
    bab8:	e59f204c 	ldr	r2, [pc, #76]	@ bb0c <kmalloc_aligned+0x104>
    babc:	e59f1034 	ldr	r1, [pc, #52]	@ baf8 <kmalloc_aligned+0xf0>
    bac0:	e59f0034 	ldr	r0, [pc, #52]	@ bafc <kmalloc_aligned+0xf4>
    bac4:	eb000113 	bl	bf18 <printk>
    bac8:	eb000225 	bl	c364 <clean_reboot>
    bacc:	e59f303c 	ldr	r3, [pc, #60]	@ bb10 <kmalloc_aligned+0x108>
    bad0:	e58d3000 	str	r3, [sp]
    bad4:	e3a03066 	mov	r3, #102	@ 0x66
    bad8:	e59f2014 	ldr	r2, [pc, #20]	@ baf4 <kmalloc_aligned+0xec>
    badc:	e59f1014 	ldr	r1, [pc, #20]	@ baf8 <kmalloc_aligned+0xf0>
    bae0:	e59f002c 	ldr	r0, [pc, #44]	@ bb14 <kmalloc_aligned+0x10c>
    bae4:	eb00010b 	bl	bf18 <printk>
    bae8:	eb00021d 	bl	c364 <clean_reboot>
    baec:	0000f070 	.word	0x0000f070
    baf0:	0000de24 	.word	0x0000de24
    baf4:	0000e67c 	.word	0x0000e67c
    baf8:	0000ddec 	.word	0x0000ddec
    bafc:	0000c818 	.word	0x0000c818
    bb00:	0000df88 	.word	0x0000df88
    bb04:	0000df48 	.word	0x0000df48
    bb08:	0000df9c 	.word	0x0000df9c
    bb0c:	0000e68c 	.word	0x0000e68c
    bb10:	0000dfe0 	.word	0x0000dfe0
    bb14:	0000dfa8 	.word	0x0000dfa8

0000bb18 <kfree_all>:
    bb18:	e59f3008 	ldr	r3, [pc, #8]	@ bb28 <kfree_all+0x10>
    bb1c:	e5932004 	ldr	r2, [r3, #4]
    bb20:	e5832008 	str	r2, [r3, #8]
    bb24:	e12fff1e 	bx	lr
    bb28:	0000f070 	.word	0x0000f070

0000bb2c <gpio_set_function>:
    bb2c:	e350002f 	cmp	r0, #47	@ 0x2f
    bb30:	1350001f 	cmpne	r0, #31
    bb34:	812fff1e 	bxhi	lr
    bb38:	e3510007 	cmp	r1, #7
    bb3c:	812fff1e 	bxhi	lr
    bb40:	e92d4070 	push	{r4, r5, r6, lr}
    bb44:	e59f3044 	ldr	r3, [pc, #68]	@ bb90 <gpio_set_function+0x64>
    bb48:	e0832093 	umull	r2, r3, r3, r0
    bb4c:	e1a031a3 	lsr	r3, r3, #3
    bb50:	e1a02103 	lsl	r2, r3, #2
    bb54:	e2825202 	add	r5, r2, #536870912	@ 0x20000000
    bb58:	e2855602 	add	r5, r5, #2097152	@ 0x200000
    bb5c:	e0822003 	add	r2, r2, r3
    bb60:	e0400082 	sub	r0, r0, r2, lsl #1
    bb64:	e0800080 	add	r0, r0, r0, lsl #1
    bb68:	e1a04011 	lsl	r4, r1, r0
    bb6c:	e3a06007 	mov	r6, #7
    bb70:	e1a06016 	lsl	r6, r6, r0
    bb74:	e1a00005 	mov	r0, r5
    bb78:	ebfff12b 	bl	802c <GET32>
    bb7c:	e1c01006 	bic	r1, r0, r6
    bb80:	e1841001 	orr	r1, r4, r1
    bb84:	e1a00005 	mov	r0, r5
    bb88:	ebfff125 	bl	8024 <PUT32>
    bb8c:	e8bd8070 	pop	{r4, r5, r6, pc}
    bb90:	cccccccd 	.word	0xcccccccd

0000bb94 <gpio_set_output>:
    bb94:	e92d4010 	push	{r4, lr}
    bb98:	e3a01001 	mov	r1, #1
    bb9c:	ebffffe2 	bl	bb2c <gpio_set_function>
    bba0:	e8bd8010 	pop	{r4, pc}

0000bba4 <gpio_set_on>:
    bba4:	e350002f 	cmp	r0, #47	@ 0x2f
    bba8:	1350001f 	cmpne	r0, #31
    bbac:	812fff1e 	bxhi	lr
    bbb0:	e92d4010 	push	{r4, lr}
    bbb4:	e350001f 	cmp	r0, #31
    bbb8:	8a000004 	bhi	bbd0 <gpio_set_on+0x2c>
    bbbc:	e3a01001 	mov	r1, #1
    bbc0:	e1a01011 	lsl	r1, r1, r0
    bbc4:	e59f001c 	ldr	r0, [pc, #28]	@ bbe8 <gpio_set_on+0x44>
    bbc8:	ebfff115 	bl	8024 <PUT32>
    bbcc:	e8bd8010 	pop	{r4, pc}
    bbd0:	e2400020 	sub	r0, r0, #32
    bbd4:	e3a01001 	mov	r1, #1
    bbd8:	e1a01011 	lsl	r1, r1, r0
    bbdc:	e59f0008 	ldr	r0, [pc, #8]	@ bbec <gpio_set_on+0x48>
    bbe0:	ebfff10f 	bl	8024 <PUT32>
    bbe4:	e8bd8010 	pop	{r4, pc}
    bbe8:	2020001c 	.word	0x2020001c
    bbec:	20200020 	.word	0x20200020

0000bbf0 <gpio_set_off>:
    bbf0:	e350002f 	cmp	r0, #47	@ 0x2f
    bbf4:	1350001f 	cmpne	r0, #31
    bbf8:	812fff1e 	bxhi	lr
    bbfc:	e92d4010 	push	{r4, lr}
    bc00:	e350001f 	cmp	r0, #31
    bc04:	8a000004 	bhi	bc1c <gpio_set_off+0x2c>
    bc08:	e3a01001 	mov	r1, #1
    bc0c:	e1a01011 	lsl	r1, r1, r0
    bc10:	e59f001c 	ldr	r0, [pc, #28]	@ bc34 <gpio_set_off+0x44>
    bc14:	ebfff102 	bl	8024 <PUT32>
    bc18:	e8bd8010 	pop	{r4, pc}
    bc1c:	e2400020 	sub	r0, r0, #32
    bc20:	e3a01001 	mov	r1, #1
    bc24:	e1a01011 	lsl	r1, r1, r0
    bc28:	e59f0008 	ldr	r0, [pc, #8]	@ bc38 <gpio_set_off+0x48>
    bc2c:	ebfff0fc 	bl	8024 <PUT32>
    bc30:	e8bd8010 	pop	{r4, pc}
    bc34:	20200028 	.word	0x20200028
    bc38:	2020002c 	.word	0x2020002c

0000bc3c <gpio_write>:
    bc3c:	e92d4010 	push	{r4, lr}
    bc40:	e3510000 	cmp	r1, #0
    bc44:	0a000001 	beq	bc50 <gpio_write+0x14>
    bc48:	ebffffd5 	bl	bba4 <gpio_set_on>
    bc4c:	e8bd8010 	pop	{r4, pc}
    bc50:	ebffffe6 	bl	bbf0 <gpio_set_off>
    bc54:	e8bd8010 	pop	{r4, pc}

0000bc58 <gpio_set_input>:
    bc58:	e92d4010 	push	{r4, lr}
    bc5c:	e3a01000 	mov	r1, #0
    bc60:	ebffffb1 	bl	bb2c <gpio_set_function>
    bc64:	e8bd8010 	pop	{r4, pc}

0000bc68 <gpio_read>:
    bc68:	e92d4010 	push	{r4, lr}
    bc6c:	e1a04000 	mov	r4, r0
    bc70:	e350001f 	cmp	r0, #31
    bc74:	8a000005 	bhi	bc90 <gpio_read+0x28>
    bc78:	e59f0020 	ldr	r0, [pc, #32]	@ bca0 <gpio_read+0x38>
    bc7c:	ebfff0ea 	bl	802c <GET32>
    bc80:	e3a03001 	mov	r3, #1
    bc84:	e0000413 	and	r0, r0, r3, lsl r4
    bc88:	e1a00430 	lsr	r0, r0, r4
    bc8c:	e8bd8010 	pop	{r4, pc}
    bc90:	e2404020 	sub	r4, r0, #32
    bc94:	e59f0008 	ldr	r0, [pc, #8]	@ bca4 <gpio_read+0x3c>
    bc98:	ebfff0e3 	bl	802c <GET32>
    bc9c:	eafffff7 	b	bc80 <gpio_read+0x18>
    bca0:	20200034 	.word	0x20200034
    bca4:	20200038 	.word	0x20200038

0000bca8 <our_crc32_inc>:
    bca8:	e1e02002 	mvn	r2, r2
    bcac:	ea000006 	b	bccc <our_crc32_inc+0x24>
    bcb0:	e4d03001 	ldrb	r3, [r0], #1
    bcb4:	e0233002 	eor	r3, r3, r2
    bcb8:	e6ef3073 	uxtb	r3, r3
    bcbc:	e59f101c 	ldr	r1, [pc, #28]	@ bce0 <our_crc32_inc+0x38>
    bcc0:	e7913103 	ldr	r3, [r1, r3, lsl #2]
    bcc4:	e0232422 	eor	r2, r3, r2, lsr #8
    bcc8:	e1a0100c 	mov	r1, ip
    bccc:	e241c001 	sub	ip, r1, #1
    bcd0:	e3510000 	cmp	r1, #0
    bcd4:	1afffff5 	bne	bcb0 <our_crc32_inc+0x8>
    bcd8:	e1e00002 	mvn	r0, r2
    bcdc:	e12fff1e 	bx	lr
    bce0:	0000e694 	.word	0x0000e694

0000bce4 <our_crc32>:
    bce4:	e92d4010 	push	{r4, lr}
    bce8:	e3a02000 	mov	r2, #0
    bcec:	ebffffed 	bl	bca8 <our_crc32_inc>
    bcf0:	e8bd8010 	pop	{r4, pc}

0000bcf4 <memcmp>:
    bcf4:	e92d4010 	push	{r4, lr}
    bcf8:	e1a04000 	mov	r4, r0
    bcfc:	e3a03000 	mov	r3, #0
    bd00:	ea000000 	b	bd08 <memcmp+0x14>
    bd04:	e2833001 	add	r3, r3, #1
    bd08:	e1530002 	cmp	r3, r2
    bd0c:	2a000004 	bcs	bd24 <memcmp+0x30>
    bd10:	e7d4c003 	ldrb	ip, [r4, r3]
    bd14:	e7d1e003 	ldrb	lr, [r1, r3]
    bd18:	e05c000e 	subs	r0, ip, lr
    bd1c:	0afffff8 	beq	bd04 <memcmp+0x10>
    bd20:	e8bd8010 	pop	{r4, pc}
    bd24:	e3a00000 	mov	r0, #0
    bd28:	e8bd8010 	pop	{r4, pc}

0000bd2c <memcpy256>:
    bd2c:	e92d40f0 	push	{r4, r5, r6, r7, lr}
    bd30:	e24dd00c 	sub	sp, sp, #12
    bd34:	e212401f 	ands	r4, r2, #31
    bd38:	01a06000 	moveq	r6, r0
    bd3c:	01a07001 	moveq	r7, r1
    bd40:	01a052a2 	lsreq	r5, r2, #5
    bd44:	0a00000f 	beq	bd88 <memcpy256+0x5c>
    bd48:	e3a03020 	mov	r3, #32
    bd4c:	e58d3004 	str	r3, [sp, #4]
    bd50:	e58d2000 	str	r2, [sp]
    bd54:	e3a0300f 	mov	r3, #15
    bd58:	e59f2038 	ldr	r2, [pc, #56]	@ bd98 <memcpy256+0x6c>
    bd5c:	e59f1038 	ldr	r1, [pc, #56]	@ bd9c <memcpy256+0x70>
    bd60:	e59f0038 	ldr	r0, [pc, #56]	@ bda0 <memcpy256+0x74>
    bd64:	eb00006b 	bl	bf18 <printk>
    bd68:	eb00017d 	bl	c364 <clean_reboot>
    bd6c:	e086c284 	add	ip, r6, r4, lsl #5
    bd70:	e087e284 	add	lr, r7, r4, lsl #5
    bd74:	e8be000f 	ldm	lr!, {r0, r1, r2, r3}
    bd78:	e8ac000f 	stmia	ip!, {r0, r1, r2, r3}
    bd7c:	e89e000f 	ldm	lr, {r0, r1, r2, r3}
    bd80:	e88c000f 	stm	ip, {r0, r1, r2, r3}
    bd84:	e2844001 	add	r4, r4, #1
    bd88:	e1540005 	cmp	r4, r5
    bd8c:	3afffff6 	bcc	bd6c <memcpy256+0x40>
    bd90:	e28dd00c 	add	sp, sp, #12
    bd94:	e8bd80f0 	pop	{r4, r5, r6, r7, pc}
    bd98:	0000ea94 	.word	0x0000ea94
    bd9c:	0000dffc 	.word	0x0000dffc
    bda0:	0000e00c 	.word	0x0000e00c

0000bda4 <memcpy>:
    bda4:	e3100007 	tst	r0, #7
    bda8:	1a00000f 	bne	bdec <memcpy+0x48>
    bdac:	e3110007 	tst	r1, #7
    bdb0:	1a00000d 	bne	bdec <memcpy+0x48>
    bdb4:	e2123007 	ands	r3, r2, #7
    bdb8:	1a00000b 	bne	bdec <memcpy+0x48>
    bdbc:	e1a021a2 	lsr	r2, r2, #3
    bdc0:	e1530002 	cmp	r3, r2
    bdc4:	212fff1e 	bxcs	lr
    bdc8:	e92d0030 	push	{r4, r5}
    bdcc:	e1a0c183 	lsl	ip, r3, #3
    bdd0:	e18140dc 	ldrd	r4, [r1, ip]
    bdd4:	e18040fc 	strd	r4, [r0, ip]
    bdd8:	e2833001 	add	r3, r3, #1
    bddc:	e1530002 	cmp	r3, r2
    bde0:	3afffff9 	bcc	bdcc <memcpy+0x28>
    bde4:	e8bd0030 	pop	{r4, r5}
    bde8:	e12fff1e 	bx	lr
    bdec:	e2103003 	ands	r3, r0, #3
    bdf0:	1a000011 	bne	be3c <memcpy+0x98>
    bdf4:	e211c003 	ands	ip, r1, #3
    bdf8:	1a00000c 	bne	be30 <memcpy+0x8c>
    bdfc:	e2123003 	ands	r3, r2, #3
    be00:	1a00000f 	bne	be44 <memcpy+0xa0>
    be04:	e1a02122 	lsr	r2, r2, #2
    be08:	ea000002 	b	be18 <memcpy+0x74>
    be0c:	e791c103 	ldr	ip, [r1, r3, lsl #2]
    be10:	e780c103 	str	ip, [r0, r3, lsl #2]
    be14:	e2833001 	add	r3, r3, #1
    be18:	e1530002 	cmp	r3, r2
    be1c:	3afffffa 	bcc	be0c <memcpy+0x68>
    be20:	e12fff1e 	bx	lr
    be24:	e7d1c003 	ldrb	ip, [r1, r3]
    be28:	e7c0c003 	strb	ip, [r0, r3]
    be2c:	e2833001 	add	r3, r3, #1
    be30:	e1530002 	cmp	r3, r2
    be34:	3afffffa 	bcc	be24 <memcpy+0x80>
    be38:	e12fff1e 	bx	lr
    be3c:	e3a03000 	mov	r3, #0
    be40:	eafffffa 	b	be30 <memcpy+0x8c>
    be44:	e1a0300c 	mov	r3, ip
    be48:	eafffff8 	b	be30 <memcpy+0x8c>

0000be4c <memcpy_end>:
    be4c:	e12fff1e 	bx	lr

0000be50 <memiszero>:
    be50:	e3a03000 	mov	r3, #0
    be54:	ea000000 	b	be5c <memiszero+0xc>
    be58:	e2833001 	add	r3, r3, #1
    be5c:	e1530001 	cmp	r3, r1
    be60:	2a000004 	bcs	be78 <memiszero+0x28>
    be64:	e7d02003 	ldrb	r2, [r0, r3]
    be68:	e3520000 	cmp	r2, #0
    be6c:	0afffff9 	beq	be58 <memiszero+0x8>
    be70:	e3a00000 	mov	r0, #0
    be74:	e12fff1e 	bx	lr
    be78:	e3a00001 	mov	r0, #1
    be7c:	e12fff1e 	bx	lr

0000be80 <memset>:
    be80:	e3520000 	cmp	r2, #0
    be84:	012fff1e 	bxeq	lr
    be88:	e3510000 	cmp	r1, #0
    be8c:	1a000007 	bne	beb0 <memset+0x30>
    be90:	e3100007 	tst	r0, #7
    be94:	1a000001 	bne	bea0 <memset+0x20>
    be98:	e3120007 	tst	r2, #7
    be9c:	0a000005 	beq	beb8 <memset+0x38>
    bea0:	e3100003 	tst	r0, #3
    bea4:	1a000001 	bne	beb0 <memset+0x30>
    bea8:	e3120003 	tst	r2, #3
    beac:	0a00000d 	beq	bee8 <memset+0x68>
    beb0:	e0802002 	add	r2, r0, r2
    beb4:	ea000014 	b	bf0c <memset+0x8c>
    beb8:	e1a021a2 	lsr	r2, r2, #3
    bebc:	ea000005 	b	bed8 <memset+0x58>
    bec0:	e1a03000 	mov	r3, r0
    bec4:	e1a02fc1 	asr	r2, r1, #31
    bec8:	e4831008 	str	r1, [r3], #8
    becc:	e5802004 	str	r2, [r0, #4]
    bed0:	e1a00003 	mov	r0, r3
    bed4:	e1a0200c 	mov	r2, ip
    bed8:	e242c001 	sub	ip, r2, #1
    bedc:	e3520000 	cmp	r2, #0
    bee0:	1afffff6 	bne	bec0 <memset+0x40>
    bee4:	e12fff1e 	bx	lr
    bee8:	e1a02122 	lsr	r2, r2, #2
    beec:	ea000001 	b	bef8 <memset+0x78>
    bef0:	e4801004 	str	r1, [r0], #4
    bef4:	e1a02003 	mov	r2, r3
    bef8:	e2423001 	sub	r3, r2, #1
    befc:	e3520000 	cmp	r2, #0
    bf00:	1afffffa 	bne	bef0 <memset+0x70>
    bf04:	e12fff1e 	bx	lr
    bf08:	e4c01001 	strb	r1, [r0], #1
    bf0c:	e1500002 	cmp	r0, r2
    bf10:	3afffffc 	bcc	bf08 <memset+0x88>
    bf14:	e12fff1e 	bx	lr

0000bf18 <printk>:
    bf18:	e92d000f 	push	{r0, r1, r2, r3}
    bf1c:	e52de004 	push	{lr}		@ (str lr, [sp, #-4]!)
    bf20:	e24dd00c 	sub	sp, sp, #12
    bf24:	e28d1014 	add	r1, sp, #20
    bf28:	e58d1004 	str	r1, [sp, #4]
    bf2c:	e59d0010 	ldr	r0, [sp, #16]
    bf30:	eb000047 	bl	c054 <vprintk>
    bf34:	e28dd00c 	add	sp, sp, #12
    bf38:	e49de004 	pop	{lr}		@ (ldr lr, [sp], #4)
    bf3c:	e28dd010 	add	sp, sp, #16
    bf40:	e12fff1e 	bx	lr

0000bf44 <emit_val>:
    bf44:	e92d4010 	push	{r4, lr}
    bf48:	e24dd030 	sub	sp, sp, #48	@ 0x30
    bf4c:	e350000a 	cmp	r0, #10
    bf50:	0a00000d 	beq	bf8c <emit_val+0x48>
    bf54:	e3500010 	cmp	r0, #16
    bf58:	0a00001b 	beq	bfcc <emit_val+0x88>
    bf5c:	e3500002 	cmp	r0, #2
    bf60:	1a000023 	bne	bff4 <emit_val+0xb0>
    bf64:	e28d400c 	add	r4, sp, #12
    bf68:	e2012001 	and	r2, r1, #1
    bf6c:	e59f00c0 	ldr	r0, [pc, #192]	@ c034 <emit_val+0xf0>
    bf70:	e7d02002 	ldrb	r2, [r0, r2]
    bf74:	e5c42000 	strb	r2, [r4]
    bf78:	e2844001 	add	r4, r4, #1
    bf7c:	e3510001 	cmp	r1, #1
    bf80:	e1a010a1 	lsr	r1, r1, #1
    bf84:	8afffff7 	bhi	bf68 <emit_val+0x24>
    bf88:	ea000024 	b	c020 <emit_val+0xdc>
    bf8c:	e28d400c 	add	r4, sp, #12
    bf90:	e59f30a0 	ldr	r3, [pc, #160]	@ c038 <emit_val+0xf4>
    bf94:	e0832193 	umull	r2, r3, r3, r1
    bf98:	e1a031a3 	lsr	r3, r3, #3
    bf9c:	e1a00003 	mov	r0, r3
    bfa0:	e0833103 	add	r3, r3, r3, lsl #2
    bfa4:	e0413083 	sub	r3, r1, r3, lsl #1
    bfa8:	e59fc08c 	ldr	ip, [pc, #140]	@ c03c <emit_val+0xf8>
    bfac:	e7dcc003 	ldrb	ip, [ip, r3]
    bfb0:	e5c4c000 	strb	ip, [r4]
    bfb4:	e2844001 	add	r4, r4, #1
    bfb8:	e1a03001 	mov	r3, r1
    bfbc:	e1a01000 	mov	r1, r0
    bfc0:	e3530009 	cmp	r3, #9
    bfc4:	8afffff1 	bhi	bf90 <emit_val+0x4c>
    bfc8:	ea000014 	b	c020 <emit_val+0xdc>
    bfcc:	e28d400c 	add	r4, sp, #12
    bfd0:	e201200f 	and	r2, r1, #15
    bfd4:	e59f0064 	ldr	r0, [pc, #100]	@ c040 <emit_val+0xfc>
    bfd8:	e7d02002 	ldrb	r2, [r0, r2]
    bfdc:	e5c42000 	strb	r2, [r4]
    bfe0:	e2844001 	add	r4, r4, #1
    bfe4:	e351000f 	cmp	r1, #15
    bfe8:	e1a01221 	lsr	r1, r1, #4
    bfec:	8afffff7 	bhi	bfd0 <emit_val+0x8c>
    bff0:	ea00000a 	b	c020 <emit_val+0xdc>
    bff4:	e58d0000 	str	r0, [sp]
    bff8:	e3a0301b 	mov	r3, #27
    bffc:	e59f2040 	ldr	r2, [pc, #64]	@ c044 <emit_val+0x100>
    c000:	e59f1040 	ldr	r1, [pc, #64]	@ c048 <emit_val+0x104>
    c004:	e59f0040 	ldr	r0, [pc, #64]	@ c04c <emit_val+0x108>
    c008:	ebffffc2 	bl	bf18 <printk>
    c00c:	eb0000d4 	bl	c364 <clean_reboot>
    c010:	e59f3038 	ldr	r3, [pc, #56]	@ c050 <emit_val+0x10c>
    c014:	e5933000 	ldr	r3, [r3]
    c018:	e5740001 	ldrb	r0, [r4, #-1]!
    c01c:	e12fff33 	blx	r3
    c020:	e28d300c 	add	r3, sp, #12
    c024:	e1540003 	cmp	r4, r3
    c028:	8afffff8 	bhi	c010 <emit_val+0xcc>
    c02c:	e28dd030 	add	sp, sp, #48	@ 0x30
    c030:	e8bd8010 	pop	{r4, pc}
    c034:	0000e07c 	.word	0x0000e07c
    c038:	cccccccd 	.word	0xcccccccd
    c03c:	0000e080 	.word	0x0000e080
    c040:	0000e08c 	.word	0x0000e08c
    c044:	0000eab8 	.word	0x0000eab8
    c048:	0000e048 	.word	0x0000e048
    c04c:	0000e058 	.word	0x0000e058
    c050:	0000eb54 	.word	0x0000eb54

0000c054 <vprintk>:
    c054:	e92d4030 	push	{r4, r5, lr}
    c058:	e24dd014 	sub	sp, sp, #20
    c05c:	e1a04000 	mov	r4, r0
    c060:	e58d100c 	str	r1, [sp, #12]
    c064:	ea000003 	b	c078 <vprintk+0x24>
    c068:	e59f3238 	ldr	r3, [pc, #568]	@ c2a8 <vprintk+0x254>
    c06c:	e5933000 	ldr	r3, [r3]
    c070:	e12fff33 	blx	r3
    c074:	e2844001 	add	r4, r4, #1
    c078:	e5d40000 	ldrb	r0, [r4]
    c07c:	e3500000 	cmp	r0, #0
    c080:	0a000086 	beq	c2a0 <vprintk+0x24c>
    c084:	e3500025 	cmp	r0, #37	@ 0x25
    c088:	1afffff6 	bne	c068 <vprintk+0x14>
    c08c:	e2845001 	add	r5, r4, #1
    c090:	e5d42001 	ldrb	r2, [r4, #1]
    c094:	e2423062 	sub	r3, r2, #98	@ 0x62
    c098:	e59f120c 	ldr	r1, [pc, #524]	@ c2ac <vprintk+0x258>
    c09c:	e3530016 	cmp	r3, #22
    c0a0:	8a000077 	bhi	c284 <vprintk+0x230>
    c0a4:	e7d13003 	ldrb	r3, [r1, r3]
    c0a8:	e08ff103 	add	pc, pc, r3, lsl #2
    c0ac:	e320f000 	nop	{0}
    c0b0:	e59d300c 	ldr	r3, [sp, #12]
    c0b4:	e2832004 	add	r2, r3, #4
    c0b8:	e58d200c 	str	r2, [sp, #12]
    c0bc:	e5931000 	ldr	r1, [r3]
    c0c0:	e3a00002 	mov	r0, #2
    c0c4:	ebffff9e 	bl	bf44 <emit_val>
    c0c8:	e1a04005 	mov	r4, r5
    c0cc:	eaffffe8 	b	c074 <vprintk+0x20>
    c0d0:	e59d300c 	ldr	r3, [sp, #12]
    c0d4:	e2832004 	add	r2, r3, #4
    c0d8:	e58d200c 	str	r2, [sp, #12]
    c0dc:	e5931000 	ldr	r1, [r3]
    c0e0:	e3a0000a 	mov	r0, #10
    c0e4:	ebffff96 	bl	bf44 <emit_val>
    c0e8:	e1a04005 	mov	r4, r5
    c0ec:	eaffffe0 	b	c074 <vprintk+0x20>
    c0f0:	e59f31b0 	ldr	r3, [pc, #432]	@ c2a8 <vprintk+0x254>
    c0f4:	e5932000 	ldr	r2, [r3]
    c0f8:	e59d300c 	ldr	r3, [sp, #12]
    c0fc:	e2831004 	add	r1, r3, #4
    c100:	e58d100c 	str	r1, [sp, #12]
    c104:	e5930000 	ldr	r0, [r3]
    c108:	e12fff32 	blx	r2
    c10c:	e1a04005 	mov	r4, r5
    c110:	eaffffd7 	b	c074 <vprintk+0x20>
    c114:	e2842002 	add	r2, r4, #2
    c118:	e5d43002 	ldrb	r3, [r4, #2]
    c11c:	e353006c 	cmp	r3, #108	@ 0x6c
    c120:	1a000018 	bne	c188 <vprintk+0x134>
    c124:	e2845003 	add	r5, r4, #3
    c128:	e5d43003 	ldrb	r3, [r4, #3]
    c12c:	e3530078 	cmp	r3, #120	@ 0x78
    c130:	1a00001b 	bne	c1a4 <vprintk+0x150>
    c134:	e59f416c 	ldr	r4, [pc, #364]	@ c2a8 <vprintk+0x254>
    c138:	e5943000 	ldr	r3, [r4]
    c13c:	e3a00030 	mov	r0, #48	@ 0x30
    c140:	e12fff33 	blx	r3
    c144:	e5943000 	ldr	r3, [r4]
    c148:	e3a00078 	mov	r0, #120	@ 0x78
    c14c:	e12fff33 	blx	r3
    c150:	e59d300c 	ldr	r3, [sp, #12]
    c154:	e2833007 	add	r3, r3, #7
    c158:	e3c33007 	bic	r3, r3, #7
    c15c:	e2832008 	add	r2, r3, #8
    c160:	e58d200c 	str	r2, [sp, #12]
    c164:	e5934000 	ldr	r4, [r3]
    c168:	e5931004 	ldr	r1, [r3, #4]
    c16c:	e3510000 	cmp	r1, #0
    c170:	1a000012 	bne	c1c0 <vprintk+0x16c>
    c174:	e1a01004 	mov	r1, r4
    c178:	e3a00010 	mov	r0, #16
    c17c:	ebffff70 	bl	bf44 <emit_val>
    c180:	e1a04005 	mov	r4, r5
    c184:	eaffffba 	b	c074 <vprintk+0x20>
    c188:	e58d2000 	str	r2, [sp]
    c18c:	e3a0303b 	mov	r3, #59	@ 0x3b
    c190:	e59f2118 	ldr	r2, [pc, #280]	@ c2b0 <vprintk+0x25c>
    c194:	e59f1118 	ldr	r1, [pc, #280]	@ c2b4 <vprintk+0x260>
    c198:	e59f0118 	ldr	r0, [pc, #280]	@ c2b8 <vprintk+0x264>
    c19c:	ebffff5d 	bl	bf18 <printk>
    c1a0:	eb00006f 	bl	c364 <clean_reboot>
    c1a4:	e58d5000 	str	r5, [sp]
    c1a8:	e3a0303e 	mov	r3, #62	@ 0x3e
    c1ac:	e59f20fc 	ldr	r2, [pc, #252]	@ c2b0 <vprintk+0x25c>
    c1b0:	e59f10fc 	ldr	r1, [pc, #252]	@ c2b4 <vprintk+0x260>
    c1b4:	e59f00fc 	ldr	r0, [pc, #252]	@ c2b8 <vprintk+0x264>
    c1b8:	ebffff56 	bl	bf18 <printk>
    c1bc:	eb000068 	bl	c364 <clean_reboot>
    c1c0:	e3a00010 	mov	r0, #16
    c1c4:	ebffff5e 	bl	bf44 <emit_val>
    c1c8:	eaffffe9 	b	c174 <vprintk+0x120>
    c1cc:	e59f40d4 	ldr	r4, [pc, #212]	@ c2a8 <vprintk+0x254>
    c1d0:	e5943000 	ldr	r3, [r4]
    c1d4:	e3a00030 	mov	r0, #48	@ 0x30
    c1d8:	e12fff33 	blx	r3
    c1dc:	e5943000 	ldr	r3, [r4]
    c1e0:	e3a00078 	mov	r0, #120	@ 0x78
    c1e4:	e12fff33 	blx	r3
    c1e8:	e59d300c 	ldr	r3, [sp, #12]
    c1ec:	e2832004 	add	r2, r3, #4
    c1f0:	e58d200c 	str	r2, [sp, #12]
    c1f4:	e5931000 	ldr	r1, [r3]
    c1f8:	e3a00010 	mov	r0, #16
    c1fc:	ebffff50 	bl	bf44 <emit_val>
    c200:	e1a04005 	mov	r4, r5
    c204:	eaffff9a 	b	c074 <vprintk+0x20>
    c208:	e59d300c 	ldr	r3, [sp, #12]
    c20c:	e2832004 	add	r2, r3, #4
    c210:	e58d200c 	str	r2, [sp, #12]
    c214:	e5934000 	ldr	r4, [r3]
    c218:	e3540000 	cmp	r4, #0
    c21c:	ba000004 	blt	c234 <vprintk+0x1e0>
    c220:	e1a01004 	mov	r1, r4
    c224:	e3a0000a 	mov	r0, #10
    c228:	ebffff45 	bl	bf44 <emit_val>
    c22c:	e1a04005 	mov	r4, r5
    c230:	eaffff8f 	b	c074 <vprintk+0x20>
    c234:	e59f306c 	ldr	r3, [pc, #108]	@ c2a8 <vprintk+0x254>
    c238:	e5933000 	ldr	r3, [r3]
    c23c:	e3a0002d 	mov	r0, #45	@ 0x2d
    c240:	e12fff33 	blx	r3
    c244:	e2644000 	rsb	r4, r4, #0
    c248:	eafffff4 	b	c220 <vprintk+0x1cc>
    c24c:	e59d300c 	ldr	r3, [sp, #12]
    c250:	e2832004 	add	r2, r3, #4
    c254:	e58d200c 	str	r2, [sp, #12]
    c258:	e5934000 	ldr	r4, [r3]
    c25c:	ea000003 	b	c270 <vprintk+0x21c>
    c260:	e59f3040 	ldr	r3, [pc, #64]	@ c2a8 <vprintk+0x254>
    c264:	e5933000 	ldr	r3, [r3]
    c268:	e12fff33 	blx	r3
    c26c:	e2844001 	add	r4, r4, #1
    c270:	e5d40000 	ldrb	r0, [r4]
    c274:	e3500000 	cmp	r0, #0
    c278:	1afffff8 	bne	c260 <vprintk+0x20c>
    c27c:	e1a04005 	mov	r4, r5
    c280:	eaffff7b 	b	c074 <vprintk+0x20>
    c284:	e58d2000 	str	r2, [sp]
    c288:	e3a03062 	mov	r3, #98	@ 0x62
    c28c:	e59f201c 	ldr	r2, [pc, #28]	@ c2b0 <vprintk+0x25c>
    c290:	e59f101c 	ldr	r1, [pc, #28]	@ c2b4 <vprintk+0x260>
    c294:	e59f0020 	ldr	r0, [pc, #32]	@ c2bc <vprintk+0x268>
    c298:	ebffff1e 	bl	bf18 <printk>
    c29c:	eb000030 	bl	c364 <clean_reboot>
    c2a0:	e28dd014 	add	sp, sp, #20
    c2a4:	e8bd8030 	pop	{r4, r5, pc}
    c2a8:	0000eb54 	.word	0x0000eb54
    c2ac:	0000eaa0 	.word	0x0000eaa0
    c2b0:	0000eac4 	.word	0x0000eac4
    c2b4:	0000e048 	.word	0x0000e048
    c2b8:	0000e0a0 	.word	0x0000e0a0
    c2bc:	0000e0d8 	.word	0x0000e0d8

0000c2c0 <default_putchar>:
    c2c0:	e92d4010 	push	{r4, lr}
    c2c4:	e1a04000 	mov	r4, r0
    c2c8:	e6ef0070 	uxtb	r0, r0
    c2cc:	eb0000fc 	bl	c6c4 <uart_put8>
    c2d0:	e1a00004 	mov	r0, r4
    c2d4:	e8bd8010 	pop	{r4, pc}

0000c2d8 <rpi_putchar_set>:
    c2d8:	e59f300c 	ldr	r3, [pc, #12]	@ c2ec <rpi_putchar_set+0x14>
    c2dc:	e5932000 	ldr	r2, [r3]
    c2e0:	e5830000 	str	r0, [r3]
    c2e4:	e1a00002 	mov	r0, r2
    c2e8:	e12fff1e 	bx	lr
    c2ec:	0000eb54 	.word	0x0000eb54

0000c2f0 <strcat>:
    c2f0:	e1a02000 	mov	r2, r0
    c2f4:	e1a03002 	mov	r3, r2
    c2f8:	e2822001 	add	r2, r2, #1
    c2fc:	e5d3c000 	ldrb	ip, [r3]
    c300:	e35c0000 	cmp	ip, #0
    c304:	1afffffa 	bne	c2f4 <strcat+0x4>
    c308:	e2433001 	sub	r3, r3, #1
    c30c:	e5d12000 	ldrb	r2, [r1]
    c310:	e2811001 	add	r1, r1, #1
    c314:	e5e32001 	strb	r2, [r3, #1]!
    c318:	e3520000 	cmp	r2, #0
    c31c:	1afffffa 	bne	c30c <strcat+0x1c>
    c320:	e12fff1e 	bx	lr

0000c324 <strcpy>:
    c324:	e1a0c000 	mov	ip, r0
    c328:	e5d12000 	ldrb	r2, [r1]
    c32c:	e2811001 	add	r1, r1, #1
    c330:	e5cc2000 	strb	r2, [ip]
    c334:	e28cc001 	add	ip, ip, #1
    c338:	e3520000 	cmp	r2, #0
    c33c:	1afffff9 	bne	c328 <strcpy+0x4>
    c340:	e12fff1e 	bx	lr

0000c344 <strlen>:
    c344:	e1a02000 	mov	r2, r0
    c348:	e3a00000 	mov	r0, #0
    c34c:	ea000000 	b	c354 <strlen+0x10>
    c350:	e2800001 	add	r0, r0, #1
    c354:	e7d23000 	ldrb	r3, [r2, r0]
    c358:	e3530000 	cmp	r3, #0
    c35c:	1afffffb 	bne	c350 <strlen+0xc>
    c360:	e12fff1e 	bx	lr

0000c364 <clean_reboot>:
    c364:	e92d4010 	push	{r4, lr}
    c368:	e59f0010 	ldr	r0, [pc, #16]	@ c380 <clean_reboot+0x1c>
    c36c:	eb0000fa 	bl	c75c <putk>
    c370:	eb0000e6 	bl	c710 <uart_flush_tx>
    c374:	e3a0000a 	mov	r0, #10
    c378:	eb000076 	bl	c558 <delay_ms>
    c37c:	eb000052 	bl	c4cc <rpi_reboot>
    c380:	0000e100 	.word	0x0000e100

0000c384 <redzone_check>:
    c384:	e92d4030 	push	{r4, r5, lr}
    c388:	e24dd00c 	sub	sp, sp, #12
    c38c:	e2501000 	subs	r1, r0, #0
    c390:	0a000001 	beq	c39c <redzone_check+0x18>
    c394:	e59f0070 	ldr	r0, [pc, #112]	@ c40c <redzone_check+0x88>
    c398:	ebfffede 	bl	bf18 <printk>
    c39c:	e3a04000 	mov	r4, #0
    c3a0:	e1a05004 	mov	r5, r4
    c3a4:	ea000000 	b	c3ac <redzone_check+0x28>
    c3a8:	e2844001 	add	r4, r4, #1
    c3ac:	e3540b01 	cmp	r4, #1024	@ 0x400
    c3b0:	2a000009 	bcs	c3dc <redzone_check+0x58>
    c3b4:	e1a01104 	lsl	r1, r4, #2
    c3b8:	e5913000 	ldr	r3, [r1]
    c3bc:	e3530000 	cmp	r3, #0
    c3c0:	0afffff8 	beq	c3a8 <redzone_check+0x24>
    c3c4:	e2855001 	add	r5, r5, #1
    c3c8:	e5912000 	ldr	r2, [r1]
    c3cc:	e1a03005 	mov	r3, r5
    c3d0:	e59f0038 	ldr	r0, [pc, #56]	@ c410 <redzone_check+0x8c>
    c3d4:	ebfffecf 	bl	bf18 <printk>
    c3d8:	eafffff2 	b	c3a8 <redzone_check+0x24>
    c3dc:	e3550000 	cmp	r5, #0
    c3e0:	1a000002 	bne	c3f0 <redzone_check+0x6c>
    c3e4:	e3a00001 	mov	r0, #1
    c3e8:	e28dd00c 	add	sp, sp, #12
    c3ec:	e8bd8030 	pop	{r4, r5, pc}
    c3f0:	e58d5000 	str	r5, [sp]
    c3f4:	e3a0301b 	mov	r3, #27
    c3f8:	e59f2014 	ldr	r2, [pc, #20]	@ c414 <redzone_check+0x90>
    c3fc:	e59f1014 	ldr	r1, [pc, #20]	@ c418 <redzone_check+0x94>
    c400:	e59f0014 	ldr	r0, [pc, #20]	@ c41c <redzone_check+0x98>
    c404:	ebfffec3 	bl	bf18 <printk>
    c408:	ebffffd5 	bl	c364 <clean_reboot>
    c40c:	0000e10c 	.word	0x0000e10c
    c410:	0000e124 	.word	0x0000e124
    c414:	0000eacc 	.word	0x0000eacc
    c418:	0000e150 	.word	0x0000e150
    c41c:	0000e198 	.word	0x0000e198

0000c420 <redzone_init>:
    c420:	e52de004 	push	{lr}		@ (str lr, [sp, #-4]!)
    c424:	e24dd00c 	sub	sp, sp, #12
    c428:	e3a02a01 	mov	r2, #4096	@ 0x1000
    c42c:	e3a01000 	mov	r1, #0
    c430:	e1a00001 	mov	r0, r1
    c434:	ebfffe91 	bl	be80 <memset>
    c438:	e3a00000 	mov	r0, #0
    c43c:	ebffffd0 	bl	c384 <redzone_check>
    c440:	e3500000 	cmp	r0, #0
    c444:	0a000001 	beq	c450 <redzone_init+0x30>
    c448:	e28dd00c 	add	sp, sp, #12
    c44c:	e49df004 	pop	{pc}		@ (ldr pc, [sp], #4)
    c450:	e59f3018 	ldr	r3, [pc, #24]	@ c470 <redzone_init+0x50>
    c454:	e58d3000 	str	r3, [sp]
    c458:	e3a03022 	mov	r3, #34	@ 0x22
    c45c:	e59f2010 	ldr	r2, [pc, #16]	@ c474 <redzone_init+0x54>
    c460:	e59f1010 	ldr	r1, [pc, #16]	@ c478 <redzone_init+0x58>
    c464:	e59f0010 	ldr	r0, [pc, #16]	@ c47c <redzone_init+0x5c>
    c468:	ebfffeaa 	bl	bf18 <printk>
    c46c:	ebffffbc 	bl	c364 <clean_reboot>
    c470:	0000e1c8 	.word	0x0000e1c8
    c474:	0000eadc 	.word	0x0000eadc
    c478:	0000e150 	.word	0x0000e150
    c47c:	0000c818 	.word	0x0000c818

0000c480 <program_end>:
    c480:	e59f0000 	ldr	r0, [pc]	@ c488 <program_end+0x8>
    c484:	e12fff1e 	bx	lr
    c488:	0000f080 	.word	0x0000f080

0000c48c <_cstart>:
    c48c:	e92d4010 	push	{r4, lr}
    c490:	e59f302c 	ldr	r3, [pc, #44]	@ c4c4 <_cstart+0x38>
    c494:	ea000001 	b	c4a0 <_cstart+0x14>
    c498:	e3a02000 	mov	r2, #0
    c49c:	e4c32001 	strb	r2, [r3], #1
    c4a0:	e59f2020 	ldr	r2, [pc, #32]	@ c4c8 <_cstart+0x3c>
    c4a4:	e1530002 	cmp	r3, r2
    c4a8:	3afffffa 	bcc	c498 <_cstart+0xc>
    c4ac:	eb00003f 	bl	c5b0 <uart_init>
    c4b0:	e3a03001 	mov	r3, #1
    c4b4:	ee0f3f1c 	mcr	15, 0, r3, cr15, cr12, {0}
    c4b8:	ebffffd8 	bl	c420 <redzone_init>
    c4bc:	ebffeedd 	bl	8038 <notmain>
    c4c0:	ebffffa7 	bl	c364 <clean_reboot>
    c4c4:	0000eb58 	.word	0x0000eb58
    c4c8:	0000f080 	.word	0x0000f080

0000c4cc <rpi_reboot>:
    c4cc:	e92d4010 	push	{r4, lr}
    c4d0:	e3a0000a 	mov	r0, #10
    c4d4:	eb00001f 	bl	c558 <delay_ms>
    c4d8:	e59f1014 	ldr	r1, [pc, #20]	@ c4f4 <rpi_reboot+0x28>
    c4dc:	e59f0014 	ldr	r0, [pc, #20]	@ c4f8 <rpi_reboot+0x2c>
    c4e0:	ebffeecf 	bl	8024 <PUT32>
    c4e4:	e59f1010 	ldr	r1, [pc, #16]	@ c4fc <rpi_reboot+0x30>
    c4e8:	e59f0010 	ldr	r0, [pc, #16]	@ c500 <rpi_reboot+0x34>
    c4ec:	ebffeecc 	bl	8024 <PUT32>
    c4f0:	eafffffe 	b	c4f0 <rpi_reboot+0x24>
    c4f4:	5a000001 	.word	0x5a000001
    c4f8:	20100024 	.word	0x20100024
    c4fc:	5a000020 	.word	0x5a000020
    c500:	2010001c 	.word	0x2010001c

0000c504 <timer_get_usec_raw>:
    c504:	e92d4010 	push	{r4, lr}
    c508:	e59f0004 	ldr	r0, [pc, #4]	@ c514 <timer_get_usec_raw+0x10>
    c50c:	ebffeec6 	bl	802c <GET32>
    c510:	e8bd8010 	pop	{r4, pc}
    c514:	20003004 	.word	0x20003004

0000c518 <timer_get_usec>:
    c518:	e92d4010 	push	{r4, lr}
    c51c:	eb00009b 	bl	c790 <dev_barrier>
    c520:	ebfffff7 	bl	c504 <timer_get_usec_raw>
    c524:	e1a04000 	mov	r4, r0
    c528:	eb000098 	bl	c790 <dev_barrier>
    c52c:	e1a00004 	mov	r0, r4
    c530:	e8bd8010 	pop	{r4, pc}

0000c534 <delay_us>:
    c534:	e92d4070 	push	{r4, r5, r6, lr}
    c538:	e1a05000 	mov	r5, r0
    c53c:	ebfffff5 	bl	c518 <timer_get_usec>
    c540:	e1a04000 	mov	r4, r0
    c544:	ebfffff3 	bl	c518 <timer_get_usec>
    c548:	e0400004 	sub	r0, r0, r4
    c54c:	e1500005 	cmp	r0, r5
    c550:	3afffffb 	bcc	c544 <delay_us+0x10>
    c554:	e8bd8070 	pop	{r4, r5, r6, pc}

0000c558 <delay_ms>:
    c558:	e92d4010 	push	{r4, lr}
    c55c:	e0603280 	rsb	r3, r0, r0, lsl #5
    c560:	e0800103 	add	r0, r0, r3, lsl #2
    c564:	e1a00180 	lsl	r0, r0, #3
    c568:	ebfffff1 	bl	c534 <delay_us>
    c56c:	e8bd8010 	pop	{r4, pc}

0000c570 <delay_sec>:
    c570:	e92d4010 	push	{r4, lr}
    c574:	e0603280 	rsb	r3, r0, r0, lsl #5
    c578:	e0800103 	add	r0, r0, r3, lsl #2
    c57c:	e1a00180 	lsl	r0, r0, #3
    c580:	ebfffff4 	bl	c558 <delay_ms>
    c584:	e8bd8010 	pop	{r4, pc}

0000c588 <OR32>:
    c588:	e92d4070 	push	{r4, r5, r6, lr}
    c58c:	e1a05000 	mov	r5, r0
    c590:	e1a04001 	mov	r4, r1
    c594:	ebffeea4 	bl	802c <GET32>
    c598:	e1804004 	orr	r4, r0, r4
    c59c:	e1a01004 	mov	r1, r4
    c5a0:	e1a00005 	mov	r0, r5
    c5a4:	ebffee9e 	bl	8024 <PUT32>
    c5a8:	e1a00004 	mov	r0, r4
    c5ac:	e8bd8070 	pop	{r4, r5, r6, pc}

0000c5b0 <uart_init>:
    c5b0:	e92d4010 	push	{r4, lr}
    c5b4:	eb000075 	bl	c790 <dev_barrier>
    c5b8:	e3a01002 	mov	r1, #2
    c5bc:	e3a0000e 	mov	r0, #14
    c5c0:	ebfffd59 	bl	bb2c <gpio_set_function>
    c5c4:	e3a01002 	mov	r1, #2
    c5c8:	e3a0000f 	mov	r0, #15
    c5cc:	ebfffd56 	bl	bb2c <gpio_set_function>
    c5d0:	eb00006e 	bl	c790 <dev_barrier>
    c5d4:	e3a01001 	mov	r1, #1
    c5d8:	e59f0058 	ldr	r0, [pc, #88]	@ c638 <uart_init+0x88>
    c5dc:	ebffffe9 	bl	c588 <OR32>
    c5e0:	eb00006a 	bl	c790 <dev_barrier>
    c5e4:	e59f4050 	ldr	r4, [pc, #80]	@ c63c <uart_init+0x8c>
    c5e8:	e3a01000 	mov	r1, #0
    c5ec:	e1a00004 	mov	r0, r4
    c5f0:	ebffee8b 	bl	8024 <PUT32>
    c5f4:	e3a01006 	mov	r1, #6
    c5f8:	e59f0040 	ldr	r0, [pc, #64]	@ c640 <uart_init+0x90>
    c5fc:	ebffee88 	bl	8024 <PUT32>
    c600:	e3a01003 	mov	r1, #3
    c604:	e59f0038 	ldr	r0, [pc, #56]	@ c644 <uart_init+0x94>
    c608:	ebffee85 	bl	8024 <PUT32>
    c60c:	e59f1034 	ldr	r1, [pc, #52]	@ c648 <uart_init+0x98>
    c610:	e59f0034 	ldr	r0, [pc, #52]	@ c64c <uart_init+0x9c>
    c614:	ebffee82 	bl	8024 <PUT32>
    c618:	e3a01000 	mov	r1, #0
    c61c:	e59f002c 	ldr	r0, [pc, #44]	@ c650 <uart_init+0xa0>
    c620:	ebffee7f 	bl	8024 <PUT32>
    c624:	e3a01003 	mov	r1, #3
    c628:	e1a00004 	mov	r0, r4
    c62c:	ebffee7c 	bl	8024 <PUT32>
    c630:	eb000056 	bl	c790 <dev_barrier>
    c634:	e8bd8010 	pop	{r4, pc}
    c638:	20215004 	.word	0x20215004
    c63c:	20215060 	.word	0x20215060
    c640:	20215048 	.word	0x20215048
    c644:	2021504c 	.word	0x2021504c
    c648:	0000010e 	.word	0x0000010e
    c64c:	20215068 	.word	0x20215068
    c650:	20215044 	.word	0x20215044

0000c654 <uart_tx_is_empty>:
    c654:	e92d4010 	push	{r4, lr}
    c658:	e59f0008 	ldr	r0, [pc, #8]	@ c668 <uart_tx_is_empty+0x14>
    c65c:	ebffee72 	bl	802c <GET32>
    c660:	e2000040 	and	r0, r0, #64	@ 0x40
    c664:	e8bd8010 	pop	{r4, pc}
    c668:	20215054 	.word	0x20215054

0000c66c <uart_has_data>:
    c66c:	e92d4010 	push	{r4, lr}
    c670:	e59f0008 	ldr	r0, [pc, #8]	@ c680 <uart_has_data+0x14>
    c674:	ebffee6c 	bl	802c <GET32>
    c678:	e2000001 	and	r0, r0, #1
    c67c:	e8bd8010 	pop	{r4, pc}
    c680:	20215064 	.word	0x20215064

0000c684 <uart_get8>:
    c684:	e92d4010 	push	{r4, lr}
    c688:	ebfffff7 	bl	c66c <uart_has_data>
    c68c:	e3500000 	cmp	r0, #0
    c690:	0afffffc 	beq	c688 <uart_get8+0x4>
    c694:	e59f000c 	ldr	r0, [pc, #12]	@ c6a8 <uart_get8+0x24>
    c698:	ebffee63 	bl	802c <GET32>
    c69c:	e1a00b80 	lsl	r0, r0, #23
    c6a0:	e1a00ba0 	lsr	r0, r0, #23
    c6a4:	e8bd8010 	pop	{r4, pc}
    c6a8:	20215040 	.word	0x20215040

0000c6ac <uart_can_put8>:
    c6ac:	e92d4010 	push	{r4, lr}
    c6b0:	e59f0008 	ldr	r0, [pc, #8]	@ c6c0 <uart_can_put8+0x14>
    c6b4:	ebffee5c 	bl	802c <GET32>
    c6b8:	e2000002 	and	r0, r0, #2
    c6bc:	e8bd8010 	pop	{r4, pc}
    c6c0:	20215064 	.word	0x20215064

0000c6c4 <uart_put8>:
    c6c4:	e92d4010 	push	{r4, lr}
    c6c8:	e1a04000 	mov	r4, r0
    c6cc:	ebfffff6 	bl	c6ac <uart_can_put8>
    c6d0:	e3500000 	cmp	r0, #0
    c6d4:	0afffffc 	beq	c6cc <uart_put8+0x8>
    c6d8:	e1a01004 	mov	r1, r4
    c6dc:	e59f0008 	ldr	r0, [pc, #8]	@ c6ec <uart_put8+0x28>
    c6e0:	ebffee4f 	bl	8024 <PUT32>
    c6e4:	e3a00001 	mov	r0, #1
    c6e8:	e8bd8010 	pop	{r4, pc}
    c6ec:	20215040 	.word	0x20215040

0000c6f0 <uart_get8_async>:
    c6f0:	e92d4010 	push	{r4, lr}
    c6f4:	ebffffdc 	bl	c66c <uart_has_data>
    c6f8:	e3500000 	cmp	r0, #0
    c6fc:	0a000001 	beq	c708 <uart_get8_async+0x18>
    c700:	ebffffdf 	bl	c684 <uart_get8>
    c704:	e8bd8010 	pop	{r4, pc}
    c708:	e3e00000 	mvn	r0, #0
    c70c:	e8bd8010 	pop	{r4, pc}

0000c710 <uart_flush_tx>:
    c710:	e92d4010 	push	{r4, lr}
    c714:	ea000000 	b	c71c <uart_flush_tx+0xc>
    c718:	eb000022 	bl	c7a8 <rpi_wait>
    c71c:	ebffffcc 	bl	c654 <uart_tx_is_empty>
    c720:	e3500000 	cmp	r0, #0
    c724:	0afffffb 	beq	c718 <uart_flush_tx+0x8>
    c728:	e8bd8010 	pop	{r4, pc}

0000c72c <uart_disable>:
    c72c:	e92d4010 	push	{r4, lr}
    c730:	ebfffff6 	bl	c710 <uart_flush_tx>
    c734:	eb000015 	bl	c790 <dev_barrier>
    c738:	e59f4018 	ldr	r4, [pc, #24]	@ c758 <uart_disable+0x2c>
    c73c:	e1a00004 	mov	r0, r4
    c740:	ebffee39 	bl	802c <GET32>
    c744:	e3c01001 	bic	r1, r0, #1
    c748:	e1a00004 	mov	r0, r4
    c74c:	ebffee34 	bl	8024 <PUT32>
    c750:	eb00000e 	bl	c790 <dev_barrier>
    c754:	e8bd8010 	pop	{r4, pc}
    c758:	20215004 	.word	0x20215004

0000c75c <putk>:
    c75c:	e92d4010 	push	{r4, lr}
    c760:	e1a04000 	mov	r4, r0
    c764:	ea000003 	b	c778 <putk+0x1c>
    c768:	e59f301c 	ldr	r3, [pc, #28]	@ c78c <putk+0x30>
    c76c:	e5933000 	ldr	r3, [r3]
    c770:	e12fff33 	blx	r3
    c774:	e2844001 	add	r4, r4, #1
    c778:	e5d40000 	ldrb	r0, [r4]
    c77c:	e3500000 	cmp	r0, #0
    c780:	1afffff8 	bne	c768 <putk+0xc>
    c784:	e3a00001 	mov	r0, #1
    c788:	e8bd8010 	pop	{r4, pc}
    c78c:	0000eb54 	.word	0x0000eb54

0000c790 <dev_barrier>:
    c790:	ea000002 	b	c7a0 <dsb>

0000c794 <dmb>:
    c794:	e3a00000 	mov	r0, #0
    c798:	ee070fba 	mcr	15, 0, r0, cr7, cr10, {5}
    c79c:	e12fff1e 	bx	lr

0000c7a0 <dsb>:
    c7a0:	ee070f9a 	mcr	15, 0, r0, cr7, cr10, {4}
    c7a4:	e12fff1e 	bx	lr

0000c7a8 <rpi_wait>:
    c7a8:	e12fff1e 	bx	lr

0000c7ac <__code_end__>:
    c7ac:	00000000 	andeq	r0, r0, r0
